
CanSat_V3 - 1kHz.elf:     file format elf32-avr

Sections:
Idx Name          Size      VMA       LMA       File off  Algn
  0 .text         00005bae  00000000  00000000  00000094  2**1
                  CONTENTS, ALLOC, LOAD, READONLY, CODE
  1 .data         000000d0  00802000  00005bae  00005c42  2**0
                  CONTENTS, ALLOC, LOAD, DATA
  2 .bss          0000074c  008020d0  008020d0  00005d12  2**0
                  ALLOC
  3 .comment      00000030  00000000  00000000  00005d12  2**0
                  CONTENTS, READONLY
  4 .note.gnu.avr.deviceinfo 00000044  00000000  00000000  00005d44  2**2
                  CONTENTS, READONLY
  5 .debug_aranges 000003d0  00000000  00000000  00005d88  2**0
                  CONTENTS, READONLY, DEBUGGING
  6 .debug_info   00008523  00000000  00000000  00006158  2**0
                  CONTENTS, READONLY, DEBUGGING
  7 .debug_abbrev 00001429  00000000  00000000  0000e67b  2**0
                  CONTENTS, READONLY, DEBUGGING
  8 .debug_line   000033a5  00000000  00000000  0000faa4  2**0
                  CONTENTS, READONLY, DEBUGGING
  9 .debug_frame  00000dac  00000000  00000000  00012e4c  2**2
                  CONTENTS, READONLY, DEBUGGING
 10 .debug_str    000022c4  00000000  00000000  00013bf8  2**0
                  CONTENTS, READONLY, DEBUGGING
 11 .debug_loc    00003543  00000000  00000000  00015ebc  2**0
                  CONTENTS, READONLY, DEBUGGING
 12 .debug_ranges 00000330  00000000  00000000  000193ff  2**0
                  CONTENTS, READONLY, DEBUGGING

Disassembly of section .text:

00000000 <__vectors>:
       0:	64 c1       	rjmp	.+712    	; 0x2ca <__ctors_end>
       2:	00 00       	nop
       4:	83 c1       	rjmp	.+774    	; 0x30c <__bad_interrupt>
       6:	00 00       	nop
       8:	81 c1       	rjmp	.+770    	; 0x30c <__bad_interrupt>
       a:	00 00       	nop
       c:	7f c1       	rjmp	.+766    	; 0x30c <__bad_interrupt>
       e:	00 00       	nop
      10:	7d c1       	rjmp	.+762    	; 0x30c <__bad_interrupt>
      12:	00 00       	nop
      14:	7b c1       	rjmp	.+758    	; 0x30c <__bad_interrupt>
      16:	00 00       	nop
      18:	79 c1       	rjmp	.+754    	; 0x30c <__bad_interrupt>
      1a:	00 00       	nop
      1c:	77 c1       	rjmp	.+750    	; 0x30c <__bad_interrupt>
      1e:	00 00       	nop
      20:	75 c1       	rjmp	.+746    	; 0x30c <__bad_interrupt>
      22:	00 00       	nop
      24:	73 c1       	rjmp	.+742    	; 0x30c <__bad_interrupt>
      26:	00 00       	nop
      28:	71 c1       	rjmp	.+738    	; 0x30c <__bad_interrupt>
      2a:	00 00       	nop
      2c:	6f c1       	rjmp	.+734    	; 0x30c <__bad_interrupt>
      2e:	00 00       	nop
      30:	6d c1       	rjmp	.+730    	; 0x30c <__bad_interrupt>
      32:	00 00       	nop
      34:	6b c1       	rjmp	.+726    	; 0x30c <__bad_interrupt>
      36:	00 00       	nop
      38:	bd c4       	rjmp	.+2426   	; 0x9b4 <__vector_14>
      3a:	00 00       	nop
      3c:	67 c1       	rjmp	.+718    	; 0x30c <__bad_interrupt>
      3e:	00 00       	nop
      40:	65 c1       	rjmp	.+714    	; 0x30c <__bad_interrupt>
      42:	00 00       	nop
      44:	63 c1       	rjmp	.+710    	; 0x30c <__bad_interrupt>
      46:	00 00       	nop
      48:	61 c1       	rjmp	.+706    	; 0x30c <__bad_interrupt>
      4a:	00 00       	nop
      4c:	5f c1       	rjmp	.+702    	; 0x30c <__bad_interrupt>
      4e:	00 00       	nop
      50:	5d c1       	rjmp	.+698    	; 0x30c <__bad_interrupt>
      52:	00 00       	nop
      54:	5b c1       	rjmp	.+694    	; 0x30c <__bad_interrupt>
      56:	00 00       	nop
      58:	59 c1       	rjmp	.+690    	; 0x30c <__bad_interrupt>
      5a:	00 00       	nop
      5c:	57 c1       	rjmp	.+686    	; 0x30c <__bad_interrupt>
      5e:	00 00       	nop
      60:	55 c1       	rjmp	.+682    	; 0x30c <__bad_interrupt>
      62:	00 00       	nop
      64:	53 c1       	rjmp	.+678    	; 0x30c <__bad_interrupt>
      66:	00 00       	nop
      68:	51 c1       	rjmp	.+674    	; 0x30c <__bad_interrupt>
      6a:	00 00       	nop
      6c:	4f c1       	rjmp	.+670    	; 0x30c <__bad_interrupt>
      6e:	00 00       	nop
      70:	4d c1       	rjmp	.+666    	; 0x30c <__bad_interrupt>
      72:	00 00       	nop
      74:	4b c1       	rjmp	.+662    	; 0x30c <__bad_interrupt>
      76:	00 00       	nop
      78:	49 c1       	rjmp	.+658    	; 0x30c <__bad_interrupt>
      7a:	00 00       	nop
      7c:	47 c1       	rjmp	.+654    	; 0x30c <__bad_interrupt>
      7e:	00 00       	nop
      80:	45 c1       	rjmp	.+650    	; 0x30c <__bad_interrupt>
      82:	00 00       	nop
      84:	43 c1       	rjmp	.+646    	; 0x30c <__bad_interrupt>
      86:	00 00       	nop
      88:	41 c1       	rjmp	.+642    	; 0x30c <__bad_interrupt>
      8a:	00 00       	nop
      8c:	3f c1       	rjmp	.+638    	; 0x30c <__bad_interrupt>
      8e:	00 00       	nop
      90:	3d c1       	rjmp	.+634    	; 0x30c <__bad_interrupt>
      92:	00 00       	nop
      94:	3b c1       	rjmp	.+630    	; 0x30c <__bad_interrupt>
      96:	00 00       	nop
      98:	39 c1       	rjmp	.+626    	; 0x30c <__bad_interrupt>
      9a:	00 00       	nop
      9c:	37 c1       	rjmp	.+622    	; 0x30c <__bad_interrupt>
      9e:	00 00       	nop
      a0:	35 c1       	rjmp	.+618    	; 0x30c <__bad_interrupt>
      a2:	00 00       	nop
      a4:	33 c1       	rjmp	.+614    	; 0x30c <__bad_interrupt>
      a6:	00 00       	nop
      a8:	31 c1       	rjmp	.+610    	; 0x30c <__bad_interrupt>
      aa:	00 00       	nop
      ac:	2f c1       	rjmp	.+606    	; 0x30c <__bad_interrupt>
      ae:	00 00       	nop
      b0:	2d c1       	rjmp	.+602    	; 0x30c <__bad_interrupt>
      b2:	00 00       	nop
      b4:	2b c1       	rjmp	.+598    	; 0x30c <__bad_interrupt>
      b6:	00 00       	nop
      b8:	29 c1       	rjmp	.+594    	; 0x30c <__bad_interrupt>
      ba:	00 00       	nop
      bc:	f1 c4       	rjmp	.+2530   	; 0xaa0 <__vector_47>
      be:	00 00       	nop
      c0:	25 c1       	rjmp	.+586    	; 0x30c <__bad_interrupt>
      c2:	00 00       	nop
      c4:	23 c1       	rjmp	.+582    	; 0x30c <__bad_interrupt>
      c6:	00 00       	nop
      c8:	21 c1       	rjmp	.+578    	; 0x30c <__bad_interrupt>
      ca:	00 00       	nop
      cc:	1f c1       	rjmp	.+574    	; 0x30c <__bad_interrupt>
      ce:	00 00       	nop
      d0:	1d c1       	rjmp	.+570    	; 0x30c <__bad_interrupt>
      d2:	00 00       	nop
      d4:	1b c1       	rjmp	.+566    	; 0x30c <__bad_interrupt>
      d6:	00 00       	nop
      d8:	19 c1       	rjmp	.+562    	; 0x30c <__bad_interrupt>
      da:	00 00       	nop
      dc:	17 c1       	rjmp	.+558    	; 0x30c <__bad_interrupt>
      de:	00 00       	nop
      e0:	15 c1       	rjmp	.+554    	; 0x30c <__bad_interrupt>
      e2:	00 00       	nop
      e4:	13 c1       	rjmp	.+550    	; 0x30c <__bad_interrupt>
      e6:	00 00       	nop
      e8:	11 c1       	rjmp	.+546    	; 0x30c <__bad_interrupt>
      ea:	00 00       	nop
      ec:	0f c1       	rjmp	.+542    	; 0x30c <__bad_interrupt>
      ee:	00 00       	nop
      f0:	0d c1       	rjmp	.+538    	; 0x30c <__bad_interrupt>
      f2:	00 00       	nop
      f4:	0b c1       	rjmp	.+534    	; 0x30c <__bad_interrupt>
      f6:	00 00       	nop
      f8:	09 c1       	rjmp	.+530    	; 0x30c <__bad_interrupt>
      fa:	00 00       	nop
      fc:	07 c1       	rjmp	.+526    	; 0x30c <__bad_interrupt>
      fe:	00 00       	nop
     100:	05 c1       	rjmp	.+522    	; 0x30c <__bad_interrupt>
     102:	00 00       	nop
     104:	03 c1       	rjmp	.+518    	; 0x30c <__bad_interrupt>
     106:	00 00       	nop
     108:	01 c1       	rjmp	.+514    	; 0x30c <__bad_interrupt>
     10a:	00 00       	nop
     10c:	ff c0       	rjmp	.+510    	; 0x30c <__bad_interrupt>
     10e:	00 00       	nop
     110:	fd c0       	rjmp	.+506    	; 0x30c <__bad_interrupt>
     112:	00 00       	nop
     114:	fb c0       	rjmp	.+502    	; 0x30c <__bad_interrupt>
     116:	00 00       	nop
     118:	f9 c0       	rjmp	.+498    	; 0x30c <__bad_interrupt>
     11a:	00 00       	nop
     11c:	f7 c0       	rjmp	.+494    	; 0x30c <__bad_interrupt>
     11e:	00 00       	nop
     120:	f5 c0       	rjmp	.+490    	; 0x30c <__bad_interrupt>
     122:	00 00       	nop
     124:	f3 c0       	rjmp	.+486    	; 0x30c <__bad_interrupt>
     126:	00 00       	nop
     128:	f1 c0       	rjmp	.+482    	; 0x30c <__bad_interrupt>
     12a:	00 00       	nop
     12c:	ef c0       	rjmp	.+478    	; 0x30c <__bad_interrupt>
     12e:	00 00       	nop
     130:	ed c0       	rjmp	.+474    	; 0x30c <__bad_interrupt>
     132:	00 00       	nop
     134:	6d c4       	rjmp	.+2266   	; 0xa10 <__vector_77>
     136:	00 00       	nop
     138:	e9 c0       	rjmp	.+466    	; 0x30c <__bad_interrupt>
     13a:	00 00       	nop
     13c:	e7 c0       	rjmp	.+462    	; 0x30c <__bad_interrupt>
     13e:	00 00       	nop
     140:	e5 c0       	rjmp	.+458    	; 0x30c <__bad_interrupt>
     142:	00 00       	nop
     144:	e3 c0       	rjmp	.+454    	; 0x30c <__bad_interrupt>
     146:	00 00       	nop
     148:	e1 c0       	rjmp	.+450    	; 0x30c <__bad_interrupt>
     14a:	00 00       	nop
     14c:	df c0       	rjmp	.+446    	; 0x30c <__bad_interrupt>
     14e:	00 00       	nop
     150:	dd c0       	rjmp	.+442    	; 0x30c <__bad_interrupt>
     152:	00 00       	nop
     154:	db c0       	rjmp	.+438    	; 0x30c <__bad_interrupt>
     156:	00 00       	nop
     158:	d9 c0       	rjmp	.+434    	; 0x30c <__bad_interrupt>
     15a:	00 00       	nop
     15c:	d7 c0       	rjmp	.+430    	; 0x30c <__bad_interrupt>
     15e:	00 00       	nop
     160:	2d c3       	rjmp	.+1626   	; 0x7bc <__vector_88>
     162:	00 00       	nop
     164:	d3 c0       	rjmp	.+422    	; 0x30c <__bad_interrupt>
     166:	00 00       	nop
     168:	e9 c2       	rjmp	.+1490   	; 0x73c <__vector_90>
     16a:	00 00       	nop
     16c:	cf c0       	rjmp	.+414    	; 0x30c <__bad_interrupt>
     16e:	00 00       	nop
     170:	cd c0       	rjmp	.+410    	; 0x30c <__bad_interrupt>
     172:	00 00       	nop
     174:	cb c0       	rjmp	.+406    	; 0x30c <__bad_interrupt>
     176:	00 00       	nop
     178:	c9 c0       	rjmp	.+402    	; 0x30c <__bad_interrupt>
     17a:	00 00       	nop
     17c:	c7 c0       	rjmp	.+398    	; 0x30c <__bad_interrupt>
     17e:	00 00       	nop
     180:	c5 c0       	rjmp	.+394    	; 0x30c <__bad_interrupt>
     182:	00 00       	nop
     184:	c3 c0       	rjmp	.+390    	; 0x30c <__bad_interrupt>
     186:	00 00       	nop
     188:	c1 c0       	rjmp	.+386    	; 0x30c <__bad_interrupt>
     18a:	00 00       	nop
     18c:	bf c0       	rjmp	.+382    	; 0x30c <__bad_interrupt>
     18e:	00 00       	nop
     190:	bd c0       	rjmp	.+378    	; 0x30c <__bad_interrupt>
     192:	00 00       	nop
     194:	bb c0       	rjmp	.+374    	; 0x30c <__bad_interrupt>
     196:	00 00       	nop
     198:	b9 c0       	rjmp	.+370    	; 0x30c <__bad_interrupt>
     19a:	00 00       	nop
     19c:	b7 c0       	rjmp	.+366    	; 0x30c <__bad_interrupt>
     19e:	00 00       	nop
     1a0:	b5 c0       	rjmp	.+362    	; 0x30c <__bad_interrupt>
     1a2:	00 00       	nop
     1a4:	b3 c0       	rjmp	.+358    	; 0x30c <__bad_interrupt>
     1a6:	00 00       	nop
     1a8:	b1 c0       	rjmp	.+354    	; 0x30c <__bad_interrupt>
     1aa:	00 00       	nop
     1ac:	af c0       	rjmp	.+350    	; 0x30c <__bad_interrupt>
     1ae:	00 00       	nop
     1b0:	88 c4       	rjmp	.+2320   	; 0xac2 <__vector_108>
     1b2:	00 00       	nop
     1b4:	ab c0       	rjmp	.+342    	; 0x30c <__bad_interrupt>
     1b6:	00 00       	nop
     1b8:	a9 c0       	rjmp	.+338    	; 0x30c <__bad_interrupt>
     1ba:	00 00       	nop
     1bc:	a7 c0       	rjmp	.+334    	; 0x30c <__bad_interrupt>
     1be:	00 00       	nop
     1c0:	a5 c0       	rjmp	.+330    	; 0x30c <__bad_interrupt>
     1c2:	00 00       	nop
     1c4:	a3 c0       	rjmp	.+326    	; 0x30c <__bad_interrupt>
     1c6:	00 00       	nop
     1c8:	a1 c0       	rjmp	.+322    	; 0x30c <__bad_interrupt>
     1ca:	00 00       	nop
     1cc:	9f c0       	rjmp	.+318    	; 0x30c <__bad_interrupt>
     1ce:	00 00       	nop
     1d0:	9d c0       	rjmp	.+314    	; 0x30c <__bad_interrupt>
     1d2:	00 00       	nop
     1d4:	9b c0       	rjmp	.+310    	; 0x30c <__bad_interrupt>
     1d6:	00 00       	nop
     1d8:	99 c0       	rjmp	.+306    	; 0x30c <__bad_interrupt>
     1da:	00 00       	nop
     1dc:	bd c1       	rjmp	.+890    	; 0x558 <__vector_119>
     1de:	00 00       	nop
     1e0:	95 c0       	rjmp	.+298    	; 0x30c <__bad_interrupt>
     1e2:	00 00       	nop
     1e4:	93 c0       	rjmp	.+294    	; 0x30c <__bad_interrupt>
     1e6:	00 00       	nop
     1e8:	91 c0       	rjmp	.+290    	; 0x30c <__bad_interrupt>
     1ea:	00 00       	nop
     1ec:	8f c0       	rjmp	.+286    	; 0x30c <__bad_interrupt>
     1ee:	00 00       	nop
     1f0:	8d c0       	rjmp	.+282    	; 0x30c <__bad_interrupt>
     1f2:	00 00       	nop
     1f4:	8b c0       	rjmp	.+278    	; 0x30c <__bad_interrupt>
     1f6:	00 00       	nop
     1f8:	89 c0       	rjmp	.+274    	; 0x30c <__bad_interrupt>
     1fa:	00 00       	nop
     1fc:	27 03       	mulsu	r18, r23
     1fe:	1c 03       	fmul	r17, r20
     200:	32 03       	mulsu	r19, r18
     202:	17 03       	mulsu	r17, r23
     204:	4b 03       	fmul	r20, r19
     206:	5b 03       	fmul	r21, r19
     208:	6e 03       	fmul	r22, r22
     20a:	70 03       	mulsu	r23, r16
     20c:	21 03       	mulsu	r18, r17
     20e:	a6 07       	cpc	r26, r22
     210:	d6 07       	cpc	r29, r22
     212:	f2 07       	cpc	r31, r18
     214:	0d 08       	sbc	r0, r13
     216:	34 08       	sbc	r3, r4
     218:	59 08       	sbc	r5, r9
     21a:	74 08       	sbc	r7, r4
     21c:	9a 08       	sbc	r9, r10
     21e:	ca 08       	sbc	r12, r10
     220:	07 2c       	mov	r0, r7
     222:	7a a5       	ldd	r23, Y+42	; 0x2a
     224:	ba 6c       	ori	r27, 0xCA	; 202
     226:	c5 90       	lpm	r12, Z+
     228:	da 3b       	cpi	r29, 0xBA	; 186
     22a:	93 65       	ori	r25, 0x53	; 83
     22c:	fc 8b       	std	Y+20, r31	; 0x14
     22e:	bc 53       	subi	r27, 0x3C	; 60
     230:	f8 10       	cpse	r15, r8
     232:	fd 3c       	cpi	r31, 0xCD	; 205
     234:	56 92       	lac	Z, r5
     236:	83 4d       	sbci	r24, 0xD3	; 211
     238:	bd 87       	std	Y+13, r27	; 0x0d
     23a:	9d 3a       	cpi	r25, 0xAD	; 173
     23c:	b6 3d       	cpi	r27, 0xD6	; 214
     23e:	cb c9       	rjmp	.-3178   	; 0xfffff5d6 <__eeprom_end+0xff7ef5d6>
     240:	bf 5b       	subi	r27, 0xBF	; 191
     242:	be 73       	andi	r27, 0x3E	; 62
     244:	da 0f       	add	r29, r26
     246:	c9 3f       	cpi	r28, 0xF9	; 249
     248:	07 63       	ori	r16, 0x37	; 55
     24a:	42 36       	cpi	r20, 0x62	; 98
     24c:	b7 9b       	sbis	0x16, 7	; 22
     24e:	d8 a7       	std	Y+40, r29	; 0x28
     250:	1a 39       	cpi	r17, 0x9A	; 154
     252:	68 56       	subi	r22, 0x68	; 104
     254:	18 ae       	std	Y+56, r1	; 0x38
     256:	ba ab       	std	Y+50, r27	; 0x32
     258:	55 8c       	ldd	r5, Z+29	; 0x1d
     25a:	1d 3c       	cpi	r17, 0xCD	; 205
     25c:	b7 cc       	rjmp	.-1682   	; 0xfffffbcc <__eeprom_end+0xff7efbcc>
     25e:	57 63       	ori	r21, 0x37	; 55
     260:	bd 6d       	ori	r27, 0xDD	; 221
     262:	ed fd       	.word	0xfded	; ????
     264:	75 3e       	cpi	r23, 0xE5	; 229
     266:	f6 17       	cp	r31, r22
     268:	72 31       	cpi	r23, 0x12	; 18
     26a:	bf 00       	.word	0x00bf	; ????
     26c:	00 00       	nop
     26e:	80 3f       	cpi	r24, 0xF0	; 240
     270:	08 00       	.word	0x0008	; ????
     272:	00 00       	nop
     274:	be 92       	st	-X, r11
     276:	24 49       	sbci	r18, 0x94	; 148
     278:	12 3e       	cpi	r17, 0xE2	; 226
     27a:	ab aa       	std	Y+51, r10	; 0x33
     27c:	aa 2a       	or	r10, r26
     27e:	be cd       	rjmp	.-1156   	; 0xfffffdfc <__eeprom_end+0xff7efdfc>
     280:	cc cc       	rjmp	.-1640   	; 0xfffffc1a <__eeprom_end+0xff7efc1a>
     282:	4c 3e       	cpi	r20, 0xEC	; 236
     284:	00 00       	nop
     286:	00 80       	ld	r0, Z
     288:	be ab       	std	Y+54, r27	; 0x36
     28a:	aa aa       	std	Y+50, r10	; 0x32
     28c:	aa 3e       	cpi	r26, 0xEA	; 234
     28e:	00 00       	nop
     290:	00 00       	nop
     292:	bf 00       	.word	0x00bf	; ????
     294:	00 00       	nop
     296:	80 3f       	cpi	r24, 0xF0	; 240
     298:	00 00       	nop
     29a:	00 00       	nop
     29c:	00 08       	sbc	r0, r0
     29e:	41 78       	andi	r20, 0x81	; 129
     2a0:	d3 bb       	out	0x13, r29	; 19
     2a2:	43 87       	std	Z+11, r20	; 0x0b
     2a4:	d1 13       	cpse	r29, r17
     2a6:	3d 19       	sub	r19, r13
     2a8:	0e 3c       	cpi	r16, 0xCE	; 206
     2aa:	c3 bd       	out	0x23, r28	; 35
     2ac:	42 82       	std	Z+2, r4	; 0x02
     2ae:	ad 2b       	or	r26, r29
     2b0:	3e 68       	ori	r19, 0x8E	; 142
     2b2:	ec 82       	std	Y+4, r14	; 0x04
     2b4:	76 be       	out	0x36, r7	; 54
     2b6:	d9 8f       	std	Y+25, r29	; 0x19
     2b8:	e1 a9       	ldd	r30, Z+49	; 0x31
     2ba:	3e 4c       	sbci	r19, 0xCE	; 206
     2bc:	80 ef       	ldi	r24, 0xF0	; 240
     2be:	ff be       	out	0x3f, r15	; 63
     2c0:	01 c4       	rjmp	.+2050   	; 0xac4 <__vector_108+0x2>
     2c2:	ff 7f       	andi	r31, 0xFF	; 255
     2c4:	3f 00       	.word	0x003f	; ????
     2c6:	00 00       	nop
	...

000002ca <__ctors_end>:
     2ca:	11 24       	eor	r1, r1
     2cc:	1f be       	out	0x3f, r1	; 63
     2ce:	cf ef       	ldi	r28, 0xFF	; 255
     2d0:	cd bf       	out	0x3d, r28	; 61
     2d2:	df e5       	ldi	r29, 0x5F	; 95
     2d4:	de bf       	out	0x3e, r29	; 62
     2d6:	00 e0       	ldi	r16, 0x00	; 0
     2d8:	0c bf       	out	0x3c, r16	; 60

000002da <__do_copy_data>:
     2da:	10 e2       	ldi	r17, 0x20	; 32
     2dc:	a0 e0       	ldi	r26, 0x00	; 0
     2de:	b0 e2       	ldi	r27, 0x20	; 32
     2e0:	ee ea       	ldi	r30, 0xAE	; 174
     2e2:	fb e5       	ldi	r31, 0x5B	; 91
     2e4:	00 e0       	ldi	r16, 0x00	; 0
     2e6:	0b bf       	out	0x3b, r16	; 59
     2e8:	02 c0       	rjmp	.+4      	; 0x2ee <__do_copy_data+0x14>
     2ea:	07 90       	elpm	r0, Z+
     2ec:	0d 92       	st	X+, r0
     2ee:	a0 3d       	cpi	r26, 0xD0	; 208
     2f0:	b1 07       	cpc	r27, r17
     2f2:	d9 f7       	brne	.-10     	; 0x2ea <__do_copy_data+0x10>

000002f4 <__do_clear_bss>:
     2f4:	28 e2       	ldi	r18, 0x28	; 40
     2f6:	a0 ed       	ldi	r26, 0xD0	; 208
     2f8:	b0 e2       	ldi	r27, 0x20	; 32
     2fa:	01 c0       	rjmp	.+2      	; 0x2fe <.do_clear_bss_start>

000002fc <.do_clear_bss_loop>:
     2fc:	1d 92       	st	X+, r1

000002fe <.do_clear_bss_start>:
     2fe:	ac 31       	cpi	r26, 0x1C	; 28
     300:	b2 07       	cpc	r27, r18
     302:	e1 f7       	brne	.-8      	; 0x2fc <.do_clear_bss_loop>
     304:	0e 94 b9 0c 	call	0x1972	; 0x1972 <main>
     308:	0c 94 d5 2d 	jmp	0x5baa	; 0x5baa <_exit>

0000030c <__bad_interrupt>:
     30c:	16 c1       	rjmp	.+556    	; 0x53a <__vector_default>

0000030e <ADC_Read>:
#include <stdbool.h>
#include <math.h>
#include "struct.h"
#include "ADC.h"

void ADC_Read(Analog_t * dane){
     30e:	0f 93       	push	r16
     310:	1f 93       	push	r17
     312:	cf 93       	push	r28
     314:	df 93       	push	r29
     316:	ec 01       	movw	r28, r24
	ADCA.CH0.CTRL |= ADC_CH_INPUTMODE_SINGLEENDED_gc;	//singleended
     318:	e0 e0       	ldi	r30, 0x00	; 0
     31a:	f2 e0       	ldi	r31, 0x02	; 2
     31c:	80 a1       	ldd	r24, Z+32	; 0x20
     31e:	81 60       	ori	r24, 0x01	; 1
     320:	80 a3       	std	Z+32, r24	; 0x20
	//sensor 1
	//ADCA_CH0_CTRL = ADC_CH_INPUTMODE_DIFFWGAIN_gc | ADC_CH_GAIN_1X_gc;
	ADCA_CH0_MUXCTRL = ADC_CH_MUXPOS_PIN13_gc | ADC_CH_MUXNEG_GND_MODE4_gc;
     322:	8f e6       	ldi	r24, 0x6F	; 111
     324:	80 93 21 02 	sts	0x0221, r24
	ADCA.CH0.CTRL |= ADC_CH_START_bm;				//rozpocznij pomiar CH0
     328:	80 a1       	ldd	r24, Z+32	; 0x20
     32a:	80 68       	ori	r24, 0x80	; 128
     32c:	80 a3       	std	Z+32, r24	; 0x20
	while(!(ADCA.INTFLAGS & ADC_CH0IF_bm));
     32e:	96 81       	ldd	r25, Z+6	; 0x06
     330:	90 ff       	sbrs	r25, 0
     332:	fd cf       	rjmp	.-6      	; 0x32e <ADC_Read+0x20>
	ADCA.CH0.INTFLAGS = ADC_CH0IF_bm;	
     334:	00 e0       	ldi	r16, 0x00	; 0
     336:	12 e0       	ldi	r17, 0x02	; 2
     338:	81 e0       	ldi	r24, 0x01	; 1
     33a:	f8 01       	movw	r30, r16
     33c:	83 a3       	std	Z+35, r24	; 0x23
	dane->LS1 = ADCA.CH0RES/16.0;
     33e:	60 89       	ldd	r22, Z+16	; 0x10
     340:	71 89       	ldd	r23, Z+17	; 0x11
     342:	80 e0       	ldi	r24, 0x00	; 0
     344:	90 e0       	ldi	r25, 0x00	; 0
     346:	0e 94 3e 2a 	call	0x547c	; 0x547c <__floatunsisf>
     34a:	20 e0       	ldi	r18, 0x00	; 0
     34c:	30 e0       	ldi	r19, 0x00	; 0
     34e:	40 e8       	ldi	r20, 0x80	; 128
     350:	5d e3       	ldi	r21, 0x3D	; 61
     352:	0e 94 34 2b 	call	0x5668	; 0x5668 <__mulsf3>
     356:	68 8b       	std	Y+16, r22	; 0x10
     358:	79 8b       	std	Y+17, r23	; 0x11
     35a:	8a 8b       	std	Y+18, r24	; 0x12
     35c:	9b 8b       	std	Y+19, r25	; 0x13
	
	//sensor 2
	//ADCA_CH0_CTRL = ADC_CH_INPUTMODE_DIFFWGAIN_gc | ADC_CH_GAIN_1X_gc;
	ADCA_CH0_MUXCTRL = ADC_CH_MUXPOS_PIN14_gc | ADC_CH_MUXNEG_GND_MODE4_gc;
     35e:	87 e7       	ldi	r24, 0x77	; 119
     360:	80 93 21 02 	sts	0x0221, r24
	ADCA.CH0.CTRL |= ADC_CH_START_bm;				//rozpocznij pomiar CH0
     364:	f8 01       	movw	r30, r16
     366:	80 a1       	ldd	r24, Z+32	; 0x20
     368:	80 68       	ori	r24, 0x80	; 128
     36a:	80 a3       	std	Z+32, r24	; 0x20
	while(!(ADCA.INTFLAGS & ADC_CH0IF_bm));
     36c:	96 81       	ldd	r25, Z+6	; 0x06
     36e:	90 ff       	sbrs	r25, 0
     370:	fd cf       	rjmp	.-6      	; 0x36c <ADC_Read+0x5e>
	ADCA.CH0.INTFLAGS = ADC_CH0IF_bm;
     372:	00 e0       	ldi	r16, 0x00	; 0
     374:	12 e0       	ldi	r17, 0x02	; 2
     376:	81 e0       	ldi	r24, 0x01	; 1
     378:	f8 01       	movw	r30, r16
     37a:	83 a3       	std	Z+35, r24	; 0x23
	dane->LS2 = ADCA.CH0RES/16.0;
     37c:	60 89       	ldd	r22, Z+16	; 0x10
     37e:	71 89       	ldd	r23, Z+17	; 0x11
     380:	80 e0       	ldi	r24, 0x00	; 0
     382:	90 e0       	ldi	r25, 0x00	; 0
     384:	0e 94 3e 2a 	call	0x547c	; 0x547c <__floatunsisf>
     388:	20 e0       	ldi	r18, 0x00	; 0
     38a:	30 e0       	ldi	r19, 0x00	; 0
     38c:	40 e8       	ldi	r20, 0x80	; 128
     38e:	5d e3       	ldi	r21, 0x3D	; 61
     390:	0e 94 34 2b 	call	0x5668	; 0x5668 <__mulsf3>
     394:	6c 8b       	std	Y+20, r22	; 0x14
     396:	7d 8b       	std	Y+21, r23	; 0x15
     398:	8e 8b       	std	Y+22, r24	; 0x16
     39a:	9f 8b       	std	Y+23, r25	; 0x17
	
	//sensor 3
	//ADCA_CH0_CTRL = ADC_CH_INPUTMODE_DIFFWGAIN_gc | ADC_CH_GAIN_1X_gc;
	ADCA_CH0_MUXCTRL = ADC_CH_MUXPOS_PIN15_gc | ADC_CH_MUXNEG_GND_MODE4_gc;
     39c:	8f e7       	ldi	r24, 0x7F	; 127
     39e:	80 93 21 02 	sts	0x0221, r24
	ADCA.CH0.CTRL |= ADC_CH_START_bm;				//rozpocznij pomiar CH0
     3a2:	f8 01       	movw	r30, r16
     3a4:	80 a1       	ldd	r24, Z+32	; 0x20
     3a6:	80 68       	ori	r24, 0x80	; 128
     3a8:	80 a3       	std	Z+32, r24	; 0x20
	while(!(ADCA.INTFLAGS & ADC_CH0IF_bm));
     3aa:	96 81       	ldd	r25, Z+6	; 0x06
     3ac:	90 ff       	sbrs	r25, 0
     3ae:	fd cf       	rjmp	.-6      	; 0x3aa <ADC_Read+0x9c>
	ADCA.CH0.INTFLAGS = ADC_CH0IF_bm;
     3b0:	00 e0       	ldi	r16, 0x00	; 0
     3b2:	12 e0       	ldi	r17, 0x02	; 2
     3b4:	81 e0       	ldi	r24, 0x01	; 1
     3b6:	f8 01       	movw	r30, r16
     3b8:	83 a3       	std	Z+35, r24	; 0x23
	dane->LS3 = ADCA.CH0RES/16.0;
     3ba:	60 89       	ldd	r22, Z+16	; 0x10
     3bc:	71 89       	ldd	r23, Z+17	; 0x11
     3be:	80 e0       	ldi	r24, 0x00	; 0
     3c0:	90 e0       	ldi	r25, 0x00	; 0
     3c2:	0e 94 3e 2a 	call	0x547c	; 0x547c <__floatunsisf>
     3c6:	20 e0       	ldi	r18, 0x00	; 0
     3c8:	30 e0       	ldi	r19, 0x00	; 0
     3ca:	40 e8       	ldi	r20, 0x80	; 128
     3cc:	5d e3       	ldi	r21, 0x3D	; 61
     3ce:	0e 94 34 2b 	call	0x5668	; 0x5668 <__mulsf3>
     3d2:	68 8f       	std	Y+24, r22	; 0x18
     3d4:	79 8f       	std	Y+25, r23	; 0x19
     3d6:	8a 8f       	std	Y+26, r24	; 0x1a
     3d8:	9b 8f       	std	Y+27, r25	; 0x1b
	
	//Vbat
	ADCA_CH0_MUXCTRL = ADC_CH_MUXPOS_PIN7_gc;	    // 
     3da:	88 e3       	ldi	r24, 0x38	; 56
     3dc:	80 93 21 02 	sts	0x0221, r24
	ADCA.CH0.CTRL |= ADC_CH_START_bm;				//rozpocznij pomiar CH0
     3e0:	f8 01       	movw	r30, r16
     3e2:	80 a1       	ldd	r24, Z+32	; 0x20
     3e4:	80 68       	ori	r24, 0x80	; 128
     3e6:	80 a3       	std	Z+32, r24	; 0x20
	while(!(ADCA.INTFLAGS & ADC_CH0IF_bm));
     3e8:	96 81       	ldd	r25, Z+6	; 0x06
     3ea:	90 ff       	sbrs	r25, 0
     3ec:	fd cf       	rjmp	.-6      	; 0x3e8 <ADC_Read+0xda>
	ADCA.CH0.INTFLAGS = ADC_CH0IF_bm;
     3ee:	00 e0       	ldi	r16, 0x00	; 0
     3f0:	12 e0       	ldi	r17, 0x02	; 2
     3f2:	81 e0       	ldi	r24, 0x01	; 1
     3f4:	f8 01       	movw	r30, r16
     3f6:	83 a3       	std	Z+35, r24	; 0x23
	dane->Vbat = (ADCA.CH0RES/4096.0-0.05)*10.3;
     3f8:	60 89       	ldd	r22, Z+16	; 0x10
     3fa:	71 89       	ldd	r23, Z+17	; 0x11
     3fc:	80 e0       	ldi	r24, 0x00	; 0
     3fe:	90 e0       	ldi	r25, 0x00	; 0
     400:	0e 94 3e 2a 	call	0x547c	; 0x547c <__floatunsisf>
     404:	20 e0       	ldi	r18, 0x00	; 0
     406:	30 e0       	ldi	r19, 0x00	; 0
     408:	40 e8       	ldi	r20, 0x80	; 128
     40a:	59 e3       	ldi	r21, 0x39	; 57
     40c:	0e 94 34 2b 	call	0x5668	; 0x5668 <__mulsf3>
     410:	2d ec       	ldi	r18, 0xCD	; 205
     412:	3c ec       	ldi	r19, 0xCC	; 204
     414:	4c e4       	ldi	r20, 0x4C	; 76
     416:	5d e3       	ldi	r21, 0x3D	; 61
     418:	0e 94 3c 29 	call	0x5278	; 0x5278 <__subsf3>
     41c:	2d ec       	ldi	r18, 0xCD	; 205
     41e:	3c ec       	ldi	r19, 0xCC	; 204
     420:	44 e2       	ldi	r20, 0x24	; 36
     422:	51 e4       	ldi	r21, 0x41	; 65
     424:	0e 94 34 2b 	call	0x5668	; 0x5668 <__mulsf3>
     428:	6c 83       	std	Y+4, r22	; 0x04
     42a:	7d 83       	std	Y+5, r23	; 0x05
     42c:	8e 83       	std	Y+6, r24	; 0x06
     42e:	9f 83       	std	Y+7, r25	; 0x07
	
	//Vex
	//ADCA_CH0_CTRL = ADC_CH_INPUTMODE_DIFFWGAIN_gc | ADC_CH_GAIN_1X_gc;
	ADCA_CH0_MUXCTRL = ADC_CH_MUXPOS_PIN1_gc | ADC_CH_MUXNEG_GND_MODE4_gc;
     430:	8f e0       	ldi	r24, 0x0F	; 15
     432:	80 93 21 02 	sts	0x0221, r24
	ADCA.CH0.CTRL |= ADC_CH_START_bm;				//rozpocznij pomiar CH0
     436:	f8 01       	movw	r30, r16
     438:	80 a1       	ldd	r24, Z+32	; 0x20
     43a:	80 68       	ori	r24, 0x80	; 128
     43c:	80 a3       	std	Z+32, r24	; 0x20
	while(!(ADCA.INTFLAGS & ADC_CH0IF_bm));
     43e:	96 81       	ldd	r25, Z+6	; 0x06
     440:	90 ff       	sbrs	r25, 0
     442:	fd cf       	rjmp	.-6      	; 0x43e <ADC_Read+0x130>
	ADCA.CH0.INTFLAGS = ADC_CH0IF_bm;
     444:	00 e0       	ldi	r16, 0x00	; 0
     446:	12 e0       	ldi	r17, 0x02	; 2
     448:	81 e0       	ldi	r24, 0x01	; 1
     44a:	f8 01       	movw	r30, r16
     44c:	83 a3       	std	Z+35, r24	; 0x23
	dane->Vsense2 = (ADCA.CH0RES/4096.0-0.05)*10.3;
     44e:	60 89       	ldd	r22, Z+16	; 0x10
     450:	71 89       	ldd	r23, Z+17	; 0x11
     452:	80 e0       	ldi	r24, 0x00	; 0
     454:	90 e0       	ldi	r25, 0x00	; 0
     456:	0e 94 3e 2a 	call	0x547c	; 0x547c <__floatunsisf>
     45a:	20 e0       	ldi	r18, 0x00	; 0
     45c:	30 e0       	ldi	r19, 0x00	; 0
     45e:	40 e8       	ldi	r20, 0x80	; 128
     460:	59 e3       	ldi	r21, 0x39	; 57
     462:	0e 94 34 2b 	call	0x5668	; 0x5668 <__mulsf3>
     466:	2d ec       	ldi	r18, 0xCD	; 205
     468:	3c ec       	ldi	r19, 0xCC	; 204
     46a:	4c e4       	ldi	r20, 0x4C	; 76
     46c:	5d e3       	ldi	r21, 0x3D	; 61
     46e:	0e 94 3c 29 	call	0x5278	; 0x5278 <__subsf3>
     472:	2d ec       	ldi	r18, 0xCD	; 205
     474:	3c ec       	ldi	r19, 0xCC	; 204
     476:	44 e2       	ldi	r20, 0x24	; 36
     478:	51 e4       	ldi	r21, 0x41	; 65
     47a:	0e 94 34 2b 	call	0x5668	; 0x5668 <__mulsf3>
     47e:	68 87       	std	Y+8, r22	; 0x08
     480:	79 87       	std	Y+9, r23	; 0x09
     482:	8a 87       	std	Y+10, r24	; 0x0a
     484:	9b 87       	std	Y+11, r25	; 0x0b
	
	//Vusb
	//ADCA_CH0_CTRL = ADC_CH_INPUTMODE_DIFFWGAIN_gc | ADC_CH_GAIN_1X_gc;
	ADCA_CH0_MUXCTRL = ADC_CH_MUXPOS_PIN8_gc | ADC_CH_MUXNEG_GND_MODE4_gc;
     486:	87 e4       	ldi	r24, 0x47	; 71
     488:	80 93 21 02 	sts	0x0221, r24
	ADCA.CH0.CTRL |= ADC_CH_START_bm;				//rozpocznij pomiar CH0
     48c:	f8 01       	movw	r30, r16
     48e:	80 a1       	ldd	r24, Z+32	; 0x20
     490:	80 68       	ori	r24, 0x80	; 128
     492:	80 a3       	std	Z+32, r24	; 0x20
	while(!(ADCA.INTFLAGS & ADC_CH0IF_bm));
     494:	96 81       	ldd	r25, Z+6	; 0x06
     496:	90 ff       	sbrs	r25, 0
     498:	fd cf       	rjmp	.-6      	; 0x494 <ADC_Read+0x186>
	ADCA.CH0.INTFLAGS = ADC_CH0IF_bm;
     49a:	00 e0       	ldi	r16, 0x00	; 0
     49c:	12 e0       	ldi	r17, 0x02	; 2
     49e:	81 e0       	ldi	r24, 0x01	; 1
     4a0:	f8 01       	movw	r30, r16
     4a2:	83 a3       	std	Z+35, r24	; 0x23
	dane->Vusb = (ADCA.CH0RES/4096.0-0.05)*10.3;
     4a4:	60 89       	ldd	r22, Z+16	; 0x10
     4a6:	71 89       	ldd	r23, Z+17	; 0x11
     4a8:	80 e0       	ldi	r24, 0x00	; 0
     4aa:	90 e0       	ldi	r25, 0x00	; 0
     4ac:	0e 94 3e 2a 	call	0x547c	; 0x547c <__floatunsisf>
     4b0:	20 e0       	ldi	r18, 0x00	; 0
     4b2:	30 e0       	ldi	r19, 0x00	; 0
     4b4:	40 e8       	ldi	r20, 0x80	; 128
     4b6:	59 e3       	ldi	r21, 0x39	; 57
     4b8:	0e 94 34 2b 	call	0x5668	; 0x5668 <__mulsf3>
     4bc:	2d ec       	ldi	r18, 0xCD	; 205
     4be:	3c ec       	ldi	r19, 0xCC	; 204
     4c0:	4c e4       	ldi	r20, 0x4C	; 76
     4c2:	5d e3       	ldi	r21, 0x3D	; 61
     4c4:	0e 94 3c 29 	call	0x5278	; 0x5278 <__subsf3>
     4c8:	2d ec       	ldi	r18, 0xCD	; 205
     4ca:	3c ec       	ldi	r19, 0xCC	; 204
     4cc:	44 e2       	ldi	r20, 0x24	; 36
     4ce:	51 e4       	ldi	r21, 0x41	; 65
     4d0:	0e 94 34 2b 	call	0x5668	; 0x5668 <__mulsf3>
     4d4:	6c 87       	std	Y+12, r22	; 0x0c
     4d6:	7d 87       	std	Y+13, r23	; 0x0d
     4d8:	8e 87       	std	Y+14, r24	; 0x0e
     4da:	9f 87       	std	Y+15, r25	; 0x0f
	
	//Vcc
	ADCA.CH0.CTRL = ADC_CH_INPUTMODE_INTERNAL_gc;	//internal
     4dc:	f8 01       	movw	r30, r16
     4de:	10 a2       	std	Z+32, r1	; 0x20
	ADCA.CH0.MUXCTRL = ADC_CH_MUXINT_SCALEDVCC_gc;
     4e0:	80 e1       	ldi	r24, 0x10	; 16
     4e2:	81 a3       	std	Z+33, r24	; 0x21
	ADCA.CH0.CTRL |= ADC_CH_START_bm;				//rozpocznij pomiar 1/10 VCC
     4e4:	80 a1       	ldd	r24, Z+32	; 0x20
     4e6:	80 68       	ori	r24, 0x80	; 128
     4e8:	80 a3       	std	Z+32, r24	; 0x20
	while(!(ADCA.INTFLAGS & ADC_CH0IF_bm));
     4ea:	96 81       	ldd	r25, Z+6	; 0x06
     4ec:	90 ff       	sbrs	r25, 0
     4ee:	fd cf       	rjmp	.-6      	; 0x4ea <ADC_Read+0x1dc>
	ADCA.CH0.INTFLAGS = ADC_CH0IF_bm;
     4f0:	e0 e0       	ldi	r30, 0x00	; 0
     4f2:	f2 e0       	ldi	r31, 0x02	; 2
     4f4:	81 e0       	ldi	r24, 0x01	; 1
     4f6:	83 a3       	std	Z+35, r24	; 0x23
	dane->VCC = ((ADCA.CH0RES/4096.0)-0.05)*10.35;
     4f8:	60 89       	ldd	r22, Z+16	; 0x10
     4fa:	71 89       	ldd	r23, Z+17	; 0x11
     4fc:	80 e0       	ldi	r24, 0x00	; 0
     4fe:	90 e0       	ldi	r25, 0x00	; 0
     500:	0e 94 3e 2a 	call	0x547c	; 0x547c <__floatunsisf>
     504:	20 e0       	ldi	r18, 0x00	; 0
     506:	30 e0       	ldi	r19, 0x00	; 0
     508:	40 e8       	ldi	r20, 0x80	; 128
     50a:	59 e3       	ldi	r21, 0x39	; 57
     50c:	0e 94 34 2b 	call	0x5668	; 0x5668 <__mulsf3>
     510:	2d ec       	ldi	r18, 0xCD	; 205
     512:	3c ec       	ldi	r19, 0xCC	; 204
     514:	4c e4       	ldi	r20, 0x4C	; 76
     516:	5d e3       	ldi	r21, 0x3D	; 61
     518:	0e 94 3c 29 	call	0x5278	; 0x5278 <__subsf3>
     51c:	2a e9       	ldi	r18, 0x9A	; 154
     51e:	39 e9       	ldi	r19, 0x99	; 153
     520:	45 e2       	ldi	r20, 0x25	; 37
     522:	51 e4       	ldi	r21, 0x41	; 65
     524:	0e 94 34 2b 	call	0x5668	; 0x5668 <__mulsf3>
     528:	6c 8f       	std	Y+28, r22	; 0x1c
     52a:	7d 8f       	std	Y+29, r23	; 0x1d
     52c:	8e 8f       	std	Y+30, r24	; 0x1e
     52e:	9f 8f       	std	Y+31, r25	; 0x1f
     530:	df 91       	pop	r29
     532:	cf 91       	pop	r28
     534:	1f 91       	pop	r17
     536:	0f 91       	pop	r16
     538:	08 95       	ret

0000053a <__vector_default>:
        XBEE_UART.DATA = buf0[i++];
        _delay_ms(2);
    }
    buzzer_d.trigger = false;														//odblokowanie buzzera
    SPIaddress = 0;
}
     53a:	1f 92       	push	r1
     53c:	0f 92       	push	r0
     53e:	0f b6       	in	r0, 0x3f	; 63
     540:	0f 92       	push	r0
     542:	11 24       	eor	r1, r1
     544:	8f 93       	push	r24
     546:	88 e0       	ldi	r24, 0x08	; 8
     548:	80 93 07 06 	sts	0x0607, r24
     54c:	8f 91       	pop	r24
     54e:	0f 90       	pop	r0
     550:	0f be       	out	0x3f, r0	; 63
     552:	0f 90       	pop	r0
     554:	1f 90       	pop	r1
     556:	18 95       	reti

00000558 <__vector_119>:
     558:	1f 92       	push	r1
     55a:	0f 92       	push	r0
     55c:	0f b6       	in	r0, 0x3f	; 63
     55e:	0f 92       	push	r0
     560:	11 24       	eor	r1, r1
     562:	0b b6       	in	r0, 0x3b	; 59
     564:	0f 92       	push	r0
     566:	2f 93       	push	r18
     568:	3f 93       	push	r19
     56a:	4f 93       	push	r20
     56c:	5f 93       	push	r21
     56e:	6f 93       	push	r22
     570:	7f 93       	push	r23
     572:	8f 93       	push	r24
     574:	9f 93       	push	r25
     576:	af 93       	push	r26
     578:	bf 93       	push	r27
     57a:	ef 93       	push	r30
     57c:	ff 93       	push	r31
     57e:	cf 93       	push	r28
     580:	df 93       	push	r29
     582:	1f 92       	push	r1
     584:	cd b7       	in	r28, 0x3d	; 61
     586:	de b7       	in	r29, 0x3e	; 62
     588:	00 00       	nop
     58a:	80 91 a0 0b 	lds	r24, 0x0BA0
     58e:	89 83       	std	Y+1, r24	; 0x01
     590:	89 81       	ldd	r24, Y+1	; 0x01
     592:	84 32       	cpi	r24, 0x24	; 36
     594:	61 f4       	brne	.+24     	; 0x5ae <__vector_119+0x56>
     596:	81 e0       	ldi	r24, 0x01	; 1
     598:	80 93 bb 21 	sts	0x21BB, r24
     59c:	87 e7       	ldi	r24, 0x77	; 119
     59e:	91 e2       	ldi	r25, 0x21	; 33
     5a0:	0e 94 fd 27 	call	0x4ffa	; 0x4ffa <GPSbuf_init>
     5a4:	10 92 b8 21 	sts	0x21B8, r1
     5a8:	10 92 b9 21 	sts	0x21B9, r1
     5ac:	b1 c0       	rjmp	.+354    	; 0x710 <__vector_119+0x1b8>
     5ae:	89 81       	ldd	r24, Y+1	; 0x01
     5b0:	8a 32       	cpi	r24, 0x2A	; 42
     5b2:	29 f4       	brne	.+10     	; 0x5be <__vector_119+0x66>
     5b4:	10 92 bb 21 	sts	0x21BB, r1
     5b8:	10 92 b8 21 	sts	0x21B8, r1
     5bc:	a9 c0       	rjmp	.+338    	; 0x710 <__vector_119+0x1b8>
     5be:	80 91 bb 21 	lds	r24, 0x21BB
     5c2:	88 23       	and	r24, r24
     5c4:	09 f4       	brne	.+2      	; 0x5c8 <__vector_119+0x70>
     5c6:	a4 c0       	rjmp	.+328    	; 0x710 <__vector_119+0x1b8>
     5c8:	89 81       	ldd	r24, Y+1	; 0x01
     5ca:	8c 32       	cpi	r24, 0x2C	; 44
     5cc:	71 f4       	brne	.+28     	; 0x5ea <__vector_119+0x92>
     5ce:	a8 eb       	ldi	r26, 0xB8	; 184
     5d0:	b1 e2       	ldi	r27, 0x21	; 33
     5d2:	ec 91       	ld	r30, X
     5d4:	f0 e0       	ldi	r31, 0x00	; 0
     5d6:	e9 58       	subi	r30, 0x89	; 137
     5d8:	fe 4d       	sbci	r31, 0xDE	; 222
     5da:	85 a7       	std	Z+45, r24	; 0x2d
     5dc:	1c 92       	st	X, r1
     5de:	e9 eb       	ldi	r30, 0xB9	; 185
     5e0:	f1 e2       	ldi	r31, 0x21	; 33
     5e2:	80 81       	ld	r24, Z
     5e4:	8f 5f       	subi	r24, 0xFF	; 255
     5e6:	80 83       	st	Z, r24
     5e8:	10 c0       	rjmp	.+32     	; 0x60a <__vector_119+0xb2>
     5ea:	a8 eb       	ldi	r26, 0xB8	; 184
     5ec:	b1 e2       	ldi	r27, 0x21	; 33
     5ee:	ec 91       	ld	r30, X
     5f0:	81 e0       	ldi	r24, 0x01	; 1
     5f2:	8e 0f       	add	r24, r30
     5f4:	8c 93       	st	X, r24
     5f6:	89 81       	ldd	r24, Y+1	; 0x01
     5f8:	f0 e0       	ldi	r31, 0x00	; 0
     5fa:	e9 58       	subi	r30, 0x89	; 137
     5fc:	fe 4d       	sbci	r31, 0xDE	; 222
     5fe:	85 a7       	std	Z+45, r24	; 0x2d
     600:	80 91 bc 21 	lds	r24, 0x21BC
     604:	88 23       	and	r24, r24
     606:	09 f4       	brne	.+2      	; 0x60a <__vector_119+0xb2>
     608:	83 c0       	rjmp	.+262    	; 0x710 <__vector_119+0x1b8>
     60a:	10 92 bc 21 	sts	0x21BC, r1
     60e:	e0 91 b9 21 	lds	r30, 0x21B9
     612:	8e 2f       	mov	r24, r30
     614:	90 e0       	ldi	r25, 0x00	; 0
     616:	fc 01       	movw	r30, r24
     618:	32 97       	sbiw	r30, 0x02	; 2
     61a:	e9 30       	cpi	r30, 0x09	; 9
     61c:	f1 05       	cpc	r31, r1
     61e:	08 f0       	brcs	.+2      	; 0x622 <__vector_119+0xca>
     620:	77 c0       	rjmp	.+238    	; 0x710 <__vector_119+0x1b8>
     622:	88 27       	eor	r24, r24
     624:	e2 50       	subi	r30, 0x02	; 2
     626:	ff 4f       	sbci	r31, 0xFF	; 255
     628:	8f 4f       	sbci	r24, 0xFF	; 255
     62a:	0c 94 aa 2d 	jmp	0x5b54	; 0x5b54 <__tablejump2__>
     62e:	80 91 a4 21 	lds	r24, 0x21A4
     632:	8c 32       	cpi	r24, 0x2C	; 44
     634:	39 f5       	brne	.+78     	; 0x684 <__vector_119+0x12c>
     636:	6c c0       	rjmp	.+216    	; 0x710 <__vector_119+0x1b8>
     638:	80 91 a4 21 	lds	r24, 0x21A4
     63c:	8c 32       	cpi	r24, 0x2C	; 44
     63e:	49 f4       	brne	.+18     	; 0x652 <__vector_119+0xfa>
     640:	67 c0       	rjmp	.+206    	; 0x710 <__vector_119+0x1b8>
     642:	80 91 a4 21 	lds	r24, 0x21A4
     646:	8c 32       	cpi	r24, 0x2C	; 44
     648:	09 f0       	breq	.+2      	; 0x64c <__vector_119+0xf4>
     64a:	4c c0       	rjmp	.+152    	; 0x6e4 <__vector_119+0x18c>
     64c:	58 c0       	rjmp	.+176    	; 0x6fe <__vector_119+0x1a6>
     64e:	00 00       	nop
     650:	5f c0       	rjmp	.+190    	; 0x710 <__vector_119+0x1b8>
     652:	ac e7       	ldi	r26, 0x7C	; 124
     654:	b1 e2       	ldi	r27, 0x21	; 33
     656:	e5 ea       	ldi	r30, 0xA5	; 165
     658:	f1 e2       	ldi	r31, 0x21	; 33
     65a:	8d 93       	st	X+, r24
     65c:	81 91       	ld	r24, Z+
     65e:	8c 32       	cpi	r24, 0x2C	; 44
     660:	e1 f7       	brne	.-8      	; 0x65a <__vector_119+0x102>
     662:	56 c0       	rjmp	.+172    	; 0x710 <__vector_119+0x1b8>
     664:	80 91 a4 21 	lds	r24, 0x21A4
     668:	8e 34       	cpi	r24, 0x4E	; 78
     66a:	19 f4       	brne	.+6      	; 0x672 <__vector_119+0x11a>
     66c:	80 93 7b 21 	sts	0x217B, r24
     670:	4f c0       	rjmp	.+158    	; 0x710 <__vector_119+0x1b8>
     672:	83 35       	cpi	r24, 0x53	; 83
     674:	19 f4       	brne	.+6      	; 0x67c <__vector_119+0x124>
     676:	80 93 7b 21 	sts	0x217B, r24
     67a:	4a c0       	rjmp	.+148    	; 0x710 <__vector_119+0x1b8>
     67c:	88 e5       	ldi	r24, 0x58	; 88
     67e:	80 93 7b 21 	sts	0x217B, r24
     682:	46 c0       	rjmp	.+140    	; 0x710 <__vector_119+0x1b8>
     684:	aa e8       	ldi	r26, 0x8A	; 138
     686:	b1 e2       	ldi	r27, 0x21	; 33
     688:	e5 ea       	ldi	r30, 0xA5	; 165
     68a:	f1 e2       	ldi	r31, 0x21	; 33
     68c:	8d 93       	st	X+, r24
     68e:	81 91       	ld	r24, Z+
     690:	8c 32       	cpi	r24, 0x2C	; 44
     692:	e1 f7       	brne	.-8      	; 0x68c <__vector_119+0x134>
     694:	3d c0       	rjmp	.+122    	; 0x710 <__vector_119+0x1b8>
     696:	80 91 a4 21 	lds	r24, 0x21A4
     69a:	85 34       	cpi	r24, 0x45	; 69
     69c:	19 f4       	brne	.+6      	; 0x6a4 <__vector_119+0x14c>
     69e:	80 93 89 21 	sts	0x2189, r24
     6a2:	36 c0       	rjmp	.+108    	; 0x710 <__vector_119+0x1b8>
     6a4:	87 35       	cpi	r24, 0x57	; 87
     6a6:	19 f4       	brne	.+6      	; 0x6ae <__vector_119+0x156>
     6a8:	80 93 89 21 	sts	0x2189, r24
     6ac:	31 c0       	rjmp	.+98     	; 0x710 <__vector_119+0x1b8>
     6ae:	88 e5       	ldi	r24, 0x58	; 88
     6b0:	80 93 89 21 	sts	0x2189, r24
     6b4:	2d c0       	rjmp	.+90     	; 0x710 <__vector_119+0x1b8>
     6b6:	80 91 a4 21 	lds	r24, 0x21A4
     6ba:	80 33       	cpi	r24, 0x30	; 48
     6bc:	19 f4       	brne	.+6      	; 0x6c4 <__vector_119+0x16c>
     6be:	10 92 a3 21 	sts	0x21A3, r1
     6c2:	26 c0       	rjmp	.+76     	; 0x710 <__vector_119+0x1b8>
     6c4:	81 33       	cpi	r24, 0x31	; 49
     6c6:	21 f4       	brne	.+8      	; 0x6d0 <__vector_119+0x178>
     6c8:	81 e0       	ldi	r24, 0x01	; 1
     6ca:	80 93 a3 21 	sts	0x21A3, r24
     6ce:	20 c0       	rjmp	.+64     	; 0x710 <__vector_119+0x1b8>
     6d0:	82 33       	cpi	r24, 0x32	; 50
     6d2:	f1 f4       	brne	.+60     	; 0x710 <__vector_119+0x1b8>
     6d4:	82 e0       	ldi	r24, 0x02	; 2
     6d6:	80 93 a3 21 	sts	0x21A3, r24
     6da:	1a c0       	rjmp	.+52     	; 0x710 <__vector_119+0x1b8>
     6dc:	00 00       	nop
     6de:	18 c0       	rjmp	.+48     	; 0x710 <__vector_119+0x1b8>
     6e0:	00 00       	nop
     6e2:	16 c0       	rjmp	.+44     	; 0x710 <__vector_119+0x1b8>
     6e4:	a7 e9       	ldi	r26, 0x97	; 151
     6e6:	b1 e2       	ldi	r27, 0x21	; 33
     6e8:	e5 ea       	ldi	r30, 0xA5	; 165
     6ea:	f1 e2       	ldi	r31, 0x21	; 33
     6ec:	2e ea       	ldi	r18, 0xAE	; 174
     6ee:	31 e2       	ldi	r19, 0x21	; 33
     6f0:	8d 93       	st	X+, r24
     6f2:	81 91       	ld	r24, Z+
     6f4:	8c 32       	cpi	r24, 0x2C	; 44
     6f6:	19 f0       	breq	.+6      	; 0x6fe <__vector_119+0x1a6>
     6f8:	e2 17       	cp	r30, r18
     6fa:	f3 07       	cpc	r31, r19
     6fc:	c9 f7       	brne	.-14     	; 0x6f0 <__vector_119+0x198>
     6fe:	88 e4       	ldi	r24, 0x48	; 72
     700:	e7 e7       	ldi	r30, 0x77	; 119
     702:	f1 e2       	ldi	r31, 0x21	; 33
     704:	af e2       	ldi	r26, 0x2F	; 47
     706:	b1 e2       	ldi	r27, 0x21	; 33
     708:	01 90       	ld	r0, Z+
     70a:	0d 92       	st	X+, r0
     70c:	8a 95       	dec	r24
     70e:	e1 f7       	brne	.-8      	; 0x708 <__vector_119+0x1b0>
     710:	0f 90       	pop	r0
     712:	df 91       	pop	r29
     714:	cf 91       	pop	r28
     716:	ff 91       	pop	r31
     718:	ef 91       	pop	r30
     71a:	bf 91       	pop	r27
     71c:	af 91       	pop	r26
     71e:	9f 91       	pop	r25
     720:	8f 91       	pop	r24
     722:	7f 91       	pop	r23
     724:	6f 91       	pop	r22
     726:	5f 91       	pop	r21
     728:	4f 91       	pop	r20
     72a:	3f 91       	pop	r19
     72c:	2f 91       	pop	r18
     72e:	0f 90       	pop	r0
     730:	0b be       	out	0x3b, r0	; 59
     732:	0f 90       	pop	r0
     734:	0f be       	out	0x3f, r0	; 63
     736:	0f 90       	pop	r0
     738:	1f 90       	pop	r1
     73a:	18 95       	reti

0000073c <__vector_90>:
     73c:	1f 92       	push	r1
     73e:	0f 92       	push	r0
     740:	0f b6       	in	r0, 0x3f	; 63
     742:	0f 92       	push	r0
     744:	11 24       	eor	r1, r1
     746:	0b b6       	in	r0, 0x3b	; 59
     748:	0f 92       	push	r0
     74a:	8f 93       	push	r24
     74c:	9f 93       	push	r25
     74e:	ef 93       	push	r30
     750:	ff 93       	push	r31
     752:	e0 91 9c 26 	lds	r30, 0x269C
     756:	f0 91 9d 26 	lds	r31, 0x269D
     75a:	ec 5b       	subi	r30, 0xBC	; 188
     75c:	fb 4d       	sbci	r31, 0xDB	; 219
     75e:	80 81       	ld	r24, Z
     760:	88 23       	and	r24, r24
     762:	f9 f0       	breq	.+62     	; 0x7a2 <__vector_90+0x66>
     764:	83 32       	cpi	r24, 0x23	; 35
     766:	e9 f0       	breq	.+58     	; 0x7a2 <__vector_90+0x66>
     768:	91 e0       	ldi	r25, 0x01	; 1
     76a:	90 93 9e 26 	sts	0x269E, r25
     76e:	85 32       	cpi	r24, 0x25	; 37
     770:	21 f4       	brne	.+8      	; 0x77a <__vector_90+0x3e>
     772:	8a e0       	ldi	r24, 0x0A	; 10
     774:	80 93 a0 09 	sts	0x09A0, r24
     778:	02 c0       	rjmp	.+4      	; 0x77e <__vector_90+0x42>
     77a:	80 93 a0 09 	sts	0x09A0, r24
     77e:	80 91 9c 26 	lds	r24, 0x269C
     782:	90 91 9d 26 	lds	r25, 0x269D
     786:	87 39       	cpi	r24, 0x97	; 151
     788:	91 05       	cpc	r25, r1
     78a:	30 f4       	brcc	.+12     	; 0x798 <__vector_90+0x5c>
     78c:	01 96       	adiw	r24, 0x01	; 1
     78e:	80 93 9c 26 	sts	0x269C, r24
     792:	90 93 9d 26 	sts	0x269D, r25
     796:	07 c0       	rjmp	.+14     	; 0x7a6 <__vector_90+0x6a>
     798:	fc 01       	movw	r30, r24
     79a:	ec 5b       	subi	r30, 0xBC	; 188
     79c:	fb 4d       	sbci	r31, 0xDB	; 219
     79e:	10 82       	st	Z, r1
     7a0:	02 c0       	rjmp	.+4      	; 0x7a6 <__vector_90+0x6a>
     7a2:	10 92 9e 26 	sts	0x269E, r1
     7a6:	ff 91       	pop	r31
     7a8:	ef 91       	pop	r30
     7aa:	9f 91       	pop	r25
     7ac:	8f 91       	pop	r24
     7ae:	0f 90       	pop	r0
     7b0:	0b be       	out	0x3b, r0	; 59
     7b2:	0f 90       	pop	r0
     7b4:	0f be       	out	0x3f, r0	; 63
     7b6:	0f 90       	pop	r0
     7b8:	1f 90       	pop	r1
     7ba:	18 95       	reti

000007bc <__vector_88>:
     7bc:	1f 92       	push	r1
     7be:	0f 92       	push	r0
     7c0:	0f b6       	in	r0, 0x3f	; 63
     7c2:	0f 92       	push	r0
     7c4:	11 24       	eor	r1, r1
     7c6:	0b b6       	in	r0, 0x3b	; 59
     7c8:	0f 92       	push	r0
     7ca:	2f 93       	push	r18
     7cc:	3f 93       	push	r19
     7ce:	4f 93       	push	r20
     7d0:	5f 93       	push	r21
     7d2:	6f 93       	push	r22
     7d4:	7f 93       	push	r23
     7d6:	8f 93       	push	r24
     7d8:	9f 93       	push	r25
     7da:	af 93       	push	r26
     7dc:	bf 93       	push	r27
     7de:	ef 93       	push	r30
     7e0:	ff 93       	push	r31
     7e2:	cf 93       	push	r28
     7e4:	df 93       	push	r29
     7e6:	1f 92       	push	r1
     7e8:	cd b7       	in	r28, 0x3d	; 61
     7ea:	de b7       	in	r29, 0x3e	; 62
     7ec:	80 e1       	ldi	r24, 0x10	; 16
     7ee:	80 93 05 06 	sts	0x0605, r24
     7f2:	80 91 a0 09 	lds	r24, 0x09A0
     7f6:	89 83       	std	Y+1, r24	; 0x01
     7f8:	89 81       	ldd	r24, Y+1	; 0x01
     7fa:	84 32       	cpi	r24, 0x24	; 36
     7fc:	21 f4       	brne	.+8      	; 0x806 <__vector_88+0x4a>
     7fe:	81 e0       	ldi	r24, 0x01	; 1
     800:	80 93 cb 26 	sts	0x26CB, r24
     804:	c1 c0       	rjmp	.+386    	; 0x988 <__vector_88+0x1cc>
     806:	89 81       	ldd	r24, Y+1	; 0x01
     808:	82 35       	cpi	r24, 0x52	; 82
     80a:	81 f4       	brne	.+32     	; 0x82c <__vector_88+0x70>
     80c:	80 91 cb 26 	lds	r24, 0x26CB
     810:	88 23       	and	r24, r24
     812:	09 f4       	brne	.+2      	; 0x816 <__vector_88+0x5a>
     814:	93 c0       	rjmp	.+294    	; 0x93c <__vector_88+0x180>
     816:	8f b7       	in	r24, 0x3f	; 63
     818:	f8 94       	cli
     81a:	10 92 cb 26 	sts	0x26CB, r1
     81e:	98 ed       	ldi	r25, 0xD8	; 216
     820:	94 bf       	out	0x34, r25	; 52
     822:	91 e0       	ldi	r25, 0x01	; 1
     824:	90 93 79 00 	sts	0x0079, r25
     828:	8f bf       	out	0x3f, r24	; 63
     82a:	ae c0       	rjmp	.+348    	; 0x988 <__vector_88+0x1cc>
     82c:	89 81       	ldd	r24, Y+1	; 0x01
     82e:	83 34       	cpi	r24, 0x43	; 67
     830:	81 f4       	brne	.+32     	; 0x852 <__vector_88+0x96>
     832:	80 91 cb 26 	lds	r24, 0x26CB
     836:	88 23       	and	r24, r24
     838:	09 f4       	brne	.+2      	; 0x83c <__vector_88+0x80>
     83a:	86 c0       	rjmp	.+268    	; 0x948 <__vector_88+0x18c>
     83c:	ec ed       	ldi	r30, 0xDC	; 220
     83e:	f0 e2       	ldi	r31, 0x20	; 32
     840:	10 a2       	std	Z+32, r1	; 0x20
     842:	11 a2       	std	Z+33, r1	; 0x21
     844:	81 e0       	ldi	r24, 0x01	; 1
     846:	82 a3       	std	Z+34, r24	; 0x22
     848:	e9 ec       	ldi	r30, 0xC9	; 201
     84a:	f6 e2       	ldi	r31, 0x26	; 38
     84c:	83 83       	std	Z+3, r24	; 0x03
     84e:	12 82       	std	Z+2, r1	; 0x02
     850:	9b c0       	rjmp	.+310    	; 0x988 <__vector_88+0x1cc>
     852:	89 81       	ldd	r24, Y+1	; 0x01
     854:	80 35       	cpi	r24, 0x50	; 80
     856:	01 f5       	brne	.+64     	; 0x898 <__vector_88+0xdc>
     858:	80 91 cb 26 	lds	r24, 0x26CB
     85c:	88 23       	and	r24, r24
     85e:	09 f4       	brne	.+2      	; 0x862 <__vector_88+0xa6>
     860:	79 c0       	rjmp	.+242    	; 0x954 <__vector_88+0x198>
     862:	0e 94 3b 0e 	call	0x1c76	; 0x1c76 <SPI_ChipErase>
     866:	10 92 d4 20 	sts	0x20D4, r1
     86a:	10 92 d5 20 	sts	0x20D5, r1
     86e:	10 92 d6 20 	sts	0x20D6, r1
     872:	10 92 d7 20 	sts	0x20D7, r1
     876:	10 92 cb 26 	sts	0x26CB, r1
     87a:	e8 ed       	ldi	r30, 0xD8	; 216
     87c:	f0 e2       	ldi	r31, 0x20	; 32
     87e:	81 e0       	ldi	r24, 0x01	; 1
     880:	81 83       	std	Z+1, r24	; 0x01
     882:	80 83       	st	Z, r24
     884:	2f ef       	ldi	r18, 0xFF	; 255
     886:	87 ea       	ldi	r24, 0xA7	; 167
     888:	91 e6       	ldi	r25, 0x61	; 97
     88a:	21 50       	subi	r18, 0x01	; 1
     88c:	80 40       	sbci	r24, 0x00	; 0
     88e:	90 40       	sbci	r25, 0x00	; 0
     890:	e1 f7       	brne	.-8      	; 0x88a <__vector_88+0xce>
     892:	00 c0       	rjmp	.+0      	; 0x894 <__vector_88+0xd8>
     894:	00 00       	nop
     896:	78 c0       	rjmp	.+240    	; 0x988 <__vector_88+0x1cc>
     898:	89 81       	ldd	r24, Y+1	; 0x01
     89a:	88 35       	cpi	r24, 0x58	; 88
     89c:	59 f4       	brne	.+22     	; 0x8b4 <__vector_88+0xf8>
     89e:	80 91 cb 26 	lds	r24, 0x26CB
     8a2:	88 23       	and	r24, r24
     8a4:	09 f4       	brne	.+2      	; 0x8a8 <__vector_88+0xec>
     8a6:	5c c0       	rjmp	.+184    	; 0x960 <__vector_88+0x1a4>
     8a8:	e9 ec       	ldi	r30, 0xC9	; 201
     8aa:	f6 e2       	ldi	r31, 0x26	; 38
     8ac:	81 e0       	ldi	r24, 0x01	; 1
     8ae:	85 83       	std	Z+5, r24	; 0x05
     8b0:	12 82       	std	Z+2, r1	; 0x02
     8b2:	6a c0       	rjmp	.+212    	; 0x988 <__vector_88+0x1cc>
     8b4:	89 81       	ldd	r24, Y+1	; 0x01
     8b6:	8b 34       	cpi	r24, 0x4B	; 75
     8b8:	51 f4       	brne	.+20     	; 0x8ce <__vector_88+0x112>
     8ba:	80 91 cb 26 	lds	r24, 0x26CB
     8be:	88 23       	and	r24, r24
     8c0:	09 f4       	brne	.+2      	; 0x8c4 <__vector_88+0x108>
     8c2:	53 c0       	rjmp	.+166    	; 0x96a <__vector_88+0x1ae>
     8c4:	e9 ec       	ldi	r30, 0xC9	; 201
     8c6:	f6 e2       	ldi	r31, 0x26	; 38
     8c8:	15 82       	std	Z+5, r1	; 0x05
     8ca:	12 82       	std	Z+2, r1	; 0x02
     8cc:	5d c0       	rjmp	.+186    	; 0x988 <__vector_88+0x1cc>
     8ce:	89 81       	ldd	r24, Y+1	; 0x01
     8d0:	83 35       	cpi	r24, 0x53	; 83
     8d2:	59 f4       	brne	.+22     	; 0x8ea <__vector_88+0x12e>
     8d4:	80 91 cb 26 	lds	r24, 0x26CB
     8d8:	88 23       	and	r24, r24
     8da:	09 f4       	brne	.+2      	; 0x8de <__vector_88+0x122>
     8dc:	4b c0       	rjmp	.+150    	; 0x974 <__vector_88+0x1b8>
     8de:	e9 ec       	ldi	r30, 0xC9	; 201
     8e0:	f6 e2       	ldi	r31, 0x26	; 38
     8e2:	81 e0       	ldi	r24, 0x01	; 1
     8e4:	84 83       	std	Z+4, r24	; 0x04
     8e6:	12 82       	std	Z+2, r1	; 0x02
     8e8:	4f c0       	rjmp	.+158    	; 0x988 <__vector_88+0x1cc>
     8ea:	89 81       	ldd	r24, Y+1	; 0x01
     8ec:	86 34       	cpi	r24, 0x46	; 70
     8ee:	51 f4       	brne	.+20     	; 0x904 <__vector_88+0x148>
     8f0:	80 91 cb 26 	lds	r24, 0x26CB
     8f4:	88 23       	and	r24, r24
     8f6:	09 f4       	brne	.+2      	; 0x8fa <__vector_88+0x13e>
     8f8:	42 c0       	rjmp	.+132    	; 0x97e <__vector_88+0x1c2>
     8fa:	e9 ec       	ldi	r30, 0xC9	; 201
     8fc:	f6 e2       	ldi	r31, 0x26	; 38
     8fe:	14 82       	std	Z+4, r1	; 0x04
     900:	12 82       	std	Z+2, r1	; 0x02
     902:	42 c0       	rjmp	.+132    	; 0x988 <__vector_88+0x1cc>
     904:	89 81       	ldd	r24, Y+1	; 0x01
     906:	81 34       	cpi	r24, 0x41	; 65
     908:	51 f4       	brne	.+20     	; 0x91e <__vector_88+0x162>
     90a:	80 91 cb 26 	lds	r24, 0x26CB
     90e:	88 23       	and	r24, r24
     910:	c9 f1       	breq	.+114    	; 0x984 <__vector_88+0x1c8>
     912:	e9 ec       	ldi	r30, 0xC9	; 201
     914:	f6 e2       	ldi	r31, 0x26	; 38
     916:	81 e0       	ldi	r24, 0x01	; 1
     918:	86 83       	std	Z+6, r24	; 0x06
     91a:	12 82       	std	Z+2, r1	; 0x02
     91c:	35 c0       	rjmp	.+106    	; 0x988 <__vector_88+0x1cc>
     91e:	89 81       	ldd	r24, Y+1	; 0x01
     920:	84 34       	cpi	r24, 0x44	; 68
     922:	49 f4       	brne	.+18     	; 0x936 <__vector_88+0x17a>
     924:	80 91 cb 26 	lds	r24, 0x26CB
     928:	88 23       	and	r24, r24
     92a:	29 f0       	breq	.+10     	; 0x936 <__vector_88+0x17a>
     92c:	e9 ec       	ldi	r30, 0xC9	; 201
     92e:	f6 e2       	ldi	r31, 0x26	; 38
     930:	16 82       	std	Z+6, r1	; 0x06
     932:	12 82       	std	Z+2, r1	; 0x02
     934:	29 c0       	rjmp	.+82     	; 0x988 <__vector_88+0x1cc>
     936:	10 92 cb 26 	sts	0x26CB, r1
     93a:	26 c0       	rjmp	.+76     	; 0x988 <__vector_88+0x1cc>
     93c:	89 81       	ldd	r24, Y+1	; 0x01
     93e:	89 81       	ldd	r24, Y+1	; 0x01
     940:	80 35       	cpi	r24, 0x50	; 80
     942:	09 f0       	breq	.+2      	; 0x946 <__vector_88+0x18a>
     944:	a9 cf       	rjmp	.-174    	; 0x898 <__vector_88+0xdc>
     946:	06 c0       	rjmp	.+12     	; 0x954 <__vector_88+0x198>
     948:	89 81       	ldd	r24, Y+1	; 0x01
     94a:	89 81       	ldd	r24, Y+1	; 0x01
     94c:	88 35       	cpi	r24, 0x58	; 88
     94e:	09 f0       	breq	.+2      	; 0x952 <__vector_88+0x196>
     950:	b1 cf       	rjmp	.-158    	; 0x8b4 <__vector_88+0xf8>
     952:	06 c0       	rjmp	.+12     	; 0x960 <__vector_88+0x1a4>
     954:	89 81       	ldd	r24, Y+1	; 0x01
     956:	89 81       	ldd	r24, Y+1	; 0x01
     958:	8b 34       	cpi	r24, 0x4B	; 75
     95a:	09 f0       	breq	.+2      	; 0x95e <__vector_88+0x1a2>
     95c:	b8 cf       	rjmp	.-144    	; 0x8ce <__vector_88+0x112>
     95e:	05 c0       	rjmp	.+10     	; 0x96a <__vector_88+0x1ae>
     960:	89 81       	ldd	r24, Y+1	; 0x01
     962:	89 81       	ldd	r24, Y+1	; 0x01
     964:	83 35       	cpi	r24, 0x53	; 83
     966:	09 f6       	brne	.-126    	; 0x8ea <__vector_88+0x12e>
     968:	05 c0       	rjmp	.+10     	; 0x974 <__vector_88+0x1b8>
     96a:	89 81       	ldd	r24, Y+1	; 0x01
     96c:	89 81       	ldd	r24, Y+1	; 0x01
     96e:	86 34       	cpi	r24, 0x46	; 70
     970:	49 f6       	brne	.-110    	; 0x904 <__vector_88+0x148>
     972:	05 c0       	rjmp	.+10     	; 0x97e <__vector_88+0x1c2>
     974:	89 81       	ldd	r24, Y+1	; 0x01
     976:	89 81       	ldd	r24, Y+1	; 0x01
     978:	81 34       	cpi	r24, 0x41	; 65
     97a:	89 f6       	brne	.-94     	; 0x91e <__vector_88+0x162>
     97c:	03 c0       	rjmp	.+6      	; 0x984 <__vector_88+0x1c8>
     97e:	89 81       	ldd	r24, Y+1	; 0x01
     980:	89 81       	ldd	r24, Y+1	; 0x01
     982:	d9 cf       	rjmp	.-78     	; 0x936 <__vector_88+0x17a>
     984:	89 81       	ldd	r24, Y+1	; 0x01
     986:	d7 cf       	rjmp	.-82     	; 0x936 <__vector_88+0x17a>
     988:	0f 90       	pop	r0
     98a:	df 91       	pop	r29
     98c:	cf 91       	pop	r28
     98e:	ff 91       	pop	r31
     990:	ef 91       	pop	r30
     992:	bf 91       	pop	r27
     994:	af 91       	pop	r26
     996:	9f 91       	pop	r25
     998:	8f 91       	pop	r24
     99a:	7f 91       	pop	r23
     99c:	6f 91       	pop	r22
     99e:	5f 91       	pop	r21
     9a0:	4f 91       	pop	r20
     9a2:	3f 91       	pop	r19
     9a4:	2f 91       	pop	r18
     9a6:	0f 90       	pop	r0
     9a8:	0b be       	out	0x3b, r0	; 59
     9aa:	0f 90       	pop	r0
     9ac:	0f be       	out	0x3f, r0	; 63
     9ae:	0f 90       	pop	r0
     9b0:	1f 90       	pop	r1
     9b2:	18 95       	reti

000009b4 <__vector_14>:
     9b4:	1f 92       	push	r1
     9b6:	0f 92       	push	r0
     9b8:	0f b6       	in	r0, 0x3f	; 63
     9ba:	0f 92       	push	r0
     9bc:	11 24       	eor	r1, r1
     9be:	0b b6       	in	r0, 0x3b	; 59
     9c0:	0f 92       	push	r0
     9c2:	8f 93       	push	r24
     9c4:	9f 93       	push	r25
     9c6:	af 93       	push	r26
     9c8:	bf 93       	push	r27
     9ca:	ef 93       	push	r30
     9cc:	ff 93       	push	r31
     9ce:	e2 e9       	ldi	r30, 0x92	; 146
     9d0:	f7 e2       	ldi	r31, 0x27	; 39
     9d2:	a2 85       	ldd	r26, Z+10	; 0x0a
     9d4:	b3 85       	ldd	r27, Z+11	; 0x0b
     9d6:	81 e0       	ldi	r24, 0x01	; 1
     9d8:	8c 93       	st	X, r24
     9da:	06 88       	ldd	r0, Z+22	; 0x16
     9dc:	f7 89       	ldd	r31, Z+23	; 0x17
     9de:	e0 2d       	mov	r30, r0
     9e0:	80 81       	ld	r24, Z
     9e2:	91 81       	ldd	r25, Z+1	; 0x01
     9e4:	a2 81       	ldd	r26, Z+2	; 0x02
     9e6:	b3 81       	ldd	r27, Z+3	; 0x03
     9e8:	01 96       	adiw	r24, 0x01	; 1
     9ea:	a1 1d       	adc	r26, r1
     9ec:	b1 1d       	adc	r27, r1
     9ee:	80 83       	st	Z, r24
     9f0:	91 83       	std	Z+1, r25	; 0x01
     9f2:	a2 83       	std	Z+2, r26	; 0x02
     9f4:	b3 83       	std	Z+3, r27	; 0x03
     9f6:	ff 91       	pop	r31
     9f8:	ef 91       	pop	r30
     9fa:	bf 91       	pop	r27
     9fc:	af 91       	pop	r26
     9fe:	9f 91       	pop	r25
     a00:	8f 91       	pop	r24
     a02:	0f 90       	pop	r0
     a04:	0b be       	out	0x3b, r0	; 59
     a06:	0f 90       	pop	r0
     a08:	0f be       	out	0x3f, r0	; 63
     a0a:	0f 90       	pop	r0
     a0c:	1f 90       	pop	r1
     a0e:	18 95       	reti

00000a10 <__vector_77>:
     a10:	1f 92       	push	r1
     a12:	0f 92       	push	r0
     a14:	0f b6       	in	r0, 0x3f	; 63
     a16:	0f 92       	push	r0
     a18:	11 24       	eor	r1, r1
     a1a:	0b b6       	in	r0, 0x3b	; 59
     a1c:	0f 92       	push	r0
     a1e:	8f 93       	push	r24
     a20:	9f 93       	push	r25
     a22:	ef 93       	push	r30
     a24:	ff 93       	push	r31
     a26:	80 91 d8 20 	lds	r24, 0x20D8
     a2a:	88 23       	and	r24, r24
     a2c:	49 f1       	breq	.+82     	; 0xa80 <__vector_77+0x70>
     a2e:	80 91 d9 20 	lds	r24, 0x20D9
     a32:	81 30       	cpi	r24, 0x01	; 1
     a34:	79 f0       	breq	.+30     	; 0xa54 <__vector_77+0x44>
     a36:	28 f0       	brcs	.+10     	; 0xa42 <__vector_77+0x32>
     a38:	82 30       	cpi	r24, 0x02	; 2
     a3a:	d1 f0       	breq	.+52     	; 0xa70 <__vector_77+0x60>
     a3c:	83 30       	cpi	r24, 0x03	; 3
     a3e:	e1 f0       	breq	.+56     	; 0xa78 <__vector_77+0x68>
     a40:	24 c0       	rjmp	.+72     	; 0xa8a <__vector_77+0x7a>
     a42:	e8 ed       	ldi	r30, 0xD8	; 216
     a44:	f0 e2       	ldi	r31, 0x20	; 32
     a46:	10 82       	st	Z, r1
     a48:	13 82       	std	Z+3, r1	; 0x03
     a4a:	12 82       	std	Z+2, r1	; 0x02
     a4c:	80 e4       	ldi	r24, 0x40	; 64
     a4e:	80 93 a6 06 	sts	0x06A6, r24
     a52:	1b c0       	rjmp	.+54     	; 0xa8a <__vector_77+0x7a>
     a54:	80 91 db 20 	lds	r24, 0x20DB
     a58:	87 30       	cpi	r24, 0x07	; 7
     a5a:	18 f0       	brcs	.+6      	; 0xa62 <__vector_77+0x52>
     a5c:	10 92 d9 20 	sts	0x20D9, r1
     a60:	14 c0       	rjmp	.+40     	; 0xa8a <__vector_77+0x7a>
     a62:	90 e4       	ldi	r25, 0x40	; 64
     a64:	90 93 a7 06 	sts	0x06A7, r25
     a68:	8f 5f       	subi	r24, 0xFF	; 255
     a6a:	80 93 db 20 	sts	0x20DB, r24
     a6e:	0d c0       	rjmp	.+26     	; 0xa8a <__vector_77+0x7a>
     a70:	80 e4       	ldi	r24, 0x40	; 64
     a72:	80 93 a7 06 	sts	0x06A7, r24
     a76:	09 c0       	rjmp	.+18     	; 0xa8a <__vector_77+0x7a>
     a78:	80 e4       	ldi	r24, 0x40	; 64
     a7a:	80 93 a5 06 	sts	0x06A5, r24
     a7e:	05 c0       	rjmp	.+10     	; 0xa8a <__vector_77+0x7a>
     a80:	10 92 d9 20 	sts	0x20D9, r1
     a84:	80 e4       	ldi	r24, 0x40	; 64
     a86:	80 93 a6 06 	sts	0x06A6, r24
     a8a:	ff 91       	pop	r31
     a8c:	ef 91       	pop	r30
     a8e:	9f 91       	pop	r25
     a90:	8f 91       	pop	r24
     a92:	0f 90       	pop	r0
     a94:	0b be       	out	0x3b, r0	; 59
     a96:	0f 90       	pop	r0
     a98:	0f be       	out	0x3f, r0	; 63
     a9a:	0f 90       	pop	r0
     a9c:	1f 90       	pop	r1
     a9e:	18 95       	reti

00000aa0 <__vector_47>:
     aa0:	1f 92       	push	r1
     aa2:	0f 92       	push	r0
     aa4:	0f b6       	in	r0, 0x3f	; 63
     aa6:	0f 92       	push	r0
     aa8:	11 24       	eor	r1, r1
     aaa:	8f 93       	push	r24
     aac:	80 e1       	ldi	r24, 0x10	; 16
     aae:	80 93 06 06 	sts	0x0606, r24
     ab2:	10 92 cb 26 	sts	0x26CB, r1
     ab6:	8f 91       	pop	r24
     ab8:	0f 90       	pop	r0
     aba:	0f be       	out	0x3f, r0	; 63
     abc:	0f 90       	pop	r0
     abe:	1f 90       	pop	r1
     ac0:	18 95       	reti

00000ac2 <__vector_108>:
     ac2:	1f 92       	push	r1
     ac4:	0f 92       	push	r0
     ac6:	0f b6       	in	r0, 0x3f	; 63
     ac8:	0f 92       	push	r0
     aca:	11 24       	eor	r1, r1
     acc:	0b b6       	in	r0, 0x3b	; 59
     ace:	0f 92       	push	r0
     ad0:	2f 93       	push	r18
     ad2:	3f 93       	push	r19
     ad4:	4f 93       	push	r20
     ad6:	5f 93       	push	r21
     ad8:	6f 93       	push	r22
     ada:	7f 93       	push	r23
     adc:	8f 93       	push	r24
     ade:	9f 93       	push	r25
     ae0:	af 93       	push	r26
     ae2:	bf 93       	push	r27
     ae4:	ef 93       	push	r30
     ae6:	ff 93       	push	r31
     ae8:	80 e2       	ldi	r24, 0x20	; 32
     aea:	80 93 07 06 	sts	0x0607, r24
     aee:	10 92 9f 26 	sts	0x269F, r1
     af2:	80 91 cd 26 	lds	r24, 0x26CD
     af6:	88 23       	and	r24, r24
     af8:	41 f1       	breq	.+80     	; 0xb4a <__vector_108+0x88>
     afa:	80 91 88 27 	lds	r24, 0x2788
     afe:	90 91 89 27 	lds	r25, 0x2789
     b02:	a0 91 8a 27 	lds	r26, 0x278A
     b06:	b0 91 8b 27 	lds	r27, 0x278B
     b0a:	8f 39       	cpi	r24, 0x9F	; 159
     b0c:	26 e8       	ldi	r18, 0x86	; 134
     b0e:	92 07       	cpc	r25, r18
     b10:	21 e0       	ldi	r18, 0x01	; 1
     b12:	a2 07       	cpc	r26, r18
     b14:	b1 05       	cpc	r27, r1
     b16:	60 f4       	brcc	.+24     	; 0xb30 <__vector_108+0x6e>
     b18:	01 96       	adiw	r24, 0x01	; 1
     b1a:	a1 1d       	adc	r26, r1
     b1c:	b1 1d       	adc	r27, r1
     b1e:	80 93 88 27 	sts	0x2788, r24
     b22:	90 93 89 27 	sts	0x2789, r25
     b26:	a0 93 8a 27 	sts	0x278A, r26
     b2a:	b0 93 8b 27 	sts	0x278B, r27
     b2e:	08 c0       	rjmp	.+16     	; 0xb40 <__vector_108+0x7e>
     b30:	10 92 88 27 	sts	0x2788, r1
     b34:	10 92 89 27 	sts	0x2789, r1
     b38:	10 92 8a 27 	sts	0x278A, r1
     b3c:	10 92 8b 27 	sts	0x278B, r1
     b40:	10 92 17 24 	sts	0x2417, r1
     b44:	10 92 18 24 	sts	0x2418, r1
     b48:	f9 dd       	rcall	.-1038   	; 0x73c <__vector_90>
     b4a:	ff 91       	pop	r31
     b4c:	ef 91       	pop	r30
     b4e:	bf 91       	pop	r27
     b50:	af 91       	pop	r26
     b52:	9f 91       	pop	r25
     b54:	8f 91       	pop	r24
     b56:	7f 91       	pop	r23
     b58:	6f 91       	pop	r22
     b5a:	5f 91       	pop	r21
     b5c:	4f 91       	pop	r20
     b5e:	3f 91       	pop	r19
     b60:	2f 91       	pop	r18
     b62:	0f 90       	pop	r0
     b64:	0b be       	out	0x3b, r0	; 59
     b66:	0f 90       	pop	r0
     b68:	0f be       	out	0x3f, r0	; 63
     b6a:	0f 90       	pop	r0
     b6c:	1f 90       	pop	r1
     b6e:	18 95       	reti

00000b70 <SensorCal>:

//----------------------Kalibracja wsystkich czujnikw-----------------
void SensorCal(void) {
     b70:	cf 92       	push	r12
     b72:	df 92       	push	r13
     b74:	ef 92       	push	r14
     b76:	ff 92       	push	r15
     b78:	cf 93       	push	r28
     b7a:	df 93       	push	r29
    if(Calibration_d.counter < 1) {
     b7c:	80 91 fc 20 	lds	r24, 0x20FC
     b80:	90 91 fd 20 	lds	r25, 0x20FD
     b84:	89 2b       	or	r24, r25
     b86:	29 f5       	brne	.+74     	; 0xbd2 <SensorCal+0x62>
        Calibration_d.BMP_pressure = 0;
     b88:	ec ed       	ldi	r30, 0xDC	; 220
     b8a:	f0 e2       	ldi	r31, 0x20	; 32
     b8c:	10 82       	st	Z, r1
     b8e:	11 82       	std	Z+1, r1	; 0x01
     b90:	12 82       	std	Z+2, r1	; 0x02
     b92:	13 82       	std	Z+3, r1	; 0x03
        Calibration_d.LPS_pressure = 0;
     b94:	14 82       	std	Z+4, r1	; 0x04
     b96:	15 82       	std	Z+5, r1	; 0x05
     b98:	16 82       	std	Z+6, r1	; 0x06
     b9a:	17 82       	std	Z+7, r1	; 0x07
        Calibration_d.MPU_gyro_x = 0;
     b9c:	10 86       	std	Z+8, r1	; 0x08
     b9e:	11 86       	std	Z+9, r1	; 0x09
     ba0:	12 86       	std	Z+10, r1	; 0x0a
     ba2:	13 86       	std	Z+11, r1	; 0x0b
        Calibration_d.MPU_gyro_y = 0;
     ba4:	14 86       	std	Z+12, r1	; 0x0c
     ba6:	15 86       	std	Z+13, r1	; 0x0d
     ba8:	16 86       	std	Z+14, r1	; 0x0e
     baa:	17 86       	std	Z+15, r1	; 0x0f
        Calibration_d.MPU_gyro_z = 0;
     bac:	10 8a       	std	Z+16, r1	; 0x10
     bae:	11 8a       	std	Z+17, r1	; 0x11
     bb0:	12 8a       	std	Z+18, r1	; 0x12
     bb2:	13 8a       	std	Z+19, r1	; 0x13
        Calibration_d.LSM_gyro_x = 0;
     bb4:	14 8a       	std	Z+20, r1	; 0x14
     bb6:	15 8a       	std	Z+21, r1	; 0x15
     bb8:	16 8a       	std	Z+22, r1	; 0x16
     bba:	17 8a       	std	Z+23, r1	; 0x17
        Calibration_d.LSM_gyro_y = 0;
     bbc:	10 8e       	std	Z+24, r1	; 0x18
     bbe:	11 8e       	std	Z+25, r1	; 0x19
     bc0:	12 8e       	std	Z+26, r1	; 0x1a
     bc2:	13 8e       	std	Z+27, r1	; 0x1b
        Calibration_d.LSM_gyro_z = 0;
     bc4:	14 8e       	std	Z+28, r1	; 0x1c
     bc6:	15 8e       	std	Z+29, r1	; 0x1d
     bc8:	16 8e       	std	Z+30, r1	; 0x1e
     bca:	17 8e       	std	Z+31, r1	; 0x1f
        LED_PORT.OUTSET = LED5;
     bcc:	80 e4       	ldi	r24, 0x40	; 64
     bce:	80 93 05 06 	sts	0x0605, r24
    }
    if(Calibration_d.counter < calibrationCNT) {
     bd2:	e0 90 fc 20 	lds	r14, 0x20FC
     bd6:	f0 90 fd 20 	lds	r15, 0x20FD
     bda:	82 e3       	ldi	r24, 0x32	; 50
     bdc:	e8 16       	cp	r14, r24
     bde:	f1 04       	cpc	r15, r1
     be0:	08 f0       	brcs	.+2      	; 0xbe4 <SensorCal+0x74>
     be2:	8a c0       	rjmp	.+276    	; 0xcf8 <SensorCal+0x188>
        Calibration_d.LPS_pressure += LPS25H_d.pressure;
     be4:	cc ed       	ldi	r28, 0xDC	; 220
     be6:	d0 e2       	ldi	r29, 0x20	; 32
     be8:	20 91 15 21 	lds	r18, 0x2115
     bec:	30 91 16 21 	lds	r19, 0x2116
     bf0:	40 91 17 21 	lds	r20, 0x2117
     bf4:	50 91 18 21 	lds	r21, 0x2118
     bf8:	6c 81       	ldd	r22, Y+4	; 0x04
     bfa:	7d 81       	ldd	r23, Y+5	; 0x05
     bfc:	8e 81       	ldd	r24, Y+6	; 0x06
     bfe:	9f 81       	ldd	r25, Y+7	; 0x07
     c00:	0e 94 3d 29 	call	0x527a	; 0x527a <__addsf3>
     c04:	6c 83       	std	Y+4, r22	; 0x04
     c06:	7d 83       	std	Y+5, r23	; 0x05
     c08:	8e 83       	std	Y+6, r24	; 0x06
     c0a:	9f 83       	std	Y+7, r25	; 0x07
        Calibration_d.MPU_gyro_x += MPU9150_d.raw_gyro_x;
     c0c:	ec e2       	ldi	r30, 0x2C	; 44
     c0e:	f7 e2       	ldi	r31, 0x27	; 39
     c10:	86 81       	ldd	r24, Z+6	; 0x06
     c12:	97 81       	ldd	r25, Z+7	; 0x07
     c14:	09 2e       	mov	r0, r25
     c16:	00 0c       	add	r0, r0
     c18:	aa 0b       	sbc	r26, r26
     c1a:	bb 0b       	sbc	r27, r27
     c1c:	48 85       	ldd	r20, Y+8	; 0x08
     c1e:	59 85       	ldd	r21, Y+9	; 0x09
     c20:	6a 85       	ldd	r22, Y+10	; 0x0a
     c22:	7b 85       	ldd	r23, Y+11	; 0x0b
     c24:	84 0f       	add	r24, r20
     c26:	95 1f       	adc	r25, r21
     c28:	a6 1f       	adc	r26, r22
     c2a:	b7 1f       	adc	r27, r23
     c2c:	88 87       	std	Y+8, r24	; 0x08
     c2e:	99 87       	std	Y+9, r25	; 0x09
     c30:	aa 87       	std	Y+10, r26	; 0x0a
     c32:	bb 87       	std	Y+11, r27	; 0x0b
        Calibration_d.MPU_gyro_y += MPU9150_d.raw_gyro_y;
     c34:	80 85       	ldd	r24, Z+8	; 0x08
     c36:	91 85       	ldd	r25, Z+9	; 0x09
     c38:	09 2e       	mov	r0, r25
     c3a:	00 0c       	add	r0, r0
     c3c:	aa 0b       	sbc	r26, r26
     c3e:	bb 0b       	sbc	r27, r27
     c40:	4c 85       	ldd	r20, Y+12	; 0x0c
     c42:	5d 85       	ldd	r21, Y+13	; 0x0d
     c44:	6e 85       	ldd	r22, Y+14	; 0x0e
     c46:	7f 85       	ldd	r23, Y+15	; 0x0f
     c48:	84 0f       	add	r24, r20
     c4a:	95 1f       	adc	r25, r21
     c4c:	a6 1f       	adc	r26, r22
     c4e:	b7 1f       	adc	r27, r23
     c50:	8c 87       	std	Y+12, r24	; 0x0c
     c52:	9d 87       	std	Y+13, r25	; 0x0d
     c54:	ae 87       	std	Y+14, r26	; 0x0e
     c56:	bf 87       	std	Y+15, r27	; 0x0f
        Calibration_d.MPU_gyro_z += MPU9150_d.raw_gyro_z;
     c58:	82 85       	ldd	r24, Z+10	; 0x0a
     c5a:	93 85       	ldd	r25, Z+11	; 0x0b
     c5c:	09 2e       	mov	r0, r25
     c5e:	00 0c       	add	r0, r0
     c60:	aa 0b       	sbc	r26, r26
     c62:	bb 0b       	sbc	r27, r27
     c64:	48 89       	ldd	r20, Y+16	; 0x10
     c66:	59 89       	ldd	r21, Y+17	; 0x11
     c68:	6a 89       	ldd	r22, Y+18	; 0x12
     c6a:	7b 89       	ldd	r23, Y+19	; 0x13
     c6c:	84 0f       	add	r24, r20
     c6e:	95 1f       	adc	r25, r21
     c70:	a6 1f       	adc	r26, r22
     c72:	b7 1f       	adc	r27, r23
     c74:	88 8b       	std	Y+16, r24	; 0x10
     c76:	99 8b       	std	Y+17, r25	; 0x11
     c78:	aa 8b       	std	Y+18, r26	; 0x12
     c7a:	bb 8b       	std	Y+19, r27	; 0x13
        Calibration_d.LSM_gyro_x += LSM9DS0_d.raw_gyro_x;
     c7c:	e2 ed       	ldi	r30, 0xD2	; 210
     c7e:	f6 e2       	ldi	r31, 0x26	; 38
     c80:	86 81       	ldd	r24, Z+6	; 0x06
     c82:	97 81       	ldd	r25, Z+7	; 0x07
     c84:	09 2e       	mov	r0, r25
     c86:	00 0c       	add	r0, r0
     c88:	aa 0b       	sbc	r26, r26
     c8a:	bb 0b       	sbc	r27, r27
     c8c:	4c 89       	ldd	r20, Y+20	; 0x14
     c8e:	5d 89       	ldd	r21, Y+21	; 0x15
     c90:	6e 89       	ldd	r22, Y+22	; 0x16
     c92:	7f 89       	ldd	r23, Y+23	; 0x17
     c94:	84 0f       	add	r24, r20
     c96:	95 1f       	adc	r25, r21
     c98:	a6 1f       	adc	r26, r22
     c9a:	b7 1f       	adc	r27, r23
     c9c:	8c 8b       	std	Y+20, r24	; 0x14
     c9e:	9d 8b       	std	Y+21, r25	; 0x15
     ca0:	ae 8b       	std	Y+22, r26	; 0x16
     ca2:	bf 8b       	std	Y+23, r27	; 0x17
        Calibration_d.LSM_gyro_y += LSM9DS0_d.raw_gyro_y;
     ca4:	80 85       	ldd	r24, Z+8	; 0x08
     ca6:	91 85       	ldd	r25, Z+9	; 0x09
     ca8:	09 2e       	mov	r0, r25
     caa:	00 0c       	add	r0, r0
     cac:	aa 0b       	sbc	r26, r26
     cae:	bb 0b       	sbc	r27, r27
     cb0:	48 8d       	ldd	r20, Y+24	; 0x18
     cb2:	59 8d       	ldd	r21, Y+25	; 0x19
     cb4:	6a 8d       	ldd	r22, Y+26	; 0x1a
     cb6:	7b 8d       	ldd	r23, Y+27	; 0x1b
     cb8:	84 0f       	add	r24, r20
     cba:	95 1f       	adc	r25, r21
     cbc:	a6 1f       	adc	r26, r22
     cbe:	b7 1f       	adc	r27, r23
     cc0:	88 8f       	std	Y+24, r24	; 0x18
     cc2:	99 8f       	std	Y+25, r25	; 0x19
     cc4:	aa 8f       	std	Y+26, r26	; 0x1a
     cc6:	bb 8f       	std	Y+27, r27	; 0x1b
        Calibration_d.LSM_gyro_z += LSM9DS0_d.raw_gyro_z;
     cc8:	82 85       	ldd	r24, Z+10	; 0x0a
     cca:	93 85       	ldd	r25, Z+11	; 0x0b
     ccc:	09 2e       	mov	r0, r25
     cce:	00 0c       	add	r0, r0
     cd0:	aa 0b       	sbc	r26, r26
     cd2:	bb 0b       	sbc	r27, r27
     cd4:	4c 8d       	ldd	r20, Y+28	; 0x1c
     cd6:	5d 8d       	ldd	r21, Y+29	; 0x1d
     cd8:	6e 8d       	ldd	r22, Y+30	; 0x1e
     cda:	7f 8d       	ldd	r23, Y+31	; 0x1f
     cdc:	84 0f       	add	r24, r20
     cde:	95 1f       	adc	r25, r21
     ce0:	a6 1f       	adc	r26, r22
     ce2:	b7 1f       	adc	r27, r23
     ce4:	8c 8f       	std	Y+28, r24	; 0x1c
     ce6:	9d 8f       	std	Y+29, r25	; 0x1d
     ce8:	ae 8f       	std	Y+30, r26	; 0x1e
     cea:	bf 8f       	std	Y+31, r27	; 0x1f
        Calibration_d.counter++;
     cec:	8f ef       	ldi	r24, 0xFF	; 255
     cee:	e8 1a       	sub	r14, r24
     cf0:	f8 0a       	sbc	r15, r24
     cf2:	e8 a2       	std	Y+32, r14	; 0x20
     cf4:	f9 a2       	std	Y+33, r15	; 0x21
     cf6:	6b c0       	rjmp	.+214    	; 0xdce <SensorCal+0x25e>
    } else {
        LPS25H_d.start_pressure = Calibration_d.LPS_pressure / calibrationCNT;
     cf8:	cc ed       	ldi	r28, 0xDC	; 220
     cfa:	d0 e2       	ldi	r29, 0x20	; 32
     cfc:	20 e0       	ldi	r18, 0x00	; 0
     cfe:	30 e0       	ldi	r19, 0x00	; 0
     d00:	48 e4       	ldi	r20, 0x48	; 72
     d02:	52 e4       	ldi	r21, 0x42	; 66
     d04:	6c 81       	ldd	r22, Y+4	; 0x04
     d06:	7d 81       	ldd	r23, Y+5	; 0x05
     d08:	8e 81       	ldd	r24, Y+6	; 0x06
     d0a:	9f 81       	ldd	r25, Y+7	; 0x07
     d0c:	0e 94 a5 29 	call	0x534a	; 0x534a <__divsf3>
     d10:	60 93 1f 21 	sts	0x211F, r22
     d14:	70 93 20 21 	sts	0x2120, r23
     d18:	80 93 21 21 	sts	0x2121, r24
     d1c:	90 93 22 21 	sts	0x2122, r25
        MPU9150_d.offset_gyro_x = Calibration_d.MPU_gyro_x / calibrationCNT;
     d20:	68 85       	ldd	r22, Y+8	; 0x08
     d22:	79 85       	ldd	r23, Y+9	; 0x09
     d24:	8a 85       	ldd	r24, Y+10	; 0x0a
     d26:	9b 85       	ldd	r25, Y+11	; 0x0b
     d28:	0f 2e       	mov	r0, r31
     d2a:	f2 e3       	ldi	r31, 0x32	; 50
     d2c:	cf 2e       	mov	r12, r31
     d2e:	d1 2c       	mov	r13, r1
     d30:	e1 2c       	mov	r14, r1
     d32:	f1 2c       	mov	r15, r1
     d34:	f0 2d       	mov	r31, r0
     d36:	a7 01       	movw	r20, r14
     d38:	96 01       	movw	r18, r12
     d3a:	0e 94 8e 2d 	call	0x5b1c	; 0x5b1c <__divmodsi4>
     d3e:	20 93 74 27 	sts	0x2774, r18
     d42:	30 93 75 27 	sts	0x2775, r19
        MPU9150_d.offset_gyro_y = Calibration_d.MPU_gyro_y / calibrationCNT;
     d46:	6c 85       	ldd	r22, Y+12	; 0x0c
     d48:	7d 85       	ldd	r23, Y+13	; 0x0d
     d4a:	8e 85       	ldd	r24, Y+14	; 0x0e
     d4c:	9f 85       	ldd	r25, Y+15	; 0x0f
     d4e:	a7 01       	movw	r20, r14
     d50:	96 01       	movw	r18, r12
     d52:	0e 94 8e 2d 	call	0x5b1c	; 0x5b1c <__divmodsi4>
     d56:	20 93 76 27 	sts	0x2776, r18
     d5a:	30 93 77 27 	sts	0x2777, r19
        MPU9150_d.offset_gyro_z = Calibration_d.MPU_gyro_z / calibrationCNT;
     d5e:	68 89       	ldd	r22, Y+16	; 0x10
     d60:	79 89       	ldd	r23, Y+17	; 0x11
     d62:	8a 89       	ldd	r24, Y+18	; 0x12
     d64:	9b 89       	ldd	r25, Y+19	; 0x13
     d66:	a7 01       	movw	r20, r14
     d68:	96 01       	movw	r18, r12
     d6a:	0e 94 8e 2d 	call	0x5b1c	; 0x5b1c <__divmodsi4>
     d6e:	20 93 78 27 	sts	0x2778, r18
     d72:	30 93 79 27 	sts	0x2779, r19
        LSM9DS0_d.offset_gyro_x = Calibration_d.LSM_gyro_x / calibrationCNT;
     d76:	6c 89       	ldd	r22, Y+20	; 0x14
     d78:	7d 89       	ldd	r23, Y+21	; 0x15
     d7a:	8e 89       	ldd	r24, Y+22	; 0x16
     d7c:	9f 89       	ldd	r25, Y+23	; 0x17
     d7e:	a7 01       	movw	r20, r14
     d80:	96 01       	movw	r18, r12
     d82:	0e 94 8e 2d 	call	0x5b1c	; 0x5b1c <__divmodsi4>
     d86:	20 93 1c 27 	sts	0x271C, r18
     d8a:	30 93 1d 27 	sts	0x271D, r19
        LSM9DS0_d.offset_gyro_y = Calibration_d.LSM_gyro_y / calibrationCNT;
     d8e:	68 8d       	ldd	r22, Y+24	; 0x18
     d90:	79 8d       	ldd	r23, Y+25	; 0x19
     d92:	8a 8d       	ldd	r24, Y+26	; 0x1a
     d94:	9b 8d       	ldd	r25, Y+27	; 0x1b
     d96:	a7 01       	movw	r20, r14
     d98:	96 01       	movw	r18, r12
     d9a:	0e 94 8e 2d 	call	0x5b1c	; 0x5b1c <__divmodsi4>
     d9e:	20 93 1e 27 	sts	0x271E, r18
     da2:	30 93 1f 27 	sts	0x271F, r19
        LSM9DS0_d.offset_gyro_z = Calibration_d.LSM_gyro_z / calibrationCNT;
     da6:	6c 8d       	ldd	r22, Y+28	; 0x1c
     da8:	7d 8d       	ldd	r23, Y+29	; 0x1d
     daa:	8e 8d       	ldd	r24, Y+30	; 0x1e
     dac:	9f 8d       	ldd	r25, Y+31	; 0x1f
     dae:	a7 01       	movw	r20, r14
     db0:	96 01       	movw	r18, r12
     db2:	0e 94 8e 2d 	call	0x5b1c	; 0x5b1c <__divmodsi4>
     db6:	20 93 20 27 	sts	0x2720, r18
     dba:	30 93 21 27 	sts	0x2721, r19
        Calibration_d.counter = 0;
     dbe:	18 a2       	std	Y+32, r1	; 0x20
     dc0:	19 a2       	std	Y+33, r1	; 0x21
        Calibration_d.trigger = false;
     dc2:	1a a2       	std	Y+34, r1	; 0x22
        stan_d.callibration = false;
     dc4:	10 92 cc 26 	sts	0x26CC, r1
        LED_PORT.OUTCLR = LED5;
     dc8:	80 e4       	ldi	r24, 0x40	; 64
     dca:	80 93 06 06 	sts	0x0606, r24
    }
}
     dce:	df 91       	pop	r29
     dd0:	cf 91       	pop	r28
     dd2:	ff 90       	pop	r15
     dd4:	ef 90       	pop	r14
     dd6:	df 90       	pop	r13
     dd8:	cf 90       	pop	r12
     dda:	08 95       	ret

00000ddc <structInit>:

void structInit(void) {
    frame_d.iUART = 0;
     ddc:	10 92 9c 26 	sts	0x269C, r1
     de0:	10 92 9d 26 	sts	0x269D, r1
    stan_d.new_data = false;
     de4:	a9 ec       	ldi	r26, 0xC9	; 201
     de6:	b6 e2       	ldi	r27, 0x26	; 38
     de8:	1c 92       	st	X, r1
    stan_d.new_frame = false;
     dea:	11 96       	adiw	r26, 0x01	; 1
     dec:	1c 92       	st	X, r1
     dee:	11 97       	sbiw	r26, 0x01	; 1
	
	//----------------------Initialize allData_d--------------------
	allData_d.Analog = &ADC_d;
     df0:	e2 e9       	ldi	r30, 0x92	; 146
     df2:	f7 e2       	ldi	r31, 0x27	; 39
     df4:	8c ef       	ldi	r24, 0xFC	; 252
     df6:	97 e2       	ldi	r25, 0x27	; 39
     df8:	80 87       	std	Z+8, r24	; 0x08
     dfa:	91 87       	std	Z+9, r25	; 0x09
	allData_d.MPU9150 = &MPU9150_d;
     dfc:	8c e2       	ldi	r24, 0x2C	; 44
     dfe:	97 e2       	ldi	r25, 0x27	; 39
     e00:	80 83       	st	Z, r24
     e02:	91 83       	std	Z+1, r25	; 0x01
	allData_d.LSM9DS0 = &LSM9DS0_d;
     e04:	82 ed       	ldi	r24, 0xD2	; 210
     e06:	96 e2       	ldi	r25, 0x26	; 38
     e08:	82 83       	std	Z+2, r24	; 0x02
     e0a:	93 83       	std	Z+3, r25	; 0x03
	allData_d.LPS25H = &LPS25H_d;
     e0c:	81 e1       	ldi	r24, 0x11	; 17
     e0e:	91 e2       	ldi	r25, 0x21	; 33
     e10:	84 83       	std	Z+4, r24	; 0x04
     e12:	95 83       	std	Z+5, r25	; 0x05
	allData_d.GPS = &GPS_d;
     e14:	8f e2       	ldi	r24, 0x2F	; 47
     e16:	91 e2       	ldi	r25, 0x21	; 33
     e18:	86 83       	std	Z+6, r24	; 0x06
     e1a:	97 83       	std	Z+7, r25	; 0x07
	allData_d.stan = &stan_d;
     e1c:	a2 87       	std	Z+10, r26	; 0x0a
     e1e:	b3 87       	std	Z+11, r27	; 0x0b
	allData_d.LIS331HH = &LIS331HH_d;
     e20:	8f ef       	ldi	r24, 0xFF	; 255
     e22:	90 e2       	ldi	r25, 0x20	; 32
     e24:	84 87       	std	Z+12, r24	; 0x0c
     e26:	95 87       	std	Z+13, r25	; 0x0d
	allData_d.SensorsData = &SensorData_d;
     e28:	8a ea       	ldi	r24, 0xAA	; 170
     e2a:	97 e2       	ldi	r25, 0x27	; 39
     e2c:	86 87       	std	Z+14, r24	; 0x0e
     e2e:	97 87       	std	Z+15, r25	; 0x0f
	allData_d.frame = &frame_d;
     e30:	84 e4       	ldi	r24, 0x44	; 68
     e32:	94 e2       	ldi	r25, 0x24	; 36
     e34:	80 8b       	std	Z+16, r24	; 0x10
     e36:	91 8b       	std	Z+17, r25	; 0x11
	allData_d.frame_b = &frame_b;
     e38:	8f eb       	ldi	r24, 0xBF	; 191
     e3a:	91 e2       	ldi	r25, 0x21	; 33
     e3c:	82 8b       	std	Z+18, r24	; 0x12
     e3e:	93 8b       	std	Z+19, r25	; 0x13
	allData_d.boardOrient = &boardOrient_d;
     e40:	80 e9       	ldi	r24, 0x90	; 144
     e42:	97 e2       	ldi	r25, 0x27	; 39
     e44:	84 8b       	std	Z+20, r24	; 0x14
     e46:	95 8b       	std	Z+21, r25	; 0x15
	allData_d.RTC = &RTC_d;
     e48:	84 e8       	ldi	r24, 0x84	; 132
     e4a:	97 e2       	ldi	r25, 0x27	; 39
     e4c:	86 8b       	std	Z+22, r24	; 0x16
     e4e:	97 8b       	std	Z+23, r25	; 0x17
     e50:	08 95       	ret

00000e52 <BT_Start>:
}

void BT_Start(frame_t * frame) {
     e52:	fc 01       	movw	r30, r24
    int i = 0;
    frame->frameASCII[i++] = '\r';	//\r\n+INQ=1\r\n
     e54:	9d e0       	ldi	r25, 0x0D	; 13
     e56:	90 83       	st	Z, r25
    frame->frameASCII[i++] = '\n';
     e58:	8a e0       	ldi	r24, 0x0A	; 10
     e5a:	81 83       	std	Z+1, r24	; 0x01
    frame->frameASCII[i++] = '+';
     e5c:	2b e2       	ldi	r18, 0x2B	; 43
     e5e:	22 83       	std	Z+2, r18	; 0x02
    frame->frameASCII[i++] = 'I';
     e60:	29 e4       	ldi	r18, 0x49	; 73
     e62:	23 83       	std	Z+3, r18	; 0x03
    frame->frameASCII[i++] = 'N';
     e64:	2e e4       	ldi	r18, 0x4E	; 78
     e66:	24 83       	std	Z+4, r18	; 0x04
    frame->frameASCII[i++] = 'Q';
     e68:	21 e5       	ldi	r18, 0x51	; 81
     e6a:	25 83       	std	Z+5, r18	; 0x05
    frame->frameASCII[i++] = '=';
     e6c:	2d e3       	ldi	r18, 0x3D	; 61
     e6e:	26 83       	std	Z+6, r18	; 0x06
    frame->frameASCII[i++] = '1';
     e70:	21 e3       	ldi	r18, 0x31	; 49
     e72:	27 83       	std	Z+7, r18	; 0x07
    frame->frameASCII[i++] = '\r';
     e74:	90 87       	std	Z+8, r25	; 0x08
    frame->frameASCII[i++] = '\n';
     e76:	81 87       	std	Z+9, r24	; 0x09
    frame->iUART = 0;
     e78:	e8 5a       	subi	r30, 0xA8	; 168
     e7a:	fd 4f       	sbci	r31, 0xFD	; 253
     e7c:	10 82       	st	Z, r1
     e7e:	11 82       	std	Z+1, r1	; 0x01
     e80:	08 95       	ret

00000e82 <SensorUpdate>:
}

void SensorUpdate(allData_t * allData) {
     e82:	cf 92       	push	r12
     e84:	df 92       	push	r13
     e86:	ef 92       	push	r14
     e88:	ff 92       	push	r15
     e8a:	cf 93       	push	r28
     e8c:	df 93       	push	r29
     e8e:	ec 01       	movw	r28, r24
    //-----------------MPU9150--------------
    MPU9150_RawUpdate(allData->MPU9150);
     e90:	88 81       	ld	r24, Y
     e92:	99 81       	ldd	r25, Y+1	; 0x01
     e94:	0e 94 07 15 	call	0x2a0e	; 0x2a0e <MPU9150_RawUpdate>
    MPU9150_Conv(allData);
     e98:	ce 01       	movw	r24, r28
     e9a:	0e 94 59 15 	call	0x2ab2	; 0x2ab2 <MPU9150_Conv>
    //-----------------LIS331HH-------------
    LIS331HH_Update(allData->LIS331HH);
     e9e:	8c 85       	ldd	r24, Y+12	; 0x0c
     ea0:	9d 85       	ldd	r25, Y+13	; 0x0d
     ea2:	0e 94 87 10 	call	0x210e	; 0x210e <LIS331HH_Update>
    LIS331HH_Calc(allData);
     ea6:	ce 01       	movw	r24, r28
     ea8:	0e 94 cb 10 	call	0x2196	; 0x2196 <LIS331HH_Calc>
    //-----------------LPS25H---------------
    LPS25H_update(allData->LPS25H);
     eac:	8c 81       	ldd	r24, Y+4	; 0x04
     eae:	9d 81       	ldd	r25, Y+5	; 0x05
     eb0:	0e 94 5d 11 	call	0x22ba	; 0x22ba <LPS25H_update>
    LPS25H_calc(allData->LPS25H);
     eb4:	8c 81       	ldd	r24, Y+4	; 0x04
     eb6:	9d 81       	ldd	r25, Y+5	; 0x05
     eb8:	0e 94 8e 11 	call	0x231c	; 0x231c <LPS25H_calc>
    altitudeCalcLPS(allData->LPS25H);
     ebc:	8c 81       	ldd	r24, Y+4	; 0x04
     ebe:	9d 81       	ldd	r25, Y+5	; 0x05
     ec0:	0e 94 bc 11 	call	0x2378	; 0x2378 <altitudeCalcLPS>
    //-----------------LSM9DS0--------------
    LSM9DS0_Update(allData->LSM9DS0);
     ec4:	8a 81       	ldd	r24, Y+2	; 0x02
     ec6:	9b 81       	ldd	r25, Y+3	; 0x03
     ec8:	0e 94 f2 12 	call	0x25e4	; 0x25e4 <LSM9DS0_Update>
    //-----------------Read ADC-------------
    ADC_Read(allData->Analog);
     ecc:	88 85       	ldd	r24, Y+8	; 0x08
     ece:	99 85       	ldd	r25, Y+9	; 0x09
     ed0:	1e da       	rcall	.-3012   	; 0x30e <ADC_Read>
	
	//do router lub funkcji i wywali jak najwicej!
    //frame_b.r_voltage = frame_b.r_voltage*(1.0-BAT_voltage_alpha) + ADC_d.Vbat*BAT_voltage_alpha;
	//frame_b.vcc = frame_b.vcc*(1.0-BAT_voltage_alpha) + ADC_d.VCC*BAT_voltage_alpha;
    //-----------------Additional-----------
    if(LPS25H_d.altitude > LPS25H_d.max_altitude) LPS25H_d.max_altitude = LPS25H_d.altitude;
     ed2:	e1 e1       	ldi	r30, 0x11	; 17
     ed4:	f1 e2       	ldi	r31, 0x21	; 33
     ed6:	c2 88       	ldd	r12, Z+18	; 0x12
     ed8:	d3 88       	ldd	r13, Z+19	; 0x13
     eda:	e4 88       	ldd	r14, Z+20	; 0x14
     edc:	f5 88       	ldd	r15, Z+21	; 0x15
     ede:	26 89       	ldd	r18, Z+22	; 0x16
     ee0:	37 89       	ldd	r19, Z+23	; 0x17
     ee2:	40 8d       	ldd	r20, Z+24	; 0x18
     ee4:	51 8d       	ldd	r21, Z+25	; 0x19
     ee6:	c7 01       	movw	r24, r14
     ee8:	b6 01       	movw	r22, r12
     eea:	0e 94 30 2b 	call	0x5660	; 0x5660 <__gesf2>
     eee:	18 16       	cp	r1, r24
     ef0:	44 f4       	brge	.+16     	; 0xf02 <SensorUpdate+0x80>
     ef2:	c0 92 27 21 	sts	0x2127, r12
     ef6:	d0 92 28 21 	sts	0x2128, r13
     efa:	e0 92 29 21 	sts	0x2129, r14
     efe:	f0 92 2a 21 	sts	0x212A, r15
    
    //frame_b.light1 = ((ADC_d.LS1 * 100) / 255);
    //frame_b.light2 = ((ADC_d.LS2 * 100) / 255);
    //frame_b.light3 = ((ADC_d.LS3 * 100) / 255);
	
}
     f02:	df 91       	pop	r29
     f04:	cf 91       	pop	r28
     f06:	ff 90       	pop	r15
     f08:	ef 90       	pop	r14
     f0a:	df 90       	pop	r13
     f0c:	cf 90       	pop	r12
     f0e:	08 95       	ret

00000f10 <StateUpdate>:

void StateUpdate(void) {
     f10:	cf 92       	push	r12
     f12:	df 92       	push	r13
     f14:	ef 92       	push	r14
     f16:	ff 92       	push	r15
    if(!(stan_d.armed_trigger)) {
     f18:	80 91 cf 26 	lds	r24, 0x26CF
     f1c:	81 11       	cpse	r24, r1
     f1e:	08 c0       	rjmp	.+16     	; 0xf30 <StateUpdate+0x20>
        stan_d.flightState = 0;
     f20:	10 92 d0 26 	sts	0x26D0, r1
        buzzer_d.mode = 0;
     f24:	10 92 d9 20 	sts	0x20D9, r1
		//stan_d.flash_trigger = false;
        PORTD_OUTCLR = PIN1_bm;
     f28:	82 e0       	ldi	r24, 0x02	; 2
     f2a:	80 93 66 06 	sts	0x0666, r24
     f2e:	3a c1       	rjmp	.+628    	; 0x11a4 <StateUpdate+0x294>
    } else {
        switch(stan_d.flightState) {
     f30:	80 91 d0 26 	lds	r24, 0x26D0
     f34:	90 e0       	ldi	r25, 0x00	; 0
     f36:	89 30       	cpi	r24, 0x09	; 9
     f38:	91 05       	cpc	r25, r1
     f3a:	08 f0       	brcs	.+2      	; 0xf3e <StateUpdate+0x2e>
     f3c:	33 c1       	rjmp	.+614    	; 0x11a4 <StateUpdate+0x294>
     f3e:	fc 01       	movw	r30, r24
     f40:	88 27       	eor	r24, r24
     f42:	e9 5f       	subi	r30, 0xF9	; 249
     f44:	fe 4f       	sbci	r31, 0xFE	; 254
     f46:	8f 4f       	sbci	r24, 0xFF	; 255
     f48:	0c 94 aa 2d 	jmp	0x5b54	; 0x5b54 <__tablejump2__>
        //--------case 0 preflight-----------------
        case 0:
            if((SensorData_d.accel_x > 3) || (LPS25H_d.velocity > 10)) stan_d.flightState = 1;	//wykrycie startu
     f4c:	20 e0       	ldi	r18, 0x00	; 0
     f4e:	30 e0       	ldi	r19, 0x00	; 0
     f50:	40 e4       	ldi	r20, 0x40	; 64
     f52:	50 e4       	ldi	r21, 0x40	; 64
     f54:	60 91 aa 27 	lds	r22, 0x27AA
     f58:	70 91 ab 27 	lds	r23, 0x27AB
     f5c:	80 91 ac 27 	lds	r24, 0x27AC
     f60:	90 91 ad 27 	lds	r25, 0x27AD
     f64:	0e 94 30 2b 	call	0x5660	; 0x5660 <__gesf2>
     f68:	18 16       	cp	r1, r24
     f6a:	84 f0       	brlt	.+32     	; 0xf8c <StateUpdate+0x7c>
     f6c:	20 e0       	ldi	r18, 0x00	; 0
     f6e:	30 e0       	ldi	r19, 0x00	; 0
     f70:	40 e2       	ldi	r20, 0x20	; 32
     f72:	51 e4       	ldi	r21, 0x41	; 65
     f74:	60 91 2b 21 	lds	r22, 0x212B
     f78:	70 91 2c 21 	lds	r23, 0x212C
     f7c:	80 91 2d 21 	lds	r24, 0x212D
     f80:	90 91 2e 21 	lds	r25, 0x212E
     f84:	0e 94 30 2b 	call	0x5660	; 0x5660 <__gesf2>
     f88:	18 16       	cp	r1, r24
     f8a:	1c f4       	brge	.+6      	; 0xf92 <StateUpdate+0x82>
     f8c:	81 e0       	ldi	r24, 0x01	; 1
     f8e:	80 93 d0 26 	sts	0x26D0, r24
            buzzer_d.mode = 0;
     f92:	10 92 d9 20 	sts	0x20D9, r1
			LPS25H_d.max_altitude = LPS25H_d.altitude;
     f96:	e1 e1       	ldi	r30, 0x11	; 17
     f98:	f1 e2       	ldi	r31, 0x21	; 33
     f9a:	82 89       	ldd	r24, Z+18	; 0x12
     f9c:	93 89       	ldd	r25, Z+19	; 0x13
     f9e:	a4 89       	ldd	r26, Z+20	; 0x14
     fa0:	b5 89       	ldd	r27, Z+21	; 0x15
     fa2:	86 8b       	std	Z+22, r24	; 0x16
     fa4:	97 8b       	std	Z+23, r25	; 0x17
     fa6:	a0 8f       	std	Z+24, r26	; 0x18
     fa8:	b1 8f       	std	Z+25, r27	; 0x19
            break;
     faa:	fc c0       	rjmp	.+504    	; 0x11a4 <StateUpdate+0x294>
        //--------case 1 flight wait for apogee----
        case 1:
			stan_d.flash_trigger = true;
     fac:	81 e0       	ldi	r24, 0x01	; 1
     fae:	80 93 ce 26 	sts	0x26CE, r24
            if((LPS25H_d.max_altitude - LPS25H_d.altitude) > 10.0) stan_d.flightState = 2;	//wykrycie puapu
     fb2:	e1 e1       	ldi	r30, 0x11	; 17
     fb4:	f1 e2       	ldi	r31, 0x21	; 33
     fb6:	22 89       	ldd	r18, Z+18	; 0x12
     fb8:	33 89       	ldd	r19, Z+19	; 0x13
     fba:	44 89       	ldd	r20, Z+20	; 0x14
     fbc:	55 89       	ldd	r21, Z+21	; 0x15
     fbe:	66 89       	ldd	r22, Z+22	; 0x16
     fc0:	77 89       	ldd	r23, Z+23	; 0x17
     fc2:	80 8d       	ldd	r24, Z+24	; 0x18
     fc4:	91 8d       	ldd	r25, Z+25	; 0x19
     fc6:	0e 94 3c 29 	call	0x5278	; 0x5278 <__subsf3>
     fca:	20 e0       	ldi	r18, 0x00	; 0
     fcc:	30 e0       	ldi	r19, 0x00	; 0
     fce:	40 e2       	ldi	r20, 0x20	; 32
     fd0:	51 e4       	ldi	r21, 0x41	; 65
     fd2:	0e 94 30 2b 	call	0x5660	; 0x5660 <__gesf2>
     fd6:	18 16       	cp	r1, r24
     fd8:	0c f0       	brlt	.+2      	; 0xfdc <StateUpdate+0xcc>
     fda:	e4 c0       	rjmp	.+456    	; 0x11a4 <StateUpdate+0x294>
     fdc:	82 e0       	ldi	r24, 0x02	; 2
     fde:	80 93 d0 26 	sts	0x26D0, r24
     fe2:	e0 c0       	rjmp	.+448    	; 0x11a4 <StateUpdate+0x294>
            break;
        //-------case 2 delay + sound signal + deployment------------------
        case 2:
            buzzer_d.mode = 1;																//3 sygnay cige
     fe4:	e8 ed       	ldi	r30, 0xD8	; 216
     fe6:	f0 e2       	ldi	r31, 0x20	; 32
     fe8:	81 e0       	ldi	r24, 0x01	; 1
     fea:	81 83       	std	Z+1, r24	; 0x01
            buzzer_d.trigger = true;														//odblokowanie buzzera
     fec:	80 83       	st	Z, r24
            timer_buffer = RTC_d.time;														//buforowanie czasu
     fee:	60 91 84 27 	lds	r22, 0x2784
     ff2:	70 91 85 27 	lds	r23, 0x2785
     ff6:	80 91 86 27 	lds	r24, 0x2786
     ffa:	90 91 87 27 	lds	r25, 0x2787
     ffe:	0e 94 3e 2a 	call	0x547c	; 0x547c <__floatunsisf>
    1002:	60 93 d0 20 	sts	0x20D0, r22
    1006:	70 93 d1 20 	sts	0x20D1, r23
    100a:	80 93 d2 20 	sts	0x20D2, r24
    100e:	90 93 d3 20 	sts	0x20D3, r25
            stan_d.flightState = 3;
    1012:	83 e0       	ldi	r24, 0x03	; 3
    1014:	80 93 d0 26 	sts	0x26D0, r24
            break;
    1018:	c5 c0       	rjmp	.+394    	; 0x11a4 <StateUpdate+0x294>
        //--------case 3 parachute delay--------------
        case 3:
            if(RTC_d.time > (timer_buffer + 5)) stan_d.flightState = 4;						//odczekanie po separacji
    101a:	60 91 84 27 	lds	r22, 0x2784
    101e:	70 91 85 27 	lds	r23, 0x2785
    1022:	80 91 86 27 	lds	r24, 0x2786
    1026:	90 91 87 27 	lds	r25, 0x2787
    102a:	0e 94 3e 2a 	call	0x547c	; 0x547c <__floatunsisf>
    102e:	6b 01       	movw	r12, r22
    1030:	7c 01       	movw	r14, r24
    1032:	20 e0       	ldi	r18, 0x00	; 0
    1034:	30 e0       	ldi	r19, 0x00	; 0
    1036:	40 ea       	ldi	r20, 0xA0	; 160
    1038:	50 e4       	ldi	r21, 0x40	; 64
    103a:	60 91 d0 20 	lds	r22, 0x20D0
    103e:	70 91 d1 20 	lds	r23, 0x20D1
    1042:	80 91 d2 20 	lds	r24, 0x20D2
    1046:	90 91 d3 20 	lds	r25, 0x20D3
    104a:	0e 94 3d 29 	call	0x527a	; 0x527a <__addsf3>
    104e:	9b 01       	movw	r18, r22
    1050:	ac 01       	movw	r20, r24
    1052:	c7 01       	movw	r24, r14
    1054:	b6 01       	movw	r22, r12
    1056:	0e 94 30 2b 	call	0x5660	; 0x5660 <__gesf2>
    105a:	18 16       	cp	r1, r24
    105c:	0c f0       	brlt	.+2      	; 0x1060 <StateUpdate+0x150>
    105e:	a2 c0       	rjmp	.+324    	; 0x11a4 <StateUpdate+0x294>
    1060:	84 e0       	ldi	r24, 0x04	; 4
    1062:	80 93 d0 26 	sts	0x26D0, r24
    1066:	9e c0       	rjmp	.+316    	; 0x11a4 <StateUpdate+0x294>
            break;
        //--------case 4 separation wait-----------
        case 4:
            if(((LPS25H_d.velocity) > 40) || (LPS25H_d.altitude < 250)) stan_d.flightState = 5;						//odczekanie do separacji
    1068:	20 e0       	ldi	r18, 0x00	; 0
    106a:	30 e0       	ldi	r19, 0x00	; 0
    106c:	40 e2       	ldi	r20, 0x20	; 32
    106e:	52 e4       	ldi	r21, 0x42	; 66
    1070:	60 91 2b 21 	lds	r22, 0x212B
    1074:	70 91 2c 21 	lds	r23, 0x212C
    1078:	80 91 2d 21 	lds	r24, 0x212D
    107c:	90 91 2e 21 	lds	r25, 0x212E
    1080:	0e 94 30 2b 	call	0x5660	; 0x5660 <__gesf2>
    1084:	18 16       	cp	r1, r24
    1086:	8c f0       	brlt	.+34     	; 0x10aa <StateUpdate+0x19a>
    1088:	20 e0       	ldi	r18, 0x00	; 0
    108a:	30 e0       	ldi	r19, 0x00	; 0
    108c:	4a e7       	ldi	r20, 0x7A	; 122
    108e:	53 e4       	ldi	r21, 0x43	; 67
    1090:	60 91 23 21 	lds	r22, 0x2123
    1094:	70 91 24 21 	lds	r23, 0x2124
    1098:	80 91 25 21 	lds	r24, 0x2125
    109c:	90 91 26 21 	lds	r25, 0x2126
    10a0:	0e 94 a1 29 	call	0x5342	; 0x5342 <__cmpsf2>
    10a4:	88 23       	and	r24, r24
    10a6:	0c f0       	brlt	.+2      	; 0x10aa <StateUpdate+0x19a>
    10a8:	7d c0       	rjmp	.+250    	; 0x11a4 <StateUpdate+0x294>
    10aa:	85 e0       	ldi	r24, 0x05	; 5
    10ac:	80 93 d0 26 	sts	0x26D0, r24
    10b0:	79 c0       	rjmp	.+242    	; 0x11a4 <StateUpdate+0x294>
            break;
        //-------case 5 separation------------------
        case 5:
            buzzer_d.mode = 1;																//3 sygnay cige
    10b2:	e8 ed       	ldi	r30, 0xD8	; 216
    10b4:	f0 e2       	ldi	r31, 0x20	; 32
    10b6:	81 e0       	ldi	r24, 0x01	; 1
    10b8:	81 83       	std	Z+1, r24	; 0x01
            buzzer_d.trigger = true;														//odblokowanie buzzera
    10ba:	80 83       	st	Z, r24
            timer_buffer = RTC_d.time;														//buforowanie czasu
    10bc:	60 91 84 27 	lds	r22, 0x2784
    10c0:	70 91 85 27 	lds	r23, 0x2785
    10c4:	80 91 86 27 	lds	r24, 0x2786
    10c8:	90 91 87 27 	lds	r25, 0x2787
    10cc:	0e 94 3e 2a 	call	0x547c	; 0x547c <__floatunsisf>
    10d0:	60 93 d0 20 	sts	0x20D0, r22
    10d4:	70 93 d1 20 	sts	0x20D1, r23
    10d8:	80 93 d2 20 	sts	0x20D2, r24
    10dc:	90 93 d3 20 	sts	0x20D3, r25
            stan_d.flightState = 6;
    10e0:	86 e0       	ldi	r24, 0x06	; 6
    10e2:	80 93 d0 26 	sts	0x26D0, r24
            break;
    10e6:	5e c0       	rjmp	.+188    	; 0x11a4 <StateUpdate+0x294>
        //-------case 6 after separation delay------
        case 6:
            if(RTC_d.time > (timer_buffer + 10)) stan_d.flightState = 7;						//odczekanie po separacji
    10e8:	60 91 84 27 	lds	r22, 0x2784
    10ec:	70 91 85 27 	lds	r23, 0x2785
    10f0:	80 91 86 27 	lds	r24, 0x2786
    10f4:	90 91 87 27 	lds	r25, 0x2787
    10f8:	0e 94 3e 2a 	call	0x547c	; 0x547c <__floatunsisf>
    10fc:	6b 01       	movw	r12, r22
    10fe:	7c 01       	movw	r14, r24
    1100:	20 e0       	ldi	r18, 0x00	; 0
    1102:	30 e0       	ldi	r19, 0x00	; 0
    1104:	40 e2       	ldi	r20, 0x20	; 32
    1106:	51 e4       	ldi	r21, 0x41	; 65
    1108:	60 91 d0 20 	lds	r22, 0x20D0
    110c:	70 91 d1 20 	lds	r23, 0x20D1
    1110:	80 91 d2 20 	lds	r24, 0x20D2
    1114:	90 91 d3 20 	lds	r25, 0x20D3
    1118:	0e 94 3d 29 	call	0x527a	; 0x527a <__addsf3>
    111c:	9b 01       	movw	r18, r22
    111e:	ac 01       	movw	r20, r24
    1120:	c7 01       	movw	r24, r14
    1122:	b6 01       	movw	r22, r12
    1124:	0e 94 30 2b 	call	0x5660	; 0x5660 <__gesf2>
    1128:	18 16       	cp	r1, r24
    112a:	e4 f5       	brge	.+120    	; 0x11a4 <StateUpdate+0x294>
    112c:	87 e0       	ldi	r24, 0x07	; 7
    112e:	80 93 d0 26 	sts	0x26D0, r24
    1132:	38 c0       	rjmp	.+112    	; 0x11a4 <StateUpdate+0x294>
            break;
        //---------case 7 wait for landing----------
        case 7:
            if((LPS25H_d.altitude < 100) && (LPS25H_d.velocity < 1) && (LPS25H_d.velocity > -1)) stan_d.flightState = 8;
    1134:	20 e0       	ldi	r18, 0x00	; 0
    1136:	30 e0       	ldi	r19, 0x00	; 0
    1138:	48 ec       	ldi	r20, 0xC8	; 200
    113a:	52 e4       	ldi	r21, 0x42	; 66
    113c:	60 91 23 21 	lds	r22, 0x2123
    1140:	70 91 24 21 	lds	r23, 0x2124
    1144:	80 91 25 21 	lds	r24, 0x2125
    1148:	90 91 26 21 	lds	r25, 0x2126
    114c:	0e 94 a1 29 	call	0x5342	; 0x5342 <__cmpsf2>
    1150:	88 23       	and	r24, r24
    1152:	44 f5       	brge	.+80     	; 0x11a4 <StateUpdate+0x294>
    1154:	c0 90 2b 21 	lds	r12, 0x212B
    1158:	d0 90 2c 21 	lds	r13, 0x212C
    115c:	e0 90 2d 21 	lds	r14, 0x212D
    1160:	f0 90 2e 21 	lds	r15, 0x212E
    1164:	20 e0       	ldi	r18, 0x00	; 0
    1166:	30 e0       	ldi	r19, 0x00	; 0
    1168:	40 e8       	ldi	r20, 0x80	; 128
    116a:	5f e3       	ldi	r21, 0x3F	; 63
    116c:	c7 01       	movw	r24, r14
    116e:	b6 01       	movw	r22, r12
    1170:	0e 94 a1 29 	call	0x5342	; 0x5342 <__cmpsf2>
    1174:	88 23       	and	r24, r24
    1176:	b4 f4       	brge	.+44     	; 0x11a4 <StateUpdate+0x294>
    1178:	20 e0       	ldi	r18, 0x00	; 0
    117a:	30 e0       	ldi	r19, 0x00	; 0
    117c:	40 e8       	ldi	r20, 0x80	; 128
    117e:	5f eb       	ldi	r21, 0xBF	; 191
    1180:	c7 01       	movw	r24, r14
    1182:	b6 01       	movw	r22, r12
    1184:	0e 94 30 2b 	call	0x5660	; 0x5660 <__gesf2>
    1188:	18 16       	cp	r1, r24
    118a:	64 f4       	brge	.+24     	; 0x11a4 <StateUpdate+0x294>
    118c:	88 e0       	ldi	r24, 0x08	; 8
    118e:	80 93 d0 26 	sts	0x26D0, r24
    1192:	08 c0       	rjmp	.+16     	; 0x11a4 <StateUpdate+0x294>
            break;
        //---------case 8 END----------------
        case 8:
            buzzer_d.mode = 2;																//sygna 2Hz
    1194:	e8 ed       	ldi	r30, 0xD8	; 216
    1196:	f0 e2       	ldi	r31, 0x20	; 32
    1198:	82 e0       	ldi	r24, 0x02	; 2
    119a:	81 83       	std	Z+1, r24	; 0x01
            buzzer_d.trigger = true;														//odblokowanie buzzera
    119c:	81 e0       	ldi	r24, 0x01	; 1
    119e:	80 83       	st	Z, r24
			stan_d.flash_trigger = false;
    11a0:	10 92 ce 26 	sts	0x26CE, r1
            break;
        }
    }
}
    11a4:	ff 90       	pop	r15
    11a6:	ef 90       	pop	r14
    11a8:	df 90       	pop	r13
    11aa:	cf 90       	pop	r12
    11ac:	08 95       	ret

000011ae <Initialization>:

void Initialization(void) {
	CPU_clk(CPU_clock);	//zegar CPU
    11ae:	80 e2       	ldi	r24, 0x20	; 32
    11b0:	3a d6       	rcall	.+3188   	; 0x1e26 <CPU_clk>
    OscRTC();			//zegar RTC
    11b2:	3c d6       	rcall	.+3192   	; 0x1e2c <OscRTC>
    RTC_Init();			//konfiguracja i uruchomienie RTC
    11b4:	3c d6       	rcall	.+3192   	; 0x1e2e <RTC_Init>
    ADC_Init();			//inicjalizacja ADC
    11b6:	72 d7       	rcall	.+3812   	; 0x209c <ADC_Init>
    USART_Init();		//inicjalizacja Xbee
    11b8:	dc d6       	rcall	.+3512   	; 0x1f72 <USART_Init>
    GPS_Init();			//inicjalizacja GPS
    11ba:	c4 d6       	rcall	.+3464   	; 0x1f44 <GPS_Init>
    GPS_Conf();			//wysanie konfiguracji do GPS
    11bc:	d9 d6       	rcall	.+3506   	; 0x1f70 <GPS_Conf>
    IO_Init();
    11be:	ef d6       	rcall	.+3550   	; 0x1f9e <IO_Init>
    TimerCInit(sampling_time);	//sensor update
    11c0:	88 e2       	ldi	r24, 0x28	; 40
    11c2:	90 e0       	ldi	r25, 0x00	; 0
    11c4:	35 d6       	rcall	.+3178   	; 0x1e30 <TimerCInit>
    TimerDInit(250);			//buzzer handling
    11c6:	8a ef       	ldi	r24, 0xFA	; 250
    11c8:	90 e0       	ldi	r25, 0x00	; 0
    11ca:	53 d6       	rcall	.+3238   	; 0x1e72 <TimerDInit>
    TimerEInit(50);				//obsuga IO
    11cc:	82 e3       	ldi	r24, 0x32	; 50
    11ce:	90 e0       	ldi	r25, 0x00	; 0
    11d0:	71 d6       	rcall	.+3298   	; 0x1eb4 <TimerEInit>
    TimerFInit(telemetry_time);	//frame send
    11d2:	88 ee       	ldi	r24, 0xE8	; 232
    11d4:	93 e0       	ldi	r25, 0x03	; 3
    11d6:	8f d6       	rcall	.+3358   	; 0x1ef6 <TimerFInit>
    structInit();
    11d8:	01 de       	rcall	.-1022   	; 0xddc <structInit>
    I2C_Init();
    11da:	39 d7       	rcall	.+3698   	; 0x204e <I2C_Init>
    //--------MPU9150 Init-----------
    MPU9150_WakeUp();
    11dc:	0e 94 f6 14 	call	0x29ec	; 0x29ec <MPU9150_WakeUp>
    //-------LPS25H Init------------
    LPS25H_config();
    11e0:	0e 94 50 11 	call	0x22a0	; 0x22a0 <LPS25H_config>
    //-------LIS331HH Init---------
    LIS331HH_WakeUp();
    11e4:	8d d7       	rcall	.+3866   	; 0x2100 <LIS331HH_WakeUp>
    //-------LSM9DS0 Init----------
    LSM9DS0_Init();
    11e6:	0e 94 42 12 	call	0x2484	; 0x2484 <LSM9DS0_Init>
    //-------SPI Flash Init--------
    SPI_Init();
    11ea:	3d d7       	rcall	.+3706   	; 0x2066 <SPI_Init>
    SPI_WriteProtection(false);
    11ec:	80 e0       	ldi	r24, 0x00	; 0
    11ee:	ff d4       	rcall	.+2558   	; 0x1bee <SPI_WriteProtection>
    SPIaddress = SPI_FindEnd();		//szukaj wolnego miejsca w pamici------------------------------------------------
    11f0:	59 d5       	rcall	.+2738   	; 0x1ca4 <SPI_FindEnd>
    11f2:	60 93 d4 20 	sts	0x20D4, r22
    11f6:	70 93 d5 20 	sts	0x20D5, r23
    11fa:	80 93 d6 20 	sts	0x20D6, r24
    11fe:	90 93 d7 20 	sts	0x20D7, r25
    //SPIaddress = 0;
    //-------wczenie przerwa----
    PMIC.CTRL = PMIC_LOLVLEN_bm | PMIC_MEDLVLEN_bm | PMIC_HILVLEN_bm;
    1202:	87 e0       	ldi	r24, 0x07	; 7
    1204:	80 93 a2 00 	sts	0x00A2, r24
    1208:	08 95       	ret

0000120a <InitMemoryErase>:
}

void InitMemoryErase() {
    120a:	cf 93       	push	r28
    120c:	df 93       	push	r29
    120e:	cd b7       	in	r28, 0x3d	; 61
    1210:	de b7       	in	r29, 0x3e	; 62
    1212:	66 97       	sbiw	r28, 0x16	; 22
    1214:	cd bf       	out	0x3d, r28	; 61
    1216:	de bf       	out	0x3e, r29	; 62
    uint32_t i = 0;
    const char buf0[] = "\n\rMemory erased!\n\r\n\r\0";
    1218:	86 e1       	ldi	r24, 0x16	; 22
    121a:	e0 e0       	ldi	r30, 0x00	; 0
    121c:	f0 e2       	ldi	r31, 0x20	; 32
    121e:	de 01       	movw	r26, r28
    1220:	11 96       	adiw	r26, 0x01	; 1
    1222:	01 90       	ld	r0, Z+
    1224:	0d 92       	st	X+, r0
    1226:	8a 95       	dec	r24
    1228:	e1 f7       	brne	.-8      	; 0x1222 <InitMemoryErase+0x18>
    while((!(PORTE.IN & PIN0_bm)) || (!(PORTE.IN & PIN1_bm))) {}
    122a:	e0 e8       	ldi	r30, 0x80	; 128
    122c:	f6 e0       	ldi	r31, 0x06	; 6
    122e:	80 85       	ldd	r24, Z+8	; 0x08
    1230:	80 ff       	sbrs	r24, 0
    1232:	fd cf       	rjmp	.-6      	; 0x122e <InitMemoryErase+0x24>
    1234:	80 85       	ldd	r24, Z+8	; 0x08
    1236:	81 ff       	sbrs	r24, 1
    1238:	fa cf       	rjmp	.-12     	; 0x122e <InitMemoryErase+0x24>
    buzzer_d.mode = 3;																//sygna 2Hz
    123a:	e8 ed       	ldi	r30, 0xD8	; 216
    123c:	f0 e2       	ldi	r31, 0x20	; 32
    123e:	83 e0       	ldi	r24, 0x03	; 3
    1240:	81 83       	std	Z+1, r24	; 0x01
    buzzer_d.trigger = true;														//odblokowanie buzzera
    1242:	81 e0       	ldi	r24, 0x01	; 1
    1244:	80 83       	st	Z, r24
    SPI_ChipErase();
    1246:	17 d5       	rcall	.+2606   	; 0x1c76 <SPI_ChipErase>
	#else
		//round up by default
		__ticks_dc = (uint32_t)(ceil(fabs(__tmp)));
	#endif

	__builtin_avr_delay_cycles(__ticks_dc);
    1248:	2f ef       	ldi	r18, 0xFF	; 255
    124a:	87 ea       	ldi	r24, 0xA7	; 167
    124c:	91 e6       	ldi	r25, 0x61	; 97
    124e:	21 50       	subi	r18, 0x01	; 1
    1250:	80 40       	sbci	r24, 0x00	; 0
    1252:	90 40       	sbci	r25, 0x00	; 0
    1254:	e1 f7       	brne	.-8      	; 0x124e <InitMemoryErase+0x44>
    1256:	00 c0       	rjmp	.+0      	; 0x1258 <InitMemoryErase+0x4e>
    1258:	00 00       	nop
    _delay_ms(1000);
    i = 0;
    while(buf0[i]) {
    125a:	89 81       	ldd	r24, Y+1	; 0x01
    125c:	88 23       	and	r24, r24
    125e:	71 f0       	breq	.+28     	; 0x127c <InitMemoryErase+0x72>
    1260:	fe 01       	movw	r30, r28
    1262:	32 96       	adiw	r30, 0x02	; 2
        XBEE_UART.DATA = buf0[i++];
    1264:	a0 ea       	ldi	r26, 0xA0	; 160
    1266:	b9 e0       	ldi	r27, 0x09	; 9
    1268:	8c 93       	st	X, r24
    126a:	8f e7       	ldi	r24, 0x7F	; 127
    126c:	9e e3       	ldi	r25, 0x3E	; 62
    126e:	01 97       	sbiw	r24, 0x01	; 1
    1270:	f1 f7       	brne	.-4      	; 0x126e <InitMemoryErase+0x64>
    1272:	00 c0       	rjmp	.+0      	; 0x1274 <InitMemoryErase+0x6a>
    1274:	00 00       	nop
    buzzer_d.mode = 3;																//sygna 2Hz
    buzzer_d.trigger = true;														//odblokowanie buzzera
    SPI_ChipErase();
    _delay_ms(1000);
    i = 0;
    while(buf0[i]) {
    1276:	81 91       	ld	r24, Z+
    1278:	81 11       	cpse	r24, r1
    127a:	f6 cf       	rjmp	.-20     	; 0x1268 <InitMemoryErase+0x5e>
        XBEE_UART.DATA = buf0[i++];
        _delay_ms(2);
    }
    buzzer_d.trigger = false;														//odblokowanie buzzera
    127c:	10 92 d8 20 	sts	0x20D8, r1
    SPIaddress = 0;
    1280:	10 92 d4 20 	sts	0x20D4, r1
    1284:	10 92 d5 20 	sts	0x20D5, r1
    1288:	10 92 d6 20 	sts	0x20D6, r1
    128c:	10 92 d7 20 	sts	0x20D7, r1
}
    1290:	66 96       	adiw	r28, 0x16	; 22
    1292:	cd bf       	out	0x3d, r28	; 61
    1294:	de bf       	out	0x3e, r29	; 62
    1296:	df 91       	pop	r29
    1298:	cf 91       	pop	r28
    129a:	08 95       	ret

0000129c <InitMemoryRead>:

void InitMemoryRead() {
    129c:	4f 92       	push	r4
    129e:	5f 92       	push	r5
    12a0:	6f 92       	push	r6
    12a2:	7f 92       	push	r7
    12a4:	9f 92       	push	r9
    12a6:	af 92       	push	r10
    12a8:	bf 92       	push	r11
    12aa:	cf 92       	push	r12
    12ac:	df 92       	push	r13
    12ae:	ef 92       	push	r14
    12b0:	ff 92       	push	r15
    12b2:	0f 93       	push	r16
    12b4:	1f 93       	push	r17
    12b6:	cf 93       	push	r28
    12b8:	df 93       	push	r29
    12ba:	cd b7       	in	r28, 0x3d	; 61
    12bc:	de b7       	in	r29, 0x3e	; 62
    12be:	ca 5b       	subi	r28, 0xBA	; 186
    12c0:	d1 09       	sbc	r29, r1
    12c2:	cd bf       	out	0x3d, r28	; 61
    12c4:	de bf       	out	0x3e, r29	; 62
    uint32_t i = 0;
    stan_d.flash_trigger = false;
    12c6:	10 92 ce 26 	sts	0x26CE, r1
    buzzer_d.mode = 3;																//sygna 2Hz
    12ca:	e8 ed       	ldi	r30, 0xD8	; 216
    12cc:	f0 e2       	ldi	r31, 0x20	; 32
    12ce:	83 e0       	ldi	r24, 0x03	; 3
    12d0:	81 83       	std	Z+1, r24	; 0x01
    buzzer_d.trigger = true;
    12d2:	81 e0       	ldi	r24, 0x01	; 1
    12d4:	80 83       	st	Z, r24
    12d6:	2f ef       	ldi	r18, 0xFF	; 255
    12d8:	87 e8       	ldi	r24, 0x87	; 135
    12da:	93 e1       	ldi	r25, 0x13	; 19
    12dc:	21 50       	subi	r18, 0x01	; 1
    12de:	80 40       	sbci	r24, 0x00	; 0
    12e0:	90 40       	sbci	r25, 0x00	; 0
    12e2:	e1 f7       	brne	.-8      	; 0x12dc <InitMemoryRead+0x40>
    12e4:	00 c0       	rjmp	.+0      	; 0x12e6 <InitMemoryRead+0x4a>
    12e6:	00 00       	nop
    _delay_ms(200);
    buzzer_d.trigger = false;
    12e8:	10 82       	st	Z, r1
    while(!(PORTE.IN & PIN1_bm)) {}
    12ea:	e0 e8       	ldi	r30, 0x80	; 128
    12ec:	f6 e0       	ldi	r31, 0x06	; 6
    12ee:	80 85       	ldd	r24, Z+8	; 0x08
    12f0:	81 ff       	sbrs	r24, 1
    12f2:	fd cf       	rjmp	.-6      	; 0x12ee <InitMemoryRead+0x52>
    const char buf1[] = "\n\rTeam,TeleCnt,FlightState,SoftState,Altitude,Velocity,Accel,Gyro,Lat,Long,AltiGPS,Fix,Check,,Cnt,VoltageBat,VoltageVCC,Temp,Press,AccY,AccY2,GyroX,GyroZ,GyroY,\n\r\n\r\0";
    12f4:	86 ea       	ldi	r24, 0xA6	; 166
    12f6:	e6 e1       	ldi	r30, 0x16	; 22
    12f8:	f0 e2       	ldi	r31, 0x20	; 32
    12fa:	de 01       	movw	r26, r28
    12fc:	11 96       	adiw	r26, 0x01	; 1
    12fe:	01 90       	ld	r0, Z+
    1300:	0d 92       	st	X+, r0
    1302:	8a 95       	dec	r24
    1304:	e1 f7       	brne	.-8      	; 0x12fe <InitMemoryRead+0x62>
    const char buf2[] = "\n\rReading done\n\r\n\r\0";
    1306:	84 e1       	ldi	r24, 0x14	; 20
    1308:	ec eb       	ldi	r30, 0xBC	; 188
    130a:	f0 e2       	ldi	r31, 0x20	; 32
    130c:	de 01       	movw	r26, r28
    130e:	a9 55       	subi	r26, 0x59	; 89
    1310:	bf 4f       	sbci	r27, 0xFF	; 255
    1312:	01 90       	ld	r0, Z+
    1314:	0d 92       	st	X+, r0
    1316:	8a 95       	dec	r24
    1318:	e1 f7       	brne	.-8      	; 0x1312 <InitMemoryRead+0x76>
    //------Hello message----------
    while(buf1[i]) {
    131a:	89 81       	ldd	r24, Y+1	; 0x01
    131c:	88 23       	and	r24, r24
    131e:	89 f0       	breq	.+34     	; 0x1342 <InitMemoryRead+0xa6>
    1320:	fe 01       	movw	r30, r28
    1322:	32 96       	adiw	r30, 0x02	; 2
        XBEE_UART.DATA = buf1[i++];
    1324:	a0 ea       	ldi	r26, 0xA0	; 160
    1326:	b9 e0       	ldi	r27, 0x09	; 9
    1328:	8c 93       	st	X, r24
    132a:	2f ef       	ldi	r18, 0xFF	; 255
    132c:	89 ef       	ldi	r24, 0xF9	; 249
    132e:	90 e0       	ldi	r25, 0x00	; 0
    1330:	21 50       	subi	r18, 0x01	; 1
    1332:	80 40       	sbci	r24, 0x00	; 0
    1334:	90 40       	sbci	r25, 0x00	; 0
    1336:	e1 f7       	brne	.-8      	; 0x1330 <InitMemoryRead+0x94>
    1338:	00 c0       	rjmp	.+0      	; 0x133a <InitMemoryRead+0x9e>
    133a:	00 00       	nop
    buzzer_d.trigger = false;
    while(!(PORTE.IN & PIN1_bm)) {}
    const char buf1[] = "\n\rTeam,TeleCnt,FlightState,SoftState,Altitude,Velocity,Accel,Gyro,Lat,Long,AltiGPS,Fix,Check,,Cnt,VoltageBat,VoltageVCC,Temp,Press,AccY,AccY2,GyroX,GyroZ,GyroY,\n\r\n\r\0";
    const char buf2[] = "\n\rReading done\n\r\n\r\0";
    //------Hello message----------
    while(buf1[i]) {
    133c:	81 91       	ld	r24, Z+
    133e:	81 11       	cpse	r24, r1
    1340:	f3 cf       	rjmp	.-26     	; 0x1328 <InitMemoryRead+0x8c>
    1342:	ef ef       	ldi	r30, 0xFF	; 255
    1344:	f7 ea       	ldi	r31, 0xA7	; 167
    1346:	21 e6       	ldi	r18, 0x61	; 97
    1348:	e1 50       	subi	r30, 0x01	; 1
    134a:	f0 40       	sbci	r31, 0x00	; 0
    134c:	20 40       	sbci	r18, 0x00	; 0
    134e:	e1 f7       	brne	.-8      	; 0x1348 <InitMemoryRead+0xac>
    1350:	00 c0       	rjmp	.+0      	; 0x1352 <InitMemoryRead+0xb6>
    1352:	00 00       	nop
    }
    _delay_ms(1000);
    //-------start Flash read------S
    uint8_t ch = 0xFF;
    uint8_t FFcnt = 0;
    LED_PORT.OUTSET = LED1;
    1354:	84 e0       	ldi	r24, 0x04	; 4
    1356:	80 93 05 06 	sts	0x0605, r24
    SPI_CS(true);
    135a:	81 e0       	ldi	r24, 0x01	; 1
    135c:	ff d3       	rcall	.+2046   	; 0x1b5c <SPI_CS>
    SPI_W_Byte(0x03);					//Read
    135e:	83 e0       	ldi	r24, 0x03	; 3
    1360:	e0 d3       	rcall	.+1984   	; 0x1b22 <SPI_W_Byte>
    SPI_W_Byte(0);	//address MSB
    1362:	80 e0       	ldi	r24, 0x00	; 0
    1364:	de d3       	rcall	.+1980   	; 0x1b22 <SPI_W_Byte>
    SPI_W_Byte(0);	//address cd.
    1366:	80 e0       	ldi	r24, 0x00	; 0
    1368:	dc d3       	rcall	.+1976   	; 0x1b22 <SPI_W_Byte>
    SPI_W_Byte(0);	//address LSB
    136a:	80 e0       	ldi	r24, 0x00	; 0
    136c:	da d3       	rcall	.+1972   	; 0x1b22 <SPI_W_Byte>
        _delay_ms(10);
    }
    _delay_ms(1000);
    //-------start Flash read------S
    uint8_t ch = 0xFF;
    uint8_t FFcnt = 0;
    136e:	91 2c       	mov	r9, r1
    SPI_CS(true);
    SPI_W_Byte(0x03);					//Read
    SPI_W_Byte(0);	//address MSB
    SPI_W_Byte(0);	//address cd.
    SPI_W_Byte(0);	//address LSB
    i = 0;
    1370:	c1 2c       	mov	r12, r1
    1372:	d1 2c       	mov	r13, r1
    1374:	76 01       	movw	r14, r12
    do {
        ch = SPI_R_Byte();
        if(ch != 0xFF) {
            XBEE_UART.DATA = ch;
    1376:	0f 2e       	mov	r0, r31
    1378:	f0 ea       	ldi	r31, 0xA0	; 160
    137a:	af 2e       	mov	r10, r31
    137c:	f9 e0       	ldi	r31, 0x09	; 9
    137e:	bf 2e       	mov	r11, r31
    1380:	f0 2d       	mov	r31, r0
            FFcnt = 0;
        } else FFcnt++;
        i++;
        if((i % 100) == 0) _delay_ms(10);
    1382:	0f 2e       	mov	r0, r31
    1384:	f4 e6       	ldi	r31, 0x64	; 100
    1386:	4f 2e       	mov	r4, r31
    1388:	51 2c       	mov	r5, r1
    138a:	61 2c       	mov	r6, r1
    138c:	71 2c       	mov	r7, r1
    138e:	f0 2d       	mov	r31, r0
        else _delay_us(100);
    } while((PORTE.IN & PIN0_bm) && (FFcnt < 100));
    1390:	00 e8       	ldi	r16, 0x80	; 128
    1392:	16 e0       	ldi	r17, 0x06	; 6
    SPI_W_Byte(0);	//address MSB
    SPI_W_Byte(0);	//address cd.
    SPI_W_Byte(0);	//address LSB
    i = 0;
    do {
        ch = SPI_R_Byte();
    1394:	d9 d3       	rcall	.+1970   	; 0x1b48 <SPI_R_Byte>
        if(ch != 0xFF) {
    1396:	8f 3f       	cpi	r24, 0xFF	; 255
    1398:	21 f0       	breq	.+8      	; 0x13a2 <InitMemoryRead+0x106>
            XBEE_UART.DATA = ch;
    139a:	f5 01       	movw	r30, r10
    139c:	80 83       	st	Z, r24
            FFcnt = 0;
    139e:	91 2c       	mov	r9, r1
    13a0:	01 c0       	rjmp	.+2      	; 0x13a4 <InitMemoryRead+0x108>
        } else FFcnt++;
    13a2:	93 94       	inc	r9
        i++;
    13a4:	ff ef       	ldi	r31, 0xFF	; 255
    13a6:	cf 1a       	sub	r12, r31
    13a8:	df 0a       	sbc	r13, r31
    13aa:	ef 0a       	sbc	r14, r31
    13ac:	ff 0a       	sbc	r15, r31
        if((i % 100) == 0) _delay_ms(10);
    13ae:	c7 01       	movw	r24, r14
    13b0:	b6 01       	movw	r22, r12
    13b2:	a3 01       	movw	r20, r6
    13b4:	92 01       	movw	r18, r4
    13b6:	0e 94 6c 2d 	call	0x5ad8	; 0x5ad8 <__udivmodsi4>
    13ba:	67 2b       	or	r22, r23
    13bc:	68 2b       	or	r22, r24
    13be:	69 2b       	or	r22, r25
    13c0:	51 f4       	brne	.+20     	; 0x13d6 <InitMemoryRead+0x13a>
    13c2:	2f ef       	ldi	r18, 0xFF	; 255
    13c4:	89 ef       	ldi	r24, 0xF9	; 249
    13c6:	90 e0       	ldi	r25, 0x00	; 0
    13c8:	21 50       	subi	r18, 0x01	; 1
    13ca:	80 40       	sbci	r24, 0x00	; 0
    13cc:	90 40       	sbci	r25, 0x00	; 0
    13ce:	e1 f7       	brne	.-8      	; 0x13c8 <InitMemoryRead+0x12c>
    13d0:	00 c0       	rjmp	.+0      	; 0x13d2 <InitMemoryRead+0x136>
    13d2:	00 00       	nop
    13d4:	06 c0       	rjmp	.+12     	; 0x13e2 <InitMemoryRead+0x146>
	#else
		//round up by default
		__ticks_dc = (uint32_t)(ceil(fabs(__tmp)));
	#endif

	__builtin_avr_delay_cycles(__ticks_dc);
    13d6:	ef e1       	ldi	r30, 0x1F	; 31
    13d8:	f3 e0       	ldi	r31, 0x03	; 3
    13da:	31 97       	sbiw	r30, 0x01	; 1
    13dc:	f1 f7       	brne	.-4      	; 0x13da <InitMemoryRead+0x13e>
    13de:	00 c0       	rjmp	.+0      	; 0x13e0 <InitMemoryRead+0x144>
    13e0:	00 00       	nop
        else _delay_us(100);
    } while((PORTE.IN & PIN0_bm) && (FFcnt < 100));
    13e2:	f8 01       	movw	r30, r16
    13e4:	80 85       	ldd	r24, Z+8	; 0x08
    13e6:	80 ff       	sbrs	r24, 0
    13e8:	03 c0       	rjmp	.+6      	; 0x13f0 <InitMemoryRead+0x154>
    13ea:	f3 e6       	ldi	r31, 0x63	; 99
    13ec:	f9 15       	cp	r31, r9
    13ee:	90 f6       	brcc	.-92     	; 0x1394 <InitMemoryRead+0xf8>
    SPI_CS(false);
    13f0:	80 e0       	ldi	r24, 0x00	; 0
    13f2:	b4 d3       	rcall	.+1896   	; 0x1b5c <SPI_CS>
    i = 0;
    while(buf2[i]) {
    13f4:	c9 55       	subi	r28, 0x59	; 89
    13f6:	df 4f       	sbci	r29, 0xFF	; 255
    13f8:	88 81       	ld	r24, Y
    13fa:	c7 5a       	subi	r28, 0xA7	; 167
    13fc:	d0 40       	sbci	r29, 0x00	; 0
    13fe:	88 23       	and	r24, r24
    1400:	79 f0       	breq	.+30     	; 0x1420 <InitMemoryRead+0x184>
    1402:	fe 01       	movw	r30, r28
    1404:	e8 55       	subi	r30, 0x58	; 88
    1406:	ff 4f       	sbci	r31, 0xFF	; 255
        XBEE_UART.DATA = buf2[i++];
    1408:	a0 ea       	ldi	r26, 0xA0	; 160
    140a:	b9 e0       	ldi	r27, 0x09	; 9
    140c:	8c 93       	st	X, r24
	#else
		//round up by default
		__ticks_dc = (uint32_t)(ceil(fabs(__tmp)));
	#endif

	__builtin_avr_delay_cycles(__ticks_dc);
    140e:	8f e3       	ldi	r24, 0x3F	; 63
    1410:	9f e1       	ldi	r25, 0x1F	; 31
    1412:	01 97       	sbiw	r24, 0x01	; 1
    1414:	f1 f7       	brne	.-4      	; 0x1412 <InitMemoryRead+0x176>
    1416:	00 c0       	rjmp	.+0      	; 0x1418 <InitMemoryRead+0x17c>
    1418:	00 00       	nop
        if((i % 100) == 0) _delay_ms(10);
        else _delay_us(100);
    } while((PORTE.IN & PIN0_bm) && (FFcnt < 100));
    SPI_CS(false);
    i = 0;
    while(buf2[i]) {
    141a:	81 91       	ld	r24, Z+
    141c:	81 11       	cpse	r24, r1
    141e:	f6 cf       	rjmp	.-20     	; 0x140c <InitMemoryRead+0x170>
        XBEE_UART.DATA = buf2[i++];
        _delay_ms(1);
    }
}
    1420:	c6 54       	subi	r28, 0x46	; 70
    1422:	df 4f       	sbci	r29, 0xFF	; 255
    1424:	cd bf       	out	0x3d, r28	; 61
    1426:	de bf       	out	0x3e, r29	; 62
    1428:	df 91       	pop	r29
    142a:	cf 91       	pop	r28
    142c:	1f 91       	pop	r17
    142e:	0f 91       	pop	r16
    1430:	ff 90       	pop	r15
    1432:	ef 90       	pop	r14
    1434:	df 90       	pop	r13
    1436:	cf 90       	pop	r12
    1438:	bf 90       	pop	r11
    143a:	af 90       	pop	r10
    143c:	9f 90       	pop	r9
    143e:	7f 90       	pop	r7
    1440:	6f 90       	pop	r6
    1442:	5f 90       	pop	r5
    1444:	4f 90       	pop	r4
    1446:	08 95       	ret

00001448 <WarmUp>:

void WarmUp() {
    //------Bluetooth bee init-----
    //_delay_ms(1000);
    BT_Start(&frame_d);
    1448:	84 e4       	ldi	r24, 0x44	; 68
    144a:	94 e2       	ldi	r25, 0x24	; 36
    144c:	02 dd       	rcall	.-1532   	; 0xe52 <BT_Start>
    USARTD0_TXC_vect();
    144e:	76 d9       	rcall	.-3348   	; 0x73c <__vector_90>
    //------Hello blink
    LED_PORT.OUTSET = LED2;
    1450:	e0 e0       	ldi	r30, 0x00	; 0
    1452:	f6 e0       	ldi	r31, 0x06	; 6
    1454:	88 e0       	ldi	r24, 0x08	; 8
    1456:	85 83       	std	Z+5, r24	; 0x05
    1458:	2f ef       	ldi	r18, 0xFF	; 255
    145a:	37 e8       	ldi	r19, 0x87	; 135
    145c:	93 e1       	ldi	r25, 0x13	; 19
    145e:	21 50       	subi	r18, 0x01	; 1
    1460:	30 40       	sbci	r19, 0x00	; 0
    1462:	90 40       	sbci	r25, 0x00	; 0
    1464:	e1 f7       	brne	.-8      	; 0x145e <WarmUp+0x16>
    1466:	00 c0       	rjmp	.+0      	; 0x1468 <WarmUp+0x20>
    1468:	00 00       	nop
    _delay_ms(200);
    LED_PORT.OUTCLR = LED2;
    146a:	86 83       	std	Z+6, r24	; 0x06
    146c:	2f ef       	ldi	r18, 0xFF	; 255
    146e:	33 ec       	ldi	r19, 0xC3	; 195
    1470:	99 e0       	ldi	r25, 0x09	; 9
    1472:	21 50       	subi	r18, 0x01	; 1
    1474:	30 40       	sbci	r19, 0x00	; 0
    1476:	90 40       	sbci	r25, 0x00	; 0
    1478:	e1 f7       	brne	.-8      	; 0x1472 <WarmUp+0x2a>
    147a:	00 c0       	rjmp	.+0      	; 0x147c <WarmUp+0x34>
    147c:	00 00       	nop
    _delay_ms(100);
    LED_PORT.OUTSET = LED2;
    147e:	85 83       	std	Z+5, r24	; 0x05
    1480:	2f ef       	ldi	r18, 0xFF	; 255
    1482:	37 e8       	ldi	r19, 0x87	; 135
    1484:	93 e1       	ldi	r25, 0x13	; 19
    1486:	21 50       	subi	r18, 0x01	; 1
    1488:	30 40       	sbci	r19, 0x00	; 0
    148a:	90 40       	sbci	r25, 0x00	; 0
    148c:	e1 f7       	brne	.-8      	; 0x1486 <WarmUp+0x3e>
    148e:	00 c0       	rjmp	.+0      	; 0x1490 <WarmUp+0x48>
    1490:	00 00       	nop
    _delay_ms(200);
    LED_PORT.OUTCLR = LED2;
    1492:	86 83       	std	Z+6, r24	; 0x06
    1494:	2f ef       	ldi	r18, 0xFF	; 255
    1496:	33 ec       	ldi	r19, 0xC3	; 195
    1498:	89 e0       	ldi	r24, 0x09	; 9
    149a:	21 50       	subi	r18, 0x01	; 1
    149c:	30 40       	sbci	r19, 0x00	; 0
    149e:	80 40       	sbci	r24, 0x00	; 0
    14a0:	e1 f7       	brne	.-8      	; 0x149a <WarmUp+0x52>
    14a2:	00 c0       	rjmp	.+0      	; 0x14a4 <WarmUp+0x5c>
    14a4:	00 00       	nop
    14a6:	08 95       	ret

000014a8 <WarmUpMemoryOperations>:
    _delay_ms(100);
}

void WarmUpMemoryOperations() {
    //----------------Kasowanie pamici Flash------------------------
    if((!(PORTE.IN & PIN0_bm)) && (!(PORTE.IN & PIN1_bm))) InitMemoryErase();
    14a8:	80 91 88 06 	lds	r24, 0x0688
    14ac:	80 fd       	sbrc	r24, 0
    14ae:	06 c0       	rjmp	.+12     	; 0x14bc <WarmUpMemoryOperations+0x14>
    14b0:	80 91 88 06 	lds	r24, 0x0688
    14b4:	81 fd       	sbrc	r24, 1
    14b6:	02 c0       	rjmp	.+4      	; 0x14bc <WarmUpMemoryOperations+0x14>
    14b8:	a8 ce       	rjmp	.-688    	; 0x120a <InitMemoryErase>
    14ba:	08 95       	ret
    //-----------------Odczyt z pamici i wysanie po Xbee-----------
    else if(!(PORTE.IN & PIN1_bm)) InitMemoryRead();
    14bc:	80 91 88 06 	lds	r24, 0x0688
    14c0:	81 ff       	sbrs	r24, 1
    14c2:	ec ce       	rjmp	.-552    	; 0x129c <InitMemoryRead>
    14c4:	08 95       	ret

000014c6 <DetectInitOrientation>:
}

bool DetectInitOrientation(allData_t * allData){
    14c6:	3f 92       	push	r3
    14c8:	4f 92       	push	r4
    14ca:	5f 92       	push	r5
    14cc:	6f 92       	push	r6
    14ce:	7f 92       	push	r7
    14d0:	8f 92       	push	r8
    14d2:	9f 92       	push	r9
    14d4:	af 92       	push	r10
    14d6:	bf 92       	push	r11
    14d8:	cf 92       	push	r12
    14da:	df 92       	push	r13
    14dc:	ef 92       	push	r14
    14de:	ff 92       	push	r15
    14e0:	0f 93       	push	r16
    14e2:	1f 93       	push	r17
    14e4:	cf 93       	push	r28
    14e6:	df 93       	push	r29
    14e8:	cd b7       	in	r28, 0x3d	; 61
    14ea:	de b7       	in	r29, 0x3e	; 62
    14ec:	60 97       	sbiw	r28, 0x10	; 16
    14ee:	cd bf       	out	0x3d, r28	; 61
    14f0:	de bf       	out	0x3e, r29	; 62
    14f2:	8c 01       	movw	r16, r24
	float abs_mean_accX = 0;
	float abs_mean_accY = 0;
	float abs_mean_accZ = 0;
	
	//----Attach local pointer to main data struct----------------------
	float * accX = &(allData->SensorsData->accel_x);
    14f4:	dc 01       	movw	r26, r24
    14f6:	1e 96       	adiw	r26, 0x0e	; 14
    14f8:	ed 90       	ld	r14, X+
    14fa:	fc 90       	ld	r15, X
    14fc:	1f 97       	sbiw	r26, 0x0f	; 15
    14fe:	0f 2e       	mov	r0, r31
    1500:	f4 e6       	ldi	r31, 0x64	; 100
    1502:	3f 2e       	mov	r3, r31
    1504:	f0 2d       	mov	r31, r0
	//napisa funkcj wykrywajc orientacj na starcie
	//----Local variable------------------------------------------------
	float accTotal = 0;
	float mean_accX = 0;
	float mean_accY = 0;
	float mean_accZ = 0;
    1506:	19 86       	std	Y+9, r1	; 0x09
    1508:	1a 86       	std	Y+10, r1	; 0x0a
    150a:	1b 86       	std	Y+11, r1	; 0x0b
    150c:	1c 86       	std	Y+12, r1	; 0x0c
bool DetectInitOrientation(allData_t * allData){
	//napisa funkcj wykrywajc orientacj na starcie
	//----Local variable------------------------------------------------
	float accTotal = 0;
	float mean_accX = 0;
	float mean_accY = 0;
    150e:	1d 82       	std	Y+5, r1	; 0x05
    1510:	1e 82       	std	Y+6, r1	; 0x06
    1512:	1f 82       	std	Y+7, r1	; 0x07
    1514:	18 86       	std	Y+8, r1	; 0x08

bool DetectInitOrientation(allData_t * allData){
	//napisa funkcj wykrywajc orientacj na starcie
	//----Local variable------------------------------------------------
	float accTotal = 0;
	float mean_accX = 0;
    1516:	19 82       	std	Y+1, r1	; 0x01
    1518:	1a 82       	std	Y+2, r1	; 0x02
    151a:	1b 82       	std	Y+3, r1	; 0x03
    151c:	1c 82       	std	Y+4, r1	; 0x04
    151e:	ed 86       	std	Y+13, r14	; 0x0d
    1520:	fe 86       	std	Y+14, r15	; 0x0e
	float * accY = &(allData->SensorsData->accel_y);
	float * accZ = &(allData->SensorsData->accel_z);
	
	//-------Update all sensors data and calculate mean from n sample----
	for(uint8_t i=0;i<100;i++){
		SensorUpdate(&allData_d);
    1522:	82 e9       	ldi	r24, 0x92	; 146
    1524:	97 e2       	ldi	r25, 0x27	; 39
    1526:	ad dc       	rcall	.-1702   	; 0xe82 <SensorUpdate>
		mean_accX += *accX;
    1528:	ed 85       	ldd	r30, Y+13	; 0x0d
    152a:	fe 85       	ldd	r31, Y+14	; 0x0e
    152c:	c0 80       	ld	r12, Z
    152e:	d1 80       	ldd	r13, Z+1	; 0x01
    1530:	e2 80       	ldd	r14, Z+2	; 0x02
    1532:	f3 80       	ldd	r15, Z+3	; 0x03
    1534:	a7 01       	movw	r20, r14
    1536:	96 01       	movw	r18, r12
    1538:	69 81       	ldd	r22, Y+1	; 0x01
    153a:	7a 81       	ldd	r23, Y+2	; 0x02
    153c:	8b 81       	ldd	r24, Y+3	; 0x03
    153e:	9c 81       	ldd	r25, Y+4	; 0x04
    1540:	0e 94 3d 29 	call	0x527a	; 0x527a <__addsf3>
    1544:	69 83       	std	Y+1, r22	; 0x01
    1546:	7a 83       	std	Y+2, r23	; 0x02
    1548:	8b 83       	std	Y+3, r24	; 0x03
    154a:	9c 83       	std	Y+4, r25	; 0x04
		mean_accY += *accY;
    154c:	ad 85       	ldd	r26, Y+13	; 0x0d
    154e:	be 85       	ldd	r27, Y+14	; 0x0e
    1550:	14 96       	adiw	r26, 0x04	; 4
    1552:	8d 90       	ld	r8, X+
    1554:	9d 90       	ld	r9, X+
    1556:	ad 90       	ld	r10, X+
    1558:	bc 90       	ld	r11, X
    155a:	17 97       	sbiw	r26, 0x07	; 7
    155c:	a5 01       	movw	r20, r10
    155e:	94 01       	movw	r18, r8
    1560:	6d 81       	ldd	r22, Y+5	; 0x05
    1562:	7e 81       	ldd	r23, Y+6	; 0x06
    1564:	8f 81       	ldd	r24, Y+7	; 0x07
    1566:	98 85       	ldd	r25, Y+8	; 0x08
    1568:	0e 94 3d 29 	call	0x527a	; 0x527a <__addsf3>
    156c:	6d 83       	std	Y+5, r22	; 0x05
    156e:	7e 83       	std	Y+6, r23	; 0x06
    1570:	8f 83       	std	Y+7, r24	; 0x07
    1572:	98 87       	std	Y+8, r25	; 0x08
		mean_accZ += *accZ;
    1574:	ed 85       	ldd	r30, Y+13	; 0x0d
    1576:	fe 85       	ldd	r31, Y+14	; 0x0e
    1578:	40 84       	ldd	r4, Z+8	; 0x08
    157a:	51 84       	ldd	r5, Z+9	; 0x09
    157c:	62 84       	ldd	r6, Z+10	; 0x0a
    157e:	73 84       	ldd	r7, Z+11	; 0x0b
    1580:	a3 01       	movw	r20, r6
    1582:	92 01       	movw	r18, r4
    1584:	69 85       	ldd	r22, Y+9	; 0x09
    1586:	7a 85       	ldd	r23, Y+10	; 0x0a
    1588:	8b 85       	ldd	r24, Y+11	; 0x0b
    158a:	9c 85       	ldd	r25, Y+12	; 0x0c
    158c:	0e 94 3d 29 	call	0x527a	; 0x527a <__addsf3>
    1590:	69 87       	std	Y+9, r22	; 0x09
    1592:	7a 87       	std	Y+10, r23	; 0x0a
    1594:	8b 87       	std	Y+11, r24	; 0x0b
    1596:	9c 87       	std	Y+12, r25	; 0x0c
    1598:	3a 94       	dec	r3
	float * accX = &(allData->SensorsData->accel_x);
	float * accY = &(allData->SensorsData->accel_y);
	float * accZ = &(allData->SensorsData->accel_z);
	
	//-------Update all sensors data and calculate mean from n sample----
	for(uint8_t i=0;i<100;i++){
    159a:	31 10       	cpse	r3, r1
    159c:	c2 cf       	rjmp	.-124    	; 0x1522 <DetectInitOrientation+0x5c>
    159e:	d3 01       	movw	r26, r6
    15a0:	c2 01       	movw	r24, r4
    15a2:	26 01       	movw	r4, r12
    15a4:	37 01       	movw	r6, r14
    15a6:	6c 01       	movw	r12, r24
    15a8:	7d 01       	movw	r14, r26
		mean_accZ += *accZ;
	}
	mean_accX /= 100.0;
	mean_accY /= 100.0;
	mean_accZ /= 100.0;
	accTotal = VectorLength3D(*accX, *accY, *accZ);
    15aa:	a3 01       	movw	r20, r6
    15ac:	92 01       	movw	r18, r4
    15ae:	c3 01       	movw	r24, r6
    15b0:	b2 01       	movw	r22, r4
    15b2:	0e 94 34 2b 	call	0x5668	; 0x5668 <__mulsf3>
    15b6:	6d 87       	std	Y+13, r22	; 0x0d
    15b8:	7e 87       	std	Y+14, r23	; 0x0e
    15ba:	8f 87       	std	Y+15, r24	; 0x0f
    15bc:	98 8b       	std	Y+16, r25	; 0x10
    15be:	a5 01       	movw	r20, r10
    15c0:	94 01       	movw	r18, r8
    15c2:	c5 01       	movw	r24, r10
    15c4:	b4 01       	movw	r22, r8
    15c6:	0e 94 34 2b 	call	0x5668	; 0x5668 <__mulsf3>
    15ca:	9b 01       	movw	r18, r22
    15cc:	ac 01       	movw	r20, r24
    15ce:	6d 85       	ldd	r22, Y+13	; 0x0d
    15d0:	7e 85       	ldd	r23, Y+14	; 0x0e
    15d2:	8f 85       	ldd	r24, Y+15	; 0x0f
    15d4:	98 89       	ldd	r25, Y+16	; 0x10
    15d6:	0e 94 3d 29 	call	0x527a	; 0x527a <__addsf3>
    15da:	6d 87       	std	Y+13, r22	; 0x0d
    15dc:	7e 87       	std	Y+14, r23	; 0x0e
    15de:	8f 87       	std	Y+15, r24	; 0x0f
    15e0:	98 8b       	std	Y+16, r25	; 0x10
    15e2:	a3 01       	movw	r20, r6
    15e4:	92 01       	movw	r18, r4
    15e6:	c3 01       	movw	r24, r6
    15e8:	b2 01       	movw	r22, r4
    15ea:	0e 94 34 2b 	call	0x5668	; 0x5668 <__mulsf3>
    15ee:	2b 01       	movw	r4, r22
    15f0:	3c 01       	movw	r6, r24
    15f2:	a5 01       	movw	r20, r10
    15f4:	94 01       	movw	r18, r8
    15f6:	c5 01       	movw	r24, r10
    15f8:	b4 01       	movw	r22, r8
    15fa:	0e 94 34 2b 	call	0x5668	; 0x5668 <__mulsf3>
    15fe:	9b 01       	movw	r18, r22
    1600:	ac 01       	movw	r20, r24
    1602:	c3 01       	movw	r24, r6
    1604:	b2 01       	movw	r22, r4
    1606:	0e 94 3d 29 	call	0x527a	; 0x527a <__addsf3>
    160a:	2b 01       	movw	r4, r22
    160c:	3c 01       	movw	r6, r24
    160e:	a7 01       	movw	r20, r14
    1610:	96 01       	movw	r18, r12
    1612:	c7 01       	movw	r24, r14
    1614:	b6 01       	movw	r22, r12
    1616:	0e 94 34 2b 	call	0x5668	; 0x5668 <__mulsf3>
    161a:	9b 01       	movw	r18, r22
    161c:	ac 01       	movw	r20, r24
    161e:	c3 01       	movw	r24, r6
    1620:	b2 01       	movw	r22, r4
    1622:	0e 94 3d 29 	call	0x527a	; 0x527a <__addsf3>
    1626:	0e 94 e7 2b 	call	0x57ce	; 0x57ce <sqrt>
	abs_mean_accX = fabs(mean_accX);
	abs_mean_accY = fabs(mean_accY);
	abs_mean_accZ = fabs(mean_accZ);
	
	//-------Check for errors---------------------------------------------
	if((abs(accTotal) < 0.9) || (abs(accTotal) > 1.1)) return 1;
    162a:	0e 94 0d 2a 	call	0x541a	; 0x541a <__fixsfsi>
    162e:	9b 01       	movw	r18, r22
    1630:	77 23       	and	r23, r23
    1632:	24 f4       	brge	.+8      	; 0x163c <DetectInitOrientation+0x176>
    1634:	22 27       	eor	r18, r18
    1636:	33 27       	eor	r19, r19
    1638:	26 1b       	sub	r18, r22
    163a:	37 0b       	sbc	r19, r23
    163c:	b9 01       	movw	r22, r18
    163e:	33 0f       	add	r19, r19
    1640:	88 0b       	sbc	r24, r24
    1642:	99 0b       	sbc	r25, r25
    1644:	0e 94 40 2a 	call	0x5480	; 0x5480 <__floatsisf>
    1648:	2b 01       	movw	r4, r22
    164a:	3c 01       	movw	r6, r24
    164c:	26 e6       	ldi	r18, 0x66	; 102
    164e:	36 e6       	ldi	r19, 0x66	; 102
    1650:	46 e6       	ldi	r20, 0x66	; 102
    1652:	5f e3       	ldi	r21, 0x3F	; 63
    1654:	0e 94 a1 29 	call	0x5342	; 0x5342 <__cmpsf2>
    1658:	88 23       	and	r24, r24
    165a:	0c f4       	brge	.+2      	; 0x165e <DetectInitOrientation+0x198>
    165c:	be c0       	rjmp	.+380    	; 0x17da <DetectInitOrientation+0x314>
    165e:	2d ec       	ldi	r18, 0xCD	; 205
    1660:	3c ec       	ldi	r19, 0xCC	; 204
    1662:	4c e8       	ldi	r20, 0x8C	; 140
    1664:	5f e3       	ldi	r21, 0x3F	; 63
    1666:	c3 01       	movw	r24, r6
    1668:	b2 01       	movw	r22, r4
    166a:	0e 94 30 2b 	call	0x5660	; 0x5660 <__gesf2>
    166e:	18 16       	cp	r1, r24
    1670:	0c f4       	brge	.+2      	; 0x1674 <DetectInitOrientation+0x1ae>
    1672:	b5 c0       	rjmp	.+362    	; 0x17de <DetectInitOrientation+0x318>
		SensorUpdate(&allData_d);
		mean_accX += *accX;
		mean_accY += *accY;
		mean_accZ += *accZ;
	}
	mean_accX /= 100.0;
    1674:	20 e0       	ldi	r18, 0x00	; 0
    1676:	30 e0       	ldi	r19, 0x00	; 0
    1678:	48 ec       	ldi	r20, 0xC8	; 200
    167a:	52 e4       	ldi	r21, 0x42	; 66
    167c:	69 81       	ldd	r22, Y+1	; 0x01
    167e:	7a 81       	ldd	r23, Y+2	; 0x02
    1680:	8b 81       	ldd	r24, Y+3	; 0x03
    1682:	9c 81       	ldd	r25, Y+4	; 0x04
    1684:	0e 94 a5 29 	call	0x534a	; 0x534a <__divsf3>
    1688:	69 83       	std	Y+1, r22	; 0x01
    168a:	7a 83       	std	Y+2, r23	; 0x02
    168c:	8b 83       	std	Y+3, r24	; 0x03
    168e:	9c 83       	std	Y+4, r25	; 0x04
	mean_accY /= 100.0;
    1690:	20 e0       	ldi	r18, 0x00	; 0
    1692:	30 e0       	ldi	r19, 0x00	; 0
    1694:	48 ec       	ldi	r20, 0xC8	; 200
    1696:	52 e4       	ldi	r21, 0x42	; 66
    1698:	6d 81       	ldd	r22, Y+5	; 0x05
    169a:	7e 81       	ldd	r23, Y+6	; 0x06
    169c:	8f 81       	ldd	r24, Y+7	; 0x07
    169e:	98 85       	ldd	r25, Y+8	; 0x08
    16a0:	0e 94 a5 29 	call	0x534a	; 0x534a <__divsf3>
    16a4:	6d 83       	std	Y+5, r22	; 0x05
    16a6:	7e 83       	std	Y+6, r23	; 0x06
    16a8:	8f 83       	std	Y+7, r24	; 0x07
    16aa:	98 87       	std	Y+8, r25	; 0x08
	mean_accZ /= 100.0;
    16ac:	20 e0       	ldi	r18, 0x00	; 0
    16ae:	30 e0       	ldi	r19, 0x00	; 0
    16b0:	48 ec       	ldi	r20, 0xC8	; 200
    16b2:	52 e4       	ldi	r21, 0x42	; 66
    16b4:	69 85       	ldd	r22, Y+9	; 0x09
    16b6:	7a 85       	ldd	r23, Y+10	; 0x0a
    16b8:	8b 85       	ldd	r24, Y+11	; 0x0b
    16ba:	9c 85       	ldd	r25, Y+12	; 0x0c
    16bc:	0e 94 a5 29 	call	0x534a	; 0x534a <__divsf3>
    16c0:	69 87       	std	Y+9, r22	; 0x09
    16c2:	7a 87       	std	Y+10, r23	; 0x0a
    16c4:	8b 87       	std	Y+11, r24	; 0x0b
    16c6:	9c 87       	std	Y+12, r25	; 0x0c
	accTotal = VectorLength3D(*accX, *accY, *accZ);
	abs_mean_accX = fabs(mean_accX);
    16c8:	49 80       	ldd	r4, Y+1	; 0x01
    16ca:	5a 80       	ldd	r5, Y+2	; 0x02
    16cc:	6b 80       	ldd	r6, Y+3	; 0x03
    16ce:	7c 80       	ldd	r7, Y+4	; 0x04
    16d0:	e8 94       	clt
    16d2:	77 f8       	bld	r7, 7
	abs_mean_accY = fabs(mean_accY);
    16d4:	8d 80       	ldd	r8, Y+5	; 0x05
    16d6:	9e 80       	ldd	r9, Y+6	; 0x06
    16d8:	af 80       	ldd	r10, Y+7	; 0x07
    16da:	b8 84       	ldd	r11, Y+8	; 0x08
    16dc:	e8 94       	clt
    16de:	b7 f8       	bld	r11, 7
	abs_mean_accZ = fabs(mean_accZ);
    16e0:	6b 01       	movw	r12, r22
    16e2:	7c 01       	movw	r14, r24
    16e4:	e8 94       	clt
    16e6:	f7 f8       	bld	r15, 7
	
	//-------Check for errors---------------------------------------------
	if((abs(accTotal) < 0.9) || (abs(accTotal) > 1.1)) return 1;
	
	//-------Determine main orientation-----------------------------------
	if((abs_mean_accX > abs_mean_accY) && (abs_mean_accX > abs_mean_accZ)) allData->boardOrient->config = 1;		//X axis = main
    16e8:	a5 01       	movw	r20, r10
    16ea:	94 01       	movw	r18, r8
    16ec:	c3 01       	movw	r24, r6
    16ee:	b2 01       	movw	r22, r4
    16f0:	0e 94 30 2b 	call	0x5660	; 0x5660 <__gesf2>
    16f4:	18 16       	cp	r1, r24
    16f6:	84 f4       	brge	.+32     	; 0x1718 <DetectInitOrientation+0x252>
    16f8:	a7 01       	movw	r20, r14
    16fa:	96 01       	movw	r18, r12
    16fc:	c3 01       	movw	r24, r6
    16fe:	b2 01       	movw	r22, r4
    1700:	0e 94 30 2b 	call	0x5660	; 0x5660 <__gesf2>
    1704:	18 16       	cp	r1, r24
    1706:	44 f4       	brge	.+16     	; 0x1718 <DetectInitOrientation+0x252>
    1708:	d8 01       	movw	r26, r16
    170a:	54 96       	adiw	r26, 0x14	; 20
    170c:	ed 91       	ld	r30, X+
    170e:	fc 91       	ld	r31, X
    1710:	55 97       	sbiw	r26, 0x15	; 21
    1712:	81 e0       	ldi	r24, 0x01	; 1
    1714:	80 83       	st	Z, r24
    1716:	1f c0       	rjmp	.+62     	; 0x1756 <DetectInitOrientation+0x290>
	else if((abs_mean_accY > abs_mean_accX) && (abs_mean_accY > abs_mean_accZ)) allData->boardOrient->config = 2;	//Y axis = main
    1718:	a5 01       	movw	r20, r10
    171a:	94 01       	movw	r18, r8
    171c:	c3 01       	movw	r24, r6
    171e:	b2 01       	movw	r22, r4
    1720:	0e 94 a1 29 	call	0x5342	; 0x5342 <__cmpsf2>
    1724:	88 23       	and	r24, r24
    1726:	84 f4       	brge	.+32     	; 0x1748 <DetectInitOrientation+0x282>
    1728:	a7 01       	movw	r20, r14
    172a:	96 01       	movw	r18, r12
    172c:	c5 01       	movw	r24, r10
    172e:	b4 01       	movw	r22, r8
    1730:	0e 94 30 2b 	call	0x5660	; 0x5660 <__gesf2>
    1734:	18 16       	cp	r1, r24
    1736:	44 f4       	brge	.+16     	; 0x1748 <DetectInitOrientation+0x282>
    1738:	d8 01       	movw	r26, r16
    173a:	54 96       	adiw	r26, 0x14	; 20
    173c:	ed 91       	ld	r30, X+
    173e:	fc 91       	ld	r31, X
    1740:	55 97       	sbiw	r26, 0x15	; 21
    1742:	82 e0       	ldi	r24, 0x02	; 2
    1744:	80 83       	st	Z, r24
    1746:	07 c0       	rjmp	.+14     	; 0x1756 <DetectInitOrientation+0x290>
	else allData->boardOrient->config = 3;																			//Z axis = main
    1748:	d8 01       	movw	r26, r16
    174a:	54 96       	adiw	r26, 0x14	; 20
    174c:	ed 91       	ld	r30, X+
    174e:	fc 91       	ld	r31, X
    1750:	55 97       	sbiw	r26, 0x15	; 21
    1752:	83 e0       	ldi	r24, 0x03	; 3
    1754:	80 83       	st	Z, r24
	
	switch(allData->boardOrient->config){
    1756:	f8 01       	movw	r30, r16
    1758:	04 89       	ldd	r16, Z+20	; 0x14
    175a:	15 89       	ldd	r17, Z+21	; 0x15
    175c:	d8 01       	movw	r26, r16
    175e:	8c 91       	ld	r24, X
    1760:	82 30       	cpi	r24, 0x02	; 2
    1762:	99 f0       	breq	.+38     	; 0x178a <DetectInitOrientation+0x2c4>
    1764:	83 30       	cpi	r24, 0x03	; 3
    1766:	09 f1       	breq	.+66     	; 0x17aa <DetectInitOrientation+0x2e4>
    1768:	81 30       	cpi	r24, 0x01	; 1
    176a:	69 f5       	brne	.+90     	; 0x17c6 <DetectInitOrientation+0x300>
		case 1: if(mean_accX < 0) allData->boardOrient->invert = true; break;
    176c:	20 e0       	ldi	r18, 0x00	; 0
    176e:	30 e0       	ldi	r19, 0x00	; 0
    1770:	a9 01       	movw	r20, r18
    1772:	69 81       	ldd	r22, Y+1	; 0x01
    1774:	7a 81       	ldd	r23, Y+2	; 0x02
    1776:	8b 81       	ldd	r24, Y+3	; 0x03
    1778:	9c 81       	ldd	r25, Y+4	; 0x04
    177a:	0e 94 a1 29 	call	0x5342	; 0x5342 <__cmpsf2>
    177e:	88 23       	and	r24, r24
    1780:	14 f5       	brge	.+68     	; 0x17c6 <DetectInitOrientation+0x300>
    1782:	81 e0       	ldi	r24, 0x01	; 1
    1784:	f8 01       	movw	r30, r16
    1786:	81 83       	std	Z+1, r24	; 0x01
    1788:	1e c0       	rjmp	.+60     	; 0x17c6 <DetectInitOrientation+0x300>
		case 2: if(mean_accY < 0) allData->boardOrient->invert = true; break;
    178a:	20 e0       	ldi	r18, 0x00	; 0
    178c:	30 e0       	ldi	r19, 0x00	; 0
    178e:	a9 01       	movw	r20, r18
    1790:	6d 81       	ldd	r22, Y+5	; 0x05
    1792:	7e 81       	ldd	r23, Y+6	; 0x06
    1794:	8f 81       	ldd	r24, Y+7	; 0x07
    1796:	98 85       	ldd	r25, Y+8	; 0x08
    1798:	0e 94 a1 29 	call	0x5342	; 0x5342 <__cmpsf2>
    179c:	88 23       	and	r24, r24
    179e:	9c f4       	brge	.+38     	; 0x17c6 <DetectInitOrientation+0x300>
    17a0:	81 e0       	ldi	r24, 0x01	; 1
    17a2:	d8 01       	movw	r26, r16
    17a4:	11 96       	adiw	r26, 0x01	; 1
    17a6:	8c 93       	st	X, r24
    17a8:	0e c0       	rjmp	.+28     	; 0x17c6 <DetectInitOrientation+0x300>
		case 3: if(mean_accZ < 0) allData->boardOrient->invert = true; break;
    17aa:	20 e0       	ldi	r18, 0x00	; 0
    17ac:	30 e0       	ldi	r19, 0x00	; 0
    17ae:	a9 01       	movw	r20, r18
    17b0:	69 85       	ldd	r22, Y+9	; 0x09
    17b2:	7a 85       	ldd	r23, Y+10	; 0x0a
    17b4:	8b 85       	ldd	r24, Y+11	; 0x0b
    17b6:	9c 85       	ldd	r25, Y+12	; 0x0c
    17b8:	0e 94 a1 29 	call	0x5342	; 0x5342 <__cmpsf2>
    17bc:	88 23       	and	r24, r24
    17be:	1c f4       	brge	.+6      	; 0x17c6 <DetectInitOrientation+0x300>
    17c0:	81 e0       	ldi	r24, 0x01	; 1
    17c2:	f8 01       	movw	r30, r16
    17c4:	81 83       	std	Z+1, r24	; 0x01
	}
	
	//-------Calculate launchpad angle------------------------------------
	MinAngleVector3D(abs_mean_accX, abs_mean_accY, abs_mean_accZ);
    17c6:	87 01       	movw	r16, r14
    17c8:	76 01       	movw	r14, r12
    17ca:	a5 01       	movw	r20, r10
    17cc:	94 01       	movw	r18, r8
    17ce:	c3 01       	movw	r24, r6
    17d0:	b2 01       	movw	r22, r4
    17d2:	0e 94 25 28 	call	0x504a	; 0x504a <MinAngleVector3D>
	return 0;
    17d6:	80 e0       	ldi	r24, 0x00	; 0
    17d8:	03 c0       	rjmp	.+6      	; 0x17e0 <DetectInitOrientation+0x31a>
	abs_mean_accX = fabs(mean_accX);
	abs_mean_accY = fabs(mean_accY);
	abs_mean_accZ = fabs(mean_accZ);
	
	//-------Check for errors---------------------------------------------
	if((abs(accTotal) < 0.9) || (abs(accTotal) > 1.1)) return 1;
    17da:	81 e0       	ldi	r24, 0x01	; 1
    17dc:	01 c0       	rjmp	.+2      	; 0x17e0 <DetectInitOrientation+0x31a>
    17de:	81 e0       	ldi	r24, 0x01	; 1
	}
	
	//-------Calculate launchpad angle------------------------------------
	MinAngleVector3D(abs_mean_accX, abs_mean_accY, abs_mean_accZ);
	return 0;
}
    17e0:	60 96       	adiw	r28, 0x10	; 16
    17e2:	cd bf       	out	0x3d, r28	; 61
    17e4:	de bf       	out	0x3e, r29	; 62
    17e6:	df 91       	pop	r29
    17e8:	cf 91       	pop	r28
    17ea:	1f 91       	pop	r17
    17ec:	0f 91       	pop	r16
    17ee:	ff 90       	pop	r15
    17f0:	ef 90       	pop	r14
    17f2:	df 90       	pop	r13
    17f4:	cf 90       	pop	r12
    17f6:	bf 90       	pop	r11
    17f8:	af 90       	pop	r10
    17fa:	9f 90       	pop	r9
    17fc:	8f 90       	pop	r8
    17fe:	7f 90       	pop	r7
    1800:	6f 90       	pop	r6
    1802:	5f 90       	pop	r5
    1804:	4f 90       	pop	r4
    1806:	3f 90       	pop	r3
    1808:	08 95       	ret

0000180a <SensorDataFusion>:

void SensorDataFusion(allData_t * allData){
    180a:	2f 92       	push	r2
    180c:	3f 92       	push	r3
    180e:	4f 92       	push	r4
    1810:	5f 92       	push	r5
    1812:	6f 92       	push	r6
    1814:	7f 92       	push	r7
    1816:	8f 92       	push	r8
    1818:	9f 92       	push	r9
    181a:	af 92       	push	r10
    181c:	bf 92       	push	r11
    181e:	cf 92       	push	r12
    1820:	df 92       	push	r13
    1822:	ef 92       	push	r14
    1824:	ff 92       	push	r15
    1826:	0f 93       	push	r16
    1828:	1f 93       	push	r17
    182a:	cf 93       	push	r28
    182c:	df 93       	push	r29
    182e:	fc 01       	movw	r30, r24
	float LIS331HH_accel_x;
	float LIS331HH_accel_y;
	float LIS331HH_accel_z;
	
	//--------Sensor data router------------------------------------
	switch(allData->boardOrient->config){
    1830:	24 88       	ldd	r2, Z+20	; 0x14
    1832:	35 88       	ldd	r3, Z+21	; 0x15
    1834:	d1 01       	movw	r26, r2
    1836:	8c 91       	ld	r24, X
    1838:	82 30       	cpi	r24, 0x02	; 2
    183a:	e9 f0       	breq	.+58     	; 0x1876 <SensorDataFusion+0x6c>
    183c:	83 30       	cpi	r24, 0x03	; 3
    183e:	b1 f1       	breq	.+108    	; 0x18ac <SensorDataFusion+0xa2>
		case 1:	//-----X sensor = main axis
		default:
		MPU9150_accel_x = allData->MPU9150->accel_x;
    1840:	c0 81       	ld	r28, Z
    1842:	d1 81       	ldd	r29, Z+1	; 0x01
    1844:	4c 89       	ldd	r20, Y+20	; 0x14
    1846:	5d 89       	ldd	r21, Y+21	; 0x15
    1848:	6e 89       	ldd	r22, Y+22	; 0x16
    184a:	7f 89       	ldd	r23, Y+23	; 0x17
		MPU9150_accel_y = allData->MPU9150->accel_y;
    184c:	c8 8c       	ldd	r12, Y+24	; 0x18
    184e:	d9 8c       	ldd	r13, Y+25	; 0x19
    1850:	ea 8c       	ldd	r14, Y+26	; 0x1a
    1852:	fb 8c       	ldd	r15, Y+27	; 0x1b
		MPU9150_accel_z = allData->MPU9150->accel_z;
    1854:	0c 8d       	ldd	r16, Y+28	; 0x1c
    1856:	1d 8d       	ldd	r17, Y+29	; 0x1d
    1858:	2e 8d       	ldd	r18, Y+30	; 0x1e
    185a:	3f 8d       	ldd	r19, Y+31	; 0x1f
		MPU9150_gyro_x = allData->MPU9150->gyro_x;
    185c:	8c a1       	ldd	r24, Y+36	; 0x24
    185e:	9d a1       	ldd	r25, Y+37	; 0x25
    1860:	ae a1       	ldd	r26, Y+38	; 0x26
    1862:	bf a1       	ldd	r27, Y+39	; 0x27
		MPU9150_gyro_y = allData->MPU9150->gyro_y;
    1864:	88 a4       	ldd	r8, Y+40	; 0x28
    1866:	99 a4       	ldd	r9, Y+41	; 0x29
    1868:	aa a4       	ldd	r10, Y+42	; 0x2a
    186a:	bb a4       	ldd	r11, Y+43	; 0x2b
		MPU9150_gyro_z = allData->MPU9150->gyro_z;
    186c:	4c a4       	ldd	r4, Y+44	; 0x2c
    186e:	5d a4       	ldd	r5, Y+45	; 0x2d
    1870:	6e a4       	ldd	r6, Y+46	; 0x2e
    1872:	7f a4       	ldd	r7, Y+47	; 0x2f
		LSM9DS0_gyro_y = allData->LSM9DS0->gyro_y;
		LSM9DS0_gyro_z = allData->LSM9DS0->gyro_z;
		LIS331HH_accel_x = allData->LIS331HH->accel_x;
		LIS331HH_accel_y = allData->LIS331HH->accel_y;
		LIS331HH_accel_z = allData->LIS331HH->accel_z;
		break;
    1874:	35 c0       	rjmp	.+106    	; 0x18e0 <SensorDataFusion+0xd6>
		case 2: //-----Y sensor = main axis
		MPU9150_accel_x = allData->MPU9150->accel_y;
    1876:	c0 81       	ld	r28, Z
    1878:	d1 81       	ldd	r29, Z+1	; 0x01
    187a:	48 8d       	ldd	r20, Y+24	; 0x18
    187c:	59 8d       	ldd	r21, Y+25	; 0x19
    187e:	6a 8d       	ldd	r22, Y+26	; 0x1a
    1880:	7b 8d       	ldd	r23, Y+27	; 0x1b
		MPU9150_accel_y = allData->MPU9150->accel_x;
    1882:	cc 88       	ldd	r12, Y+20	; 0x14
    1884:	dd 88       	ldd	r13, Y+21	; 0x15
    1886:	ee 88       	ldd	r14, Y+22	; 0x16
    1888:	ff 88       	ldd	r15, Y+23	; 0x17
		MPU9150_accel_z = allData->MPU9150->accel_z;
    188a:	0c 8d       	ldd	r16, Y+28	; 0x1c
    188c:	1d 8d       	ldd	r17, Y+29	; 0x1d
    188e:	2e 8d       	ldd	r18, Y+30	; 0x1e
    1890:	3f 8d       	ldd	r19, Y+31	; 0x1f
		MPU9150_gyro_x = allData->MPU9150->gyro_y;
    1892:	88 a5       	ldd	r24, Y+40	; 0x28
    1894:	99 a5       	ldd	r25, Y+41	; 0x29
    1896:	aa a5       	ldd	r26, Y+42	; 0x2a
    1898:	bb a5       	ldd	r27, Y+43	; 0x2b
		MPU9150_gyro_y = allData->MPU9150->gyro_x;
    189a:	8c a0       	ldd	r8, Y+36	; 0x24
    189c:	9d a0       	ldd	r9, Y+37	; 0x25
    189e:	ae a0       	ldd	r10, Y+38	; 0x26
    18a0:	bf a0       	ldd	r11, Y+39	; 0x27
		MPU9150_gyro_z = allData->MPU9150->gyro_z;
    18a2:	4c a4       	ldd	r4, Y+44	; 0x2c
    18a4:	5d a4       	ldd	r5, Y+45	; 0x2d
    18a6:	6e a4       	ldd	r6, Y+46	; 0x2e
    18a8:	7f a4       	ldd	r7, Y+47	; 0x2f
		LSM9DS0_gyro_y = allData->LSM9DS0->gyro_x;
		LSM9DS0_gyro_z = allData->LSM9DS0->gyro_z;
		LIS331HH_accel_x = allData->LIS331HH->accel_y;
		LIS331HH_accel_y = allData->LIS331HH->accel_x;
		LIS331HH_accel_z = allData->LIS331HH->accel_z;
		break;
    18aa:	1a c0       	rjmp	.+52     	; 0x18e0 <SensorDataFusion+0xd6>
		case 3: //-----Z sensor = main axis
		MPU9150_accel_x = allData->MPU9150->accel_z;
    18ac:	c0 81       	ld	r28, Z
    18ae:	d1 81       	ldd	r29, Z+1	; 0x01
    18b0:	4c 8d       	ldd	r20, Y+28	; 0x1c
    18b2:	5d 8d       	ldd	r21, Y+29	; 0x1d
    18b4:	6e 8d       	ldd	r22, Y+30	; 0x1e
    18b6:	7f 8d       	ldd	r23, Y+31	; 0x1f
		MPU9150_accel_y = allData->MPU9150->accel_y;
    18b8:	c8 8c       	ldd	r12, Y+24	; 0x18
    18ba:	d9 8c       	ldd	r13, Y+25	; 0x19
    18bc:	ea 8c       	ldd	r14, Y+26	; 0x1a
    18be:	fb 8c       	ldd	r15, Y+27	; 0x1b
		MPU9150_accel_z = allData->MPU9150->accel_x;
    18c0:	0c 89       	ldd	r16, Y+20	; 0x14
    18c2:	1d 89       	ldd	r17, Y+21	; 0x15
    18c4:	2e 89       	ldd	r18, Y+22	; 0x16
    18c6:	3f 89       	ldd	r19, Y+23	; 0x17
		MPU9150_gyro_x = allData->MPU9150->gyro_z;
    18c8:	8c a5       	ldd	r24, Y+44	; 0x2c
    18ca:	9d a5       	ldd	r25, Y+45	; 0x2d
    18cc:	ae a5       	ldd	r26, Y+46	; 0x2e
    18ce:	bf a5       	ldd	r27, Y+47	; 0x2f
		MPU9150_gyro_y = allData->MPU9150->gyro_y;
    18d0:	88 a4       	ldd	r8, Y+40	; 0x28
    18d2:	99 a4       	ldd	r9, Y+41	; 0x29
    18d4:	aa a4       	ldd	r10, Y+42	; 0x2a
    18d6:	bb a4       	ldd	r11, Y+43	; 0x2b
		MPU9150_gyro_z = allData->MPU9150->gyro_x;
    18d8:	4c a0       	ldd	r4, Y+36	; 0x24
    18da:	5d a0       	ldd	r5, Y+37	; 0x25
    18dc:	6e a0       	ldd	r6, Y+38	; 0x26
    18de:	7f a0       	ldd	r7, Y+39	; 0x27
		LIS331HH_accel_y = allData->LIS331HH->accel_y;
		LIS331HH_accel_z = allData->LIS331HH->accel_x;
		break;
	}
	// Rotate vector if up side down
	if(allData->boardOrient->invert){
    18e0:	e1 01       	movw	r28, r2
    18e2:	39 80       	ldd	r3, Y+1	; 0x01
    18e4:	33 20       	and	r3, r3
    18e6:	11 f0       	breq	.+4      	; 0x18ec <SensorDataFusion+0xe2>
		MPU9150_accel_x = -MPU9150_accel_x;
    18e8:	70 58       	subi	r23, 0x80	; 128
		MPU9150_gyro_x = -MPU9150_gyro_x;
    18ea:	b0 58       	subi	r27, 0x80	; 128
	}
	//-----Sensor fusion---------------------------------------
	// Tu bd dzia si czary
	// Tymczsowo zwyke przepisanie zmiennych
	allData->SensorsData->accel_x = MPU9150_accel_x;
    18ec:	c6 85       	ldd	r28, Z+14	; 0x0e
    18ee:	d7 85       	ldd	r29, Z+15	; 0x0f
    18f0:	48 83       	st	Y, r20
    18f2:	59 83       	std	Y+1, r21	; 0x01
    18f4:	6a 83       	std	Y+2, r22	; 0x02
    18f6:	7b 83       	std	Y+3, r23	; 0x03
	allData->SensorsData->accel_y = MPU9150_accel_y;
    18f8:	c6 85       	ldd	r28, Z+14	; 0x0e
    18fa:	d7 85       	ldd	r29, Z+15	; 0x0f
    18fc:	cc 82       	std	Y+4, r12	; 0x04
    18fe:	dd 82       	std	Y+5, r13	; 0x05
    1900:	ee 82       	std	Y+6, r14	; 0x06
    1902:	ff 82       	std	Y+7, r15	; 0x07
	allData->SensorsData->accel_z = MPU9150_accel_z;
    1904:	c6 85       	ldd	r28, Z+14	; 0x0e
    1906:	d7 85       	ldd	r29, Z+15	; 0x0f
    1908:	08 87       	std	Y+8, r16	; 0x08
    190a:	19 87       	std	Y+9, r17	; 0x09
    190c:	2a 87       	std	Y+10, r18	; 0x0a
    190e:	3b 87       	std	Y+11, r19	; 0x0b
	allData->SensorsData->gyro_x = MPU9150_gyro_x;
    1910:	c6 85       	ldd	r28, Z+14	; 0x0e
    1912:	d7 85       	ldd	r29, Z+15	; 0x0f
    1914:	88 8f       	std	Y+24, r24	; 0x18
    1916:	99 8f       	std	Y+25, r25	; 0x19
    1918:	aa 8f       	std	Y+26, r26	; 0x1a
    191a:	bb 8f       	std	Y+27, r27	; 0x1b
	allData->SensorsData->gyro_y = MPU9150_gyro_y;
    191c:	a6 85       	ldd	r26, Z+14	; 0x0e
    191e:	b7 85       	ldd	r27, Z+15	; 0x0f
    1920:	5c 96       	adiw	r26, 0x1c	; 28
    1922:	8d 92       	st	X+, r8
    1924:	9d 92       	st	X+, r9
    1926:	ad 92       	st	X+, r10
    1928:	bc 92       	st	X, r11
    192a:	5f 97       	sbiw	r26, 0x1f	; 31
	allData->SensorsData->gyro_z = MPU9150_gyro_z;
    192c:	06 84       	ldd	r0, Z+14	; 0x0e
    192e:	f7 85       	ldd	r31, Z+15	; 0x0f
    1930:	e0 2d       	mov	r30, r0
    1932:	40 a2       	std	Z+32, r4	; 0x20
    1934:	51 a2       	std	Z+33, r5	; 0x21
    1936:	62 a2       	std	Z+34, r6	; 0x22
    1938:	73 a2       	std	Z+35, r7	; 0x23
}
    193a:	df 91       	pop	r29
    193c:	cf 91       	pop	r28
    193e:	1f 91       	pop	r17
    1940:	0f 91       	pop	r16
    1942:	ff 90       	pop	r15
    1944:	ef 90       	pop	r14
    1946:	df 90       	pop	r13
    1948:	cf 90       	pop	r12
    194a:	bf 90       	pop	r11
    194c:	af 90       	pop	r10
    194e:	9f 90       	pop	r9
    1950:	8f 90       	pop	r8
    1952:	7f 90       	pop	r7
    1954:	6f 90       	pop	r6
    1956:	5f 90       	pop	r5
    1958:	4f 90       	pop	r4
    195a:	3f 90       	pop	r3
    195c:	2f 90       	pop	r2
    195e:	08 95       	ret

00001960 <CalibrationStart>:

void CalibrationStart() {
    Calibration_d.counter = 0;
    1960:	ec ed       	ldi	r30, 0xDC	; 220
    1962:	f0 e2       	ldi	r31, 0x20	; 32
    1964:	10 a2       	std	Z+32, r1	; 0x20
    1966:	11 a2       	std	Z+33, r1	; 0x21
    Calibration_d.trigger = true;		//zdalna kalibracja czujnikw
    1968:	81 e0       	ldi	r24, 0x01	; 1
    196a:	82 a3       	std	Z+34, r24	; 0x22
    stan_d.callibration = true;
    196c:	80 93 cc 26 	sts	0x26CC, r24
    1970:	08 95       	ret

00001972 <main>:
}

int main(void) {
    //_delay_ms(10);	//160ms przy 2MHZ na starcie
    //sprawdznie poprawnoci danych w strukturze
    stan_d.flash_trigger = STARTUP_flash;
    1972:	e9 ec       	ldi	r30, 0xC9	; 201
    1974:	f6 e2       	ldi	r31, 0x26	; 38
    1976:	15 82       	std	Z+5, r1	; 0x05
    stan_d.telemetry_trigger = STARTUP_tele;
    1978:	81 e0       	ldi	r24, 0x01	; 1
    197a:	84 83       	std	Z+4, r24	; 0x04
    frame_d.terminate = false;
    197c:	10 92 9f 26 	sts	0x269F, r1
    Initialization();
    1980:	16 dc       	rcall	.-2004   	; 0x11ae <Initialization>
	DetectInitOrientation(&allData_d);	//detect orientation and angle
    1982:	82 e9       	ldi	r24, 0x92	; 146
    1984:	97 e2       	ldi	r25, 0x27	; 39
    1986:	9f dd       	rcall	.-1218   	; 0x14c6 <DetectInitOrientation>
    sei();
    1988:	78 94       	sei
    WarmUp();					//inicjalizacja BT i odmiganie startu
    198a:	5e dd       	rcall	.-1348   	; 0x1448 <WarmUp>
    WarmUpMemoryOperations();	//odczyt lub kasowanie pamici
    198c:	8d dd       	rcall	.-1254   	; 0x14a8 <WarmUpMemoryOperations>
    CalibrationStart();			//autocalibration
    198e:	e8 df       	rcall	.-48     	; 0x1960 <CalibrationStart>
	
    while(1) {
        _delay_us(1);
        if(stan_d.new_data == true) {
    1990:	c9 ec       	ldi	r28, 0xC9	; 201
    1992:	d6 e2       	ldi	r29, 0x26	; 38
            StateUpdate();
            //----------------Prepare frame---------
            prepareFrame(&allData_d);
            if(stan_d.flash_trigger){
				SPI_WriteFrame(&SPIaddress, 400, &frame_b);
				if(RTC_d.frameFlashCount < 999999UL) RTC_d.frameFlashCount++;
    1994:	0f 2e       	mov	r0, r31
    1996:	f4 e8       	ldi	r31, 0x84	; 132
    1998:	af 2e       	mov	r10, r31
    199a:	f7 e2       	ldi	r31, 0x27	; 39
    199c:	bf 2e       	mov	r11, r31
    199e:	f0 2d       	mov	r31, r0
				else RTC_d.frameFlashCount = 0;
			}
            if(!(frame_d.mutex)) frame_d = frame_b;							//jeli frame_d nie zablokowane -> przepisz z bufora
    19a0:	0f 2e       	mov	r0, r31
    19a2:	fe e9       	ldi	r31, 0x9E	; 158
    19a4:	cf 2e       	mov	r12, r31
    19a6:	f6 e2       	ldi	r31, 0x26	; 38
    19a8:	df 2e       	mov	r13, r31
    19aa:	f0 2d       	mov	r31, r0
    19ac:	0f 2e       	mov	r0, r31
    19ae:	f5 e8       	ldi	r31, 0x85	; 133
    19b0:	8f 2e       	mov	r8, r31
    19b2:	f2 e0       	ldi	r31, 0x02	; 2
    19b4:	9f 2e       	mov	r9, r31
    19b6:	f0 2d       	mov	r31, r0
            LED_PORT.OUTTGL = LED1;
    19b8:	0f 2e       	mov	r0, r31
    19ba:	e1 2c       	mov	r14, r1
    19bc:	f6 e0       	ldi	r31, 0x06	; 6
    19be:	ff 2e       	mov	r15, r31
    19c0:	f0 2d       	mov	r31, r0
    19c2:	68 94       	set
    19c4:	77 24       	eor	r7, r7
    19c6:	72 f8       	bld	r7, 2
            //----------------Kalibracja------------
            if(Calibration_d.trigger) SensorCal();
    19c8:	0c ed       	ldi	r16, 0xDC	; 220
    19ca:	10 e2       	ldi	r17, 0x20	; 32
	#else
		//round up by default
		__ticks_dc = (uint32_t)(ceil(fabs(__tmp)));
	#endif

	__builtin_avr_delay_cycles(__ticks_dc);
    19cc:	2a e0       	ldi	r18, 0x0A	; 10
    19ce:	2a 95       	dec	r18
    19d0:	f1 f7       	brne	.-4      	; 0x19ce <main+0x5c>
    19d2:	00 c0       	rjmp	.+0      	; 0x19d4 <main+0x62>
    WarmUpMemoryOperations();	//odczyt lub kasowanie pamici
    CalibrationStart();			//autocalibration
	
    while(1) {
        _delay_us(1);
        if(stan_d.new_data == true) {
    19d4:	88 81       	ld	r24, Y
    19d6:	88 23       	and	r24, r24
    19d8:	c9 f3       	breq	.-14     	; 0x19cc <main+0x5a>
            //============================================================================
            //								Sensors update
            //============================================================================
            stan_d.new_data = false;	//DRY flag clear
    19da:	18 82       	st	Y, r1
            SensorUpdate(&allData_d);
    19dc:	82 e9       	ldi	r24, 0x92	; 146
    19de:	97 e2       	ldi	r25, 0x27	; 39
    19e0:	50 da       	rcall	.-2912   	; 0xe82 <SensorUpdate>
			SensorDataFusion(&allData_d);
    19e2:	82 e9       	ldi	r24, 0x92	; 146
    19e4:	97 e2       	ldi	r25, 0x27	; 39
    19e6:	11 df       	rcall	.-478    	; 0x180a <SensorDataFusion>
            StateUpdate();
    19e8:	93 da       	rcall	.-2778   	; 0xf10 <StateUpdate>
            //----------------Prepare frame---------
            prepareFrame(&allData_d);
    19ea:	82 e9       	ldi	r24, 0x92	; 146
    19ec:	97 e2       	ldi	r25, 0x27	; 39
    19ee:	0e 94 6f 16 	call	0x2cde	; 0x2cde <prepareFrame>
            if(stan_d.flash_trigger){
    19f2:	8d 81       	ldd	r24, Y+5	; 0x05
    19f4:	88 23       	and	r24, r24
    19f6:	09 f1       	breq	.+66     	; 0x1a3a <main+0xc8>
				SPI_WriteFrame(&SPIaddress, 400, &frame_b);
    19f8:	4f eb       	ldi	r20, 0xBF	; 191
    19fa:	51 e2       	ldi	r21, 0x21	; 33
    19fc:	60 e9       	ldi	r22, 0x90	; 144
    19fe:	71 e0       	ldi	r23, 0x01	; 1
    1a00:	84 ed       	ldi	r24, 0xD4	; 212
    1a02:	90 e2       	ldi	r25, 0x20	; 32
    1a04:	7c d1       	rcall	.+760    	; 0x1cfe <SPI_WriteFrame>
				if(RTC_d.frameFlashCount < 999999UL) RTC_d.frameFlashCount++;
    1a06:	f5 01       	movw	r30, r10
    1a08:	80 85       	ldd	r24, Z+8	; 0x08
    1a0a:	91 85       	ldd	r25, Z+9	; 0x09
    1a0c:	a2 85       	ldd	r26, Z+10	; 0x0a
    1a0e:	b3 85       	ldd	r27, Z+11	; 0x0b
    1a10:	8f 33       	cpi	r24, 0x3F	; 63
    1a12:	f2 e4       	ldi	r31, 0x42	; 66
    1a14:	9f 07       	cpc	r25, r31
    1a16:	ff e0       	ldi	r31, 0x0F	; 15
    1a18:	af 07       	cpc	r26, r31
    1a1a:	b1 05       	cpc	r27, r1
    1a1c:	48 f4       	brcc	.+18     	; 0x1a30 <main+0xbe>
    1a1e:	01 96       	adiw	r24, 0x01	; 1
    1a20:	a1 1d       	adc	r26, r1
    1a22:	b1 1d       	adc	r27, r1
    1a24:	f5 01       	movw	r30, r10
    1a26:	80 87       	std	Z+8, r24	; 0x08
    1a28:	91 87       	std	Z+9, r25	; 0x09
    1a2a:	a2 87       	std	Z+10, r26	; 0x0a
    1a2c:	b3 87       	std	Z+11, r27	; 0x0b
    1a2e:	05 c0       	rjmp	.+10     	; 0x1a3a <main+0xc8>
				else RTC_d.frameFlashCount = 0;
    1a30:	f5 01       	movw	r30, r10
    1a32:	10 86       	std	Z+8, r1	; 0x08
    1a34:	11 86       	std	Z+9, r1	; 0x09
    1a36:	12 86       	std	Z+10, r1	; 0x0a
    1a38:	13 86       	std	Z+11, r1	; 0x0b
			}
            if(!(frame_d.mutex)) frame_d = frame_b;							//jeli frame_d nie zablokowane -> przepisz z bufora
    1a3a:	f6 01       	movw	r30, r12
    1a3c:	80 81       	ld	r24, Z
    1a3e:	81 11       	cpse	r24, r1
    1a40:	09 c0       	rjmp	.+18     	; 0x1a54 <main+0xe2>
    1a42:	ef eb       	ldi	r30, 0xBF	; 191
    1a44:	f1 e2       	ldi	r31, 0x21	; 33
    1a46:	a4 e4       	ldi	r26, 0x44	; 68
    1a48:	b4 e2       	ldi	r27, 0x24	; 36
    1a4a:	c4 01       	movw	r24, r8
    1a4c:	01 90       	ld	r0, Z+
    1a4e:	0d 92       	st	X+, r0
    1a50:	01 97       	sbiw	r24, 0x01	; 1
    1a52:	e1 f7       	brne	.-8      	; 0x1a4c <main+0xda>
            LED_PORT.OUTTGL = LED1;
    1a54:	f7 01       	movw	r30, r14
    1a56:	77 82       	std	Z+7, r7	; 0x07
            //----------------Kalibracja------------
            if(Calibration_d.trigger) SensorCal();
    1a58:	f8 01       	movw	r30, r16
    1a5a:	82 a1       	ldd	r24, Z+34	; 0x22
    1a5c:	88 23       	and	r24, r24
    1a5e:	09 f4       	brne	.+2      	; 0x1a62 <main+0xf0>
    1a60:	b5 cf       	rjmp	.-150    	; 0x19cc <main+0x5a>
    1a62:	86 d8       	rcall	.-3828   	; 0xb70 <SensorCal>
    1a64:	b3 cf       	rjmp	.-154    	; 0x19cc <main+0x5a>

00001a66 <I2C_ReadEnd>:
#include "I2C.h"
#include "CanSat.h"

uint8_t I2C_ReadEnd(bool koniec){
	uint8_t dane;
	while(!(SENSORS_I2C.MASTER.STATUS & TWI_MASTER_RIF_bm)) {}
    1a66:	e0 e8       	ldi	r30, 0x80	; 128
    1a68:	f4 e0       	ldi	r31, 0x04	; 4
    1a6a:	94 81       	ldd	r25, Z+4	; 0x04
    1a6c:	99 23       	and	r25, r25
    1a6e:	ec f7       	brge	.-6      	; 0x1a6a <I2C_ReadEnd+0x4>
	if(koniec) SENSORS_I2C.MASTER.CTRLC = TWI_MASTER_ACKACT_bm | TWI_MASTER_CMD_STOP_gc;
    1a70:	88 23       	and	r24, r24
    1a72:	19 f0       	breq	.+6      	; 0x1a7a <I2C_ReadEnd+0x14>
    1a74:	87 e0       	ldi	r24, 0x07	; 7
    1a76:	80 93 83 04 	sts	0x0483, r24
	dane = SENSORS_I2C.MASTER.DATA;
    1a7a:	80 91 87 04 	lds	r24, 0x0487
	return dane;
}
    1a7e:	08 95       	ret

00001a80 <I2C_WriteReg>:

void I2C_WriteReg(uint8_t I2Caddres, uint8_t reg,  uint8_t  data){
	SENSORS_I2C.MASTER.ADDR = I2Caddres;
    1a80:	80 93 86 04 	sts	0x0486, r24
	while(!(SENSORS_I2C.MASTER.STATUS & TWI_MASTER_WIF_bm)) {}
    1a84:	e0 e8       	ldi	r30, 0x80	; 128
    1a86:	f4 e0       	ldi	r31, 0x04	; 4
    1a88:	84 81       	ldd	r24, Z+4	; 0x04
    1a8a:	86 ff       	sbrs	r24, 6
    1a8c:	fd cf       	rjmp	.-6      	; 0x1a88 <I2C_WriteReg+0x8>
	SENSORS_I2C.MASTER.DATA = reg;
    1a8e:	60 93 87 04 	sts	0x0487, r22
	while(!(SENSORS_I2C.MASTER.STATUS & TWI_MASTER_WIF_bm)) {}
    1a92:	e0 e8       	ldi	r30, 0x80	; 128
    1a94:	f4 e0       	ldi	r31, 0x04	; 4
    1a96:	84 81       	ldd	r24, Z+4	; 0x04
    1a98:	86 ff       	sbrs	r24, 6
    1a9a:	fd cf       	rjmp	.-6      	; 0x1a96 <I2C_WriteReg+0x16>
	SENSORS_I2C.MASTER.DATA = data;
    1a9c:	40 93 87 04 	sts	0x0487, r20
	while(!(SENSORS_I2C.MASTER.STATUS & TWI_MASTER_WIF_bm)) {}
    1aa0:	e0 e8       	ldi	r30, 0x80	; 128
    1aa2:	f4 e0       	ldi	r31, 0x04	; 4
    1aa4:	84 81       	ldd	r24, Z+4	; 0x04
    1aa6:	86 ff       	sbrs	r24, 6
    1aa8:	fd cf       	rjmp	.-6      	; 0x1aa4 <I2C_WriteReg+0x24>
	SENSORS_I2C.MASTER.CTRLC = TWI_MASTER_CMD_STOP_gc;
    1aaa:	83 e0       	ldi	r24, 0x03	; 3
    1aac:	80 93 83 04 	sts	0x0483, r24
    1ab0:	08 95       	ret

00001ab2 <I2C_ReadRegister>:
}

void I2C_ReadRegister(uint8_t I2Caddres, uint8_t reg, uint8_t length, uint8_t * data){
    1ab2:	ff 92       	push	r15
    1ab4:	0f 93       	push	r16
    1ab6:	1f 93       	push	r17
    1ab8:	cf 93       	push	r28
    1aba:	df 93       	push	r29
    1abc:	f2 2e       	mov	r15, r18
	SENSORS_I2C.MASTER.ADDR = I2Caddres;
    1abe:	80 93 86 04 	sts	0x0486, r24
	while(!(SENSORS_I2C.MASTER.STATUS & TWI_MASTER_WIF_bm)) {}
    1ac2:	e0 e8       	ldi	r30, 0x80	; 128
    1ac4:	f4 e0       	ldi	r31, 0x04	; 4
    1ac6:	94 81       	ldd	r25, Z+4	; 0x04
    1ac8:	96 ff       	sbrs	r25, 6
    1aca:	fd cf       	rjmp	.-6      	; 0x1ac6 <I2C_ReadRegister+0x14>
	SENSORS_I2C.MASTER.DATA = reg;
    1acc:	60 93 87 04 	sts	0x0487, r22
	while(!(SENSORS_I2C.MASTER.STATUS & TWI_MASTER_WIF_bm)) {}
    1ad0:	e0 e8       	ldi	r30, 0x80	; 128
    1ad2:	f4 e0       	ldi	r31, 0x04	; 4
    1ad4:	94 81       	ldd	r25, Z+4	; 0x04
    1ad6:	96 ff       	sbrs	r25, 6
    1ad8:	fd cf       	rjmp	.-6      	; 0x1ad4 <I2C_ReadRegister+0x22>

	SENSORS_I2C.MASTER.CTRLC = TWI_MASTER_CMD_REPSTART_gc;
    1ada:	e0 e8       	ldi	r30, 0x80	; 128
    1adc:	f4 e0       	ldi	r31, 0x04	; 4
    1ade:	91 e0       	ldi	r25, 0x01	; 1
    1ae0:	93 83       	std	Z+3, r25	; 0x03
	SENSORS_I2C.MASTER.ADDR = I2Caddres | 0x01;
    1ae2:	81 60       	ori	r24, 0x01	; 1
    1ae4:	86 83       	std	Z+6, r24	; 0x06
	for(uint8_t i=0; i<length-1; i++){
    1ae6:	04 2f       	mov	r16, r20
    1ae8:	10 e0       	ldi	r17, 0x00	; 0
    1aea:	01 50       	subi	r16, 0x01	; 1
    1aec:	11 09       	sbc	r17, r1
    1aee:	10 16       	cp	r1, r16
    1af0:	11 06       	cpc	r1, r17
    1af2:	64 f4       	brge	.+24     	; 0x1b0c <I2C_ReadRegister+0x5a>
    1af4:	cf 2d       	mov	r28, r15
    1af6:	d3 2f       	mov	r29, r19
		*data = I2C_ReadEnd(false);
    1af8:	80 e0       	ldi	r24, 0x00	; 0
    1afa:	b5 df       	rcall	.-150    	; 0x1a66 <I2C_ReadEnd>
    1afc:	89 93       	st	Y+, r24
    1afe:	8c 2f       	mov	r24, r28
    1b00:	8f 19       	sub	r24, r15
	SENSORS_I2C.MASTER.DATA = reg;
	while(!(SENSORS_I2C.MASTER.STATUS & TWI_MASTER_WIF_bm)) {}

	SENSORS_I2C.MASTER.CTRLC = TWI_MASTER_CMD_REPSTART_gc;
	SENSORS_I2C.MASTER.ADDR = I2Caddres | 0x01;
	for(uint8_t i=0; i<length-1; i++){
    1b02:	90 e0       	ldi	r25, 0x00	; 0
    1b04:	80 17       	cp	r24, r16
    1b06:	91 07       	cpc	r25, r17
    1b08:	bc f3       	brlt	.-18     	; 0x1af8 <I2C_ReadRegister+0x46>
    1b0a:	02 c0       	rjmp	.+4      	; 0x1b10 <I2C_ReadRegister+0x5e>
    1b0c:	cf 2d       	mov	r28, r15
    1b0e:	d3 2f       	mov	r29, r19
		*data = I2C_ReadEnd(false);
		data++;
	}
	*data = I2C_ReadEnd(true);
    1b10:	81 e0       	ldi	r24, 0x01	; 1
    1b12:	a9 df       	rcall	.-174    	; 0x1a66 <I2C_ReadEnd>
    1b14:	88 83       	st	Y, r24
    1b16:	df 91       	pop	r29
    1b18:	cf 91       	pop	r28
    1b1a:	1f 91       	pop	r17
    1b1c:	0f 91       	pop	r16
    1b1e:	ff 90       	pop	r15
    1b20:	08 95       	ret

00001b22 <SPI_W_Byte>:
    1b22:	cf 93       	push	r28
    1b24:	df 93       	push	r29
    1b26:	1f 92       	push	r1
    1b28:	cd b7       	in	r28, 0x3d	; 61
    1b2a:	de b7       	in	r29, 0x3e	; 62
    1b2c:	80 93 c3 08 	sts	0x08C3, r24
    1b30:	e0 ec       	ldi	r30, 0xC0	; 192
    1b32:	f8 e0       	ldi	r31, 0x08	; 8
    1b34:	82 81       	ldd	r24, Z+2	; 0x02
    1b36:	88 23       	and	r24, r24
    1b38:	ec f7       	brge	.-6      	; 0x1b34 <SPI_W_Byte+0x12>
    1b3a:	80 91 c3 08 	lds	r24, 0x08C3
    1b3e:	89 83       	std	Y+1, r24	; 0x01
    1b40:	0f 90       	pop	r0
    1b42:	df 91       	pop	r29
    1b44:	cf 91       	pop	r28
    1b46:	08 95       	ret

00001b48 <SPI_R_Byte>:
    1b48:	10 92 c3 08 	sts	0x08C3, r1
    1b4c:	e0 ec       	ldi	r30, 0xC0	; 192
    1b4e:	f8 e0       	ldi	r31, 0x08	; 8
    1b50:	82 81       	ldd	r24, Z+2	; 0x02
    1b52:	88 23       	and	r24, r24
    1b54:	ec f7       	brge	.-6      	; 0x1b50 <SPI_R_Byte+0x8>
    1b56:	80 91 c3 08 	lds	r24, 0x08C3
    1b5a:	08 95       	ret

00001b5c <SPI_CS>:
    1b5c:	88 23       	and	r24, r24
    1b5e:	21 f0       	breq	.+8      	; 0x1b68 <SPI_CS+0xc>
    1b60:	81 e0       	ldi	r24, 0x01	; 1
    1b62:	80 93 66 06 	sts	0x0666, r24
    1b66:	08 95       	ret
    1b68:	81 e0       	ldi	r24, 0x01	; 1
    1b6a:	80 93 65 06 	sts	0x0665, r24
    1b6e:	08 95       	ret

00001b70 <SPI_WriteEnable>:
    1b70:	1f 93       	push	r17
    1b72:	cf 93       	push	r28
    1b74:	df 93       	push	r29
    1b76:	c0 e6       	ldi	r28, 0x60	; 96
    1b78:	d6 e0       	ldi	r29, 0x06	; 6
    1b7a:	11 e0       	ldi	r17, 0x01	; 1
    1b7c:	1e 83       	std	Y+6, r17	; 0x06
    1b7e:	86 e0       	ldi	r24, 0x06	; 6
    1b80:	d0 df       	rcall	.-96     	; 0x1b22 <SPI_W_Byte>
    1b82:	1d 83       	std	Y+5, r17	; 0x05
    1b84:	df 91       	pop	r29
    1b86:	cf 91       	pop	r28
    1b88:	1f 91       	pop	r17
    1b8a:	08 95       	ret

00001b8c <SPI_WriteDisable>:
    1b8c:	1f 93       	push	r17
    1b8e:	cf 93       	push	r28
    1b90:	df 93       	push	r29
    1b92:	c0 e6       	ldi	r28, 0x60	; 96
    1b94:	d6 e0       	ldi	r29, 0x06	; 6
    1b96:	11 e0       	ldi	r17, 0x01	; 1
    1b98:	1e 83       	std	Y+6, r17	; 0x06
    1b9a:	84 e0       	ldi	r24, 0x04	; 4
    1b9c:	c2 df       	rcall	.-124    	; 0x1b22 <SPI_W_Byte>
    1b9e:	1d 83       	std	Y+5, r17	; 0x05
    1ba0:	df 91       	pop	r29
    1ba2:	cf 91       	pop	r28
    1ba4:	1f 91       	pop	r17
    1ba6:	08 95       	ret

00001ba8 <SPI_WriteByte>:
    1ba8:	df 92       	push	r13
    1baa:	ef 92       	push	r14
    1bac:	ff 92       	push	r15
    1bae:	0f 93       	push	r16
    1bb0:	1f 93       	push	r17
    1bb2:	cf 93       	push	r28
    1bb4:	df 93       	push	r29
    1bb6:	f6 2e       	mov	r15, r22
    1bb8:	e7 2e       	mov	r14, r23
    1bba:	d8 2e       	mov	r13, r24
    1bbc:	04 2f       	mov	r16, r20
    1bbe:	d8 df       	rcall	.-80     	; 0x1b70 <SPI_WriteEnable>
    1bc0:	c0 e6       	ldi	r28, 0x60	; 96
    1bc2:	d6 e0       	ldi	r29, 0x06	; 6
    1bc4:	11 e0       	ldi	r17, 0x01	; 1
    1bc6:	1e 83       	std	Y+6, r17	; 0x06
    1bc8:	82 e0       	ldi	r24, 0x02	; 2
    1bca:	ab df       	rcall	.-170    	; 0x1b22 <SPI_W_Byte>
    1bcc:	8d 2d       	mov	r24, r13
    1bce:	a9 df       	rcall	.-174    	; 0x1b22 <SPI_W_Byte>
    1bd0:	8e 2d       	mov	r24, r14
    1bd2:	a7 df       	rcall	.-178    	; 0x1b22 <SPI_W_Byte>
    1bd4:	8f 2d       	mov	r24, r15
    1bd6:	a5 df       	rcall	.-182    	; 0x1b22 <SPI_W_Byte>
    1bd8:	80 2f       	mov	r24, r16
    1bda:	a3 df       	rcall	.-186    	; 0x1b22 <SPI_W_Byte>
    1bdc:	1d 83       	std	Y+5, r17	; 0x05
    1bde:	df 91       	pop	r29
    1be0:	cf 91       	pop	r28
    1be2:	1f 91       	pop	r17
    1be4:	0f 91       	pop	r16
    1be6:	ff 90       	pop	r15
    1be8:	ef 90       	pop	r14
    1bea:	df 90       	pop	r13
    1bec:	08 95       	ret

00001bee <SPI_WriteProtection>:
    1bee:	1f 93       	push	r17
    1bf0:	cf 93       	push	r28
    1bf2:	df 93       	push	r29
    1bf4:	88 23       	and	r24, r24
    1bf6:	91 f0       	breq	.+36     	; 0x1c1c <SPI_WriteProtection+0x2e>
    1bf8:	c0 e6       	ldi	r28, 0x60	; 96
    1bfa:	d6 e0       	ldi	r29, 0x06	; 6
    1bfc:	11 e0       	ldi	r17, 0x01	; 1
    1bfe:	1e 83       	std	Y+6, r17	; 0x06
    1c00:	80 e5       	ldi	r24, 0x50	; 80
    1c02:	8f df       	rcall	.-226    	; 0x1b22 <SPI_W_Byte>
    1c04:	1d 83       	std	Y+5, r17	; 0x05
    1c06:	8a e0       	ldi	r24, 0x0A	; 10
    1c08:	8a 95       	dec	r24
    1c0a:	f1 f7       	brne	.-4      	; 0x1c08 <SPI_WriteProtection+0x1a>
    1c0c:	00 c0       	rjmp	.+0      	; 0x1c0e <SPI_WriteProtection+0x20>
    1c0e:	1e 83       	std	Y+6, r17	; 0x06
    1c10:	81 e0       	ldi	r24, 0x01	; 1
    1c12:	87 df       	rcall	.-242    	; 0x1b22 <SPI_W_Byte>
    1c14:	8c e1       	ldi	r24, 0x1C	; 28
    1c16:	85 df       	rcall	.-246    	; 0x1b22 <SPI_W_Byte>
    1c18:	1d 83       	std	Y+5, r17	; 0x05
    1c1a:	11 c0       	rjmp	.+34     	; 0x1c3e <SPI_WriteProtection+0x50>
    1c1c:	c0 e6       	ldi	r28, 0x60	; 96
    1c1e:	d6 e0       	ldi	r29, 0x06	; 6
    1c20:	11 e0       	ldi	r17, 0x01	; 1
    1c22:	1e 83       	std	Y+6, r17	; 0x06
    1c24:	80 e5       	ldi	r24, 0x50	; 80
    1c26:	7d df       	rcall	.-262    	; 0x1b22 <SPI_W_Byte>
    1c28:	1d 83       	std	Y+5, r17	; 0x05
    1c2a:	8a e0       	ldi	r24, 0x0A	; 10
    1c2c:	8a 95       	dec	r24
    1c2e:	f1 f7       	brne	.-4      	; 0x1c2c <SPI_WriteProtection+0x3e>
    1c30:	00 c0       	rjmp	.+0      	; 0x1c32 <SPI_WriteProtection+0x44>
    1c32:	1e 83       	std	Y+6, r17	; 0x06
    1c34:	81 e0       	ldi	r24, 0x01	; 1
    1c36:	75 df       	rcall	.-278    	; 0x1b22 <SPI_W_Byte>
    1c38:	80 e0       	ldi	r24, 0x00	; 0
    1c3a:	73 df       	rcall	.-282    	; 0x1b22 <SPI_W_Byte>
    1c3c:	1d 83       	std	Y+5, r17	; 0x05
    1c3e:	df 91       	pop	r29
    1c40:	cf 91       	pop	r28
    1c42:	1f 91       	pop	r17
    1c44:	08 95       	ret

00001c46 <SPI_WriteFin>:
	SPI_CS(false);						//zakoczenie transmisji
	_delay_us(1);
	SPI_AAI_Mode_Stop();				//exit AAI mode
}*/

void SPI_WriteFin(void){
    1c46:	cf 93       	push	r28
    1c48:	df 93       	push	r29
    1c4a:	1f 92       	push	r1
    1c4c:	cd b7       	in	r28, 0x3d	; 61
    1c4e:	de b7       	in	r29, 0x3e	; 62
	while(!(FLASH_SPI.STATUS & SPI_IF_bm)){}
	return FLASH_SPI.DATA;
}

void SPI_CS(bool enable){
	if(enable) FLASH_CS_PORT.OUTCLR = FLASH_CS_PIN;
    1c50:	81 e0       	ldi	r24, 0x01	; 1
    1c52:	80 93 66 06 	sts	0x0666, r24
	SPI_AAI_Mode_Stop();				//exit AAI mode
}*/

void SPI_WriteFin(void){
	SPI_CS(true);
	SPI_W_Byte(0x05);	//status register
    1c56:	85 e0       	ldi	r24, 0x05	; 5
    1c58:	64 df       	rcall	.-312    	; 0x1b22 <SPI_W_Byte>
	volatile char ch = SPI_R_Byte();
    1c5a:	76 df       	rcall	.-276    	; 0x1b48 <SPI_R_Byte>
    1c5c:	89 83       	std	Y+1, r24	; 0x01
	do{
		ch = SPI_R_Byte();
    1c5e:	74 df       	rcall	.-280    	; 0x1b48 <SPI_R_Byte>
    1c60:	89 83       	std	Y+1, r24	; 0x01
	}
	while(ch & 0x01);
    1c62:	89 81       	ldd	r24, Y+1	; 0x01
    1c64:	80 fd       	sbrc	r24, 0
    1c66:	fb cf       	rjmp	.-10     	; 0x1c5e <SPI_WriteFin+0x18>
	return FLASH_SPI.DATA;
}

void SPI_CS(bool enable){
	if(enable) FLASH_CS_PORT.OUTCLR = FLASH_CS_PIN;
	else FLASH_CS_PORT.OUTSET = FLASH_CS_PIN;
    1c68:	81 e0       	ldi	r24, 0x01	; 1
    1c6a:	80 93 65 06 	sts	0x0665, r24
	do{
		ch = SPI_R_Byte();
	}
	while(ch & 0x01);
	SPI_CS(false);
}
    1c6e:	0f 90       	pop	r0
    1c70:	df 91       	pop	r29
    1c72:	cf 91       	pop	r28
    1c74:	08 95       	ret

00001c76 <SPI_ChipErase>:
	uint8_t tmp = SPI_R_Byte();
	SPI_CS(false);
	return tmp;
}

void SPI_ChipErase(void){
    1c76:	1f 93       	push	r17
    1c78:	cf 93       	push	r28
    1c7a:	df 93       	push	r29
	SPI_WriteEnable();
    1c7c:	79 df       	rcall	.-270    	; 0x1b70 <SPI_WriteEnable>
	while(!(FLASH_SPI.STATUS & SPI_IF_bm)){}
	return FLASH_SPI.DATA;
}

void SPI_CS(bool enable){
	if(enable) FLASH_CS_PORT.OUTCLR = FLASH_CS_PIN;
    1c7e:	c0 e6       	ldi	r28, 0x60	; 96
    1c80:	d6 e0       	ldi	r29, 0x06	; 6
    1c82:	11 e0       	ldi	r17, 0x01	; 1
    1c84:	1e 83       	std	Y+6, r17	; 0x06
}

void SPI_ChipErase(void){
	SPI_WriteEnable();
	SPI_CS(true);
	SPI_W_Byte(0x60);	//Chip erase
    1c86:	80 e6       	ldi	r24, 0x60	; 96
    1c88:	4c df       	rcall	.-360    	; 0x1b22 <SPI_W_Byte>
	return FLASH_SPI.DATA;
}

void SPI_CS(bool enable){
	if(enable) FLASH_CS_PORT.OUTCLR = FLASH_CS_PIN;
	else FLASH_CS_PORT.OUTSET = FLASH_CS_PIN;
    1c8a:	1d 83       	std	Y+5, r17	; 0x05
    1c8c:	8f e1       	ldi	r24, 0x1F	; 31
    1c8e:	93 e0       	ldi	r25, 0x03	; 3
    1c90:	01 97       	sbiw	r24, 0x01	; 1
    1c92:	f1 f7       	brne	.-4      	; 0x1c90 <SPI_ChipErase+0x1a>
    1c94:	00 c0       	rjmp	.+0      	; 0x1c96 <SPI_ChipErase+0x20>
    1c96:	00 00       	nop
	SPI_CS(true);
	SPI_W_Byte(0x60);	//Chip erase
	SPI_CS(false);
	_delay_us(100);
	
	SPI_WriteFin();
    1c98:	d6 df       	rcall	.-84     	; 0x1c46 <SPI_WriteFin>
	SPI_WriteDisable();
    1c9a:	78 df       	rcall	.-272    	; 0x1b8c <SPI_WriteDisable>
}
    1c9c:	df 91       	pop	r29
    1c9e:	cf 91       	pop	r28
    1ca0:	1f 91       	pop	r17
    1ca2:	08 95       	ret

00001ca4 <SPI_FindEnd>:
		PORTA_OUTTGL = PIN2_bm;
	}
}
*/

uint32_t SPI_FindEnd(void){
    1ca4:	cf 92       	push	r12
    1ca6:	df 92       	push	r13
    1ca8:	ef 92       	push	r14
    1caa:	ff 92       	push	r15
	while(!(FLASH_SPI.STATUS & SPI_IF_bm)){}
	return FLASH_SPI.DATA;
}

void SPI_CS(bool enable){
	if(enable) FLASH_CS_PORT.OUTCLR = FLASH_CS_PIN;
    1cac:	81 e0       	ldi	r24, 0x01	; 1
    1cae:	80 93 66 06 	sts	0x0666, r24
}
*/

uint32_t SPI_FindEnd(void){
	SPI_CS(true);
	SPI_W_Byte(0x03);			//Read
    1cb2:	83 e0       	ldi	r24, 0x03	; 3
    1cb4:	36 df       	rcall	.-404    	; 0x1b22 <SPI_W_Byte>
	SPI_W_Byte(0);				//address MSB
    1cb6:	80 e0       	ldi	r24, 0x00	; 0
    1cb8:	34 df       	rcall	.-408    	; 0x1b22 <SPI_W_Byte>
	SPI_W_Byte(0);				//address cd.
    1cba:	80 e0       	ldi	r24, 0x00	; 0
    1cbc:	32 df       	rcall	.-412    	; 0x1b22 <SPI_W_Byte>
	SPI_W_Byte(0);				//address LSB
    1cbe:	80 e0       	ldi	r24, 0x00	; 0
    1cc0:	30 df       	rcall	.-416    	; 0x1b22 <SPI_W_Byte>
	uint32_t n=0;
    1cc2:	c1 2c       	mov	r12, r1
    1cc4:	d1 2c       	mov	r13, r1
    1cc6:	76 01       	movw	r14, r12
    1cc8:	0d c0       	rjmp	.+26     	; 0x1ce4 <SPI_FindEnd+0x40>
	while((n < 4100000) && (SPI_R_Byte() != 0xFF)) n++;	//szukaj pocztku wolnej pamici (0xFF)
    1cca:	8f ef       	ldi	r24, 0xFF	; 255
    1ccc:	c8 1a       	sub	r12, r24
    1cce:	d8 0a       	sbc	r13, r24
    1cd0:	e8 0a       	sbc	r14, r24
    1cd2:	f8 0a       	sbc	r15, r24
    1cd4:	80 ea       	ldi	r24, 0xA0	; 160
    1cd6:	c8 16       	cp	r12, r24
    1cd8:	8f e8       	ldi	r24, 0x8F	; 143
    1cda:	d8 06       	cpc	r13, r24
    1cdc:	8e e3       	ldi	r24, 0x3E	; 62
    1cde:	e8 06       	cpc	r14, r24
    1ce0:	f1 04       	cpc	r15, r1
    1ce2:	19 f0       	breq	.+6      	; 0x1cea <SPI_FindEnd+0x46>
    1ce4:	31 df       	rcall	.-414    	; 0x1b48 <SPI_R_Byte>
    1ce6:	8f 3f       	cpi	r24, 0xFF	; 255
    1ce8:	81 f7       	brne	.-32     	; 0x1cca <SPI_FindEnd+0x26>
	return FLASH_SPI.DATA;
}

void SPI_CS(bool enable){
	if(enable) FLASH_CS_PORT.OUTCLR = FLASH_CS_PIN;
	else FLASH_CS_PORT.OUTSET = FLASH_CS_PIN;
    1cea:	81 e0       	ldi	r24, 0x01	; 1
    1cec:	80 93 65 06 	sts	0x0665, r24
	SPI_W_Byte(0);				//address LSB
	uint32_t n=0;
	while((n < 4100000) && (SPI_R_Byte() != 0xFF)) n++;	//szukaj pocztku wolnej pamici (0xFF)
	SPI_CS(false);
	return n;
}
    1cf0:	c7 01       	movw	r24, r14
    1cf2:	b6 01       	movw	r22, r12
    1cf4:	ff 90       	pop	r15
    1cf6:	ef 90       	pop	r14
    1cf8:	df 90       	pop	r13
    1cfa:	cf 90       	pop	r12
    1cfc:	08 95       	ret

00001cfe <SPI_WriteFrame>:

void SPI_WriteFrame(uint32_t * adres, uint16_t frame_length, frame_t * frame){
    1cfe:	8f 92       	push	r8
    1d00:	9f 92       	push	r9
    1d02:	af 92       	push	r10
    1d04:	bf 92       	push	r11
    1d06:	cf 92       	push	r12
    1d08:	df 92       	push	r13
    1d0a:	ef 92       	push	r14
    1d0c:	ff 92       	push	r15
    1d0e:	0f 93       	push	r16
    1d10:	1f 93       	push	r17
    1d12:	cf 93       	push	r28
    1d14:	df 93       	push	r29
    1d16:	4b 01       	movw	r8, r22
    1d18:	fa 01       	movw	r30, r20
	uint32_t i = 0;
	if((*adres) < 4194000){
    1d1a:	dc 01       	movw	r26, r24
    1d1c:	4d 91       	ld	r20, X+
    1d1e:	5d 91       	ld	r21, X+
    1d20:	6d 91       	ld	r22, X+
    1d22:	7c 91       	ld	r23, X
    1d24:	40 3d       	cpi	r20, 0xD0	; 208
    1d26:	5e 4f       	sbci	r21, 0xFE	; 254
    1d28:	6f 43       	sbci	r22, 0x3F	; 63
    1d2a:	71 05       	cpc	r23, r1
    1d2c:	b8 f5       	brcc	.+110    	; 0x1d9c <SPI_WriteFrame+0x9e>
		PORTA_OUTSET = PIN2_bm;
    1d2e:	24 e0       	ldi	r18, 0x04	; 4
    1d30:	20 93 05 06 	sts	0x0605, r18
		while((frame->frameASCII[i]) && (i<frame_length)){
    1d34:	40 81       	ld	r20, Z
    1d36:	44 23       	and	r20, r20
    1d38:	71 f1       	breq	.+92     	; 0x1d96 <SPI_WriteFrame+0x98>
    1d3a:	a1 2c       	mov	r10, r1
    1d3c:	b1 2c       	mov	r11, r1
    1d3e:	81 14       	cp	r8, r1
    1d40:	91 04       	cpc	r9, r1
    1d42:	a1 04       	cpc	r10, r1
    1d44:	b1 04       	cpc	r11, r1
    1d46:	39 f1       	breq	.+78     	; 0x1d96 <SPI_WriteFrame+0x98>
    1d48:	8f 01       	movw	r16, r30
    1d4a:	ec 01       	movw	r28, r24
    1d4c:	0f 5f       	subi	r16, 0xFF	; 255
    1d4e:	1f 4f       	sbci	r17, 0xFF	; 255
    1d50:	c1 2c       	mov	r12, r1
    1d52:	d1 2c       	mov	r13, r1
    1d54:	76 01       	movw	r14, r12
			SPI_WriteByte((*adres),frame->frameASCII[i++]);
    1d56:	ef ef       	ldi	r30, 0xFF	; 255
    1d58:	ce 1a       	sub	r12, r30
    1d5a:	de 0a       	sbc	r13, r30
    1d5c:	ee 0a       	sbc	r14, r30
    1d5e:	fe 0a       	sbc	r15, r30
    1d60:	68 81       	ld	r22, Y
    1d62:	79 81       	ldd	r23, Y+1	; 0x01
    1d64:	8a 81       	ldd	r24, Y+2	; 0x02
    1d66:	9b 81       	ldd	r25, Y+3	; 0x03
    1d68:	1f df       	rcall	.-450    	; 0x1ba8 <SPI_WriteByte>
			SPI_WriteFin();
    1d6a:	6d df       	rcall	.-294    	; 0x1c46 <SPI_WriteFin>
			(*adres)++;			//address increment
    1d6c:	88 81       	ld	r24, Y
    1d6e:	99 81       	ldd	r25, Y+1	; 0x01
    1d70:	aa 81       	ldd	r26, Y+2	; 0x02
    1d72:	bb 81       	ldd	r27, Y+3	; 0x03
    1d74:	01 96       	adiw	r24, 0x01	; 1
    1d76:	a1 1d       	adc	r26, r1
    1d78:	b1 1d       	adc	r27, r1
    1d7a:	88 83       	st	Y, r24
    1d7c:	99 83       	std	Y+1, r25	; 0x01
    1d7e:	aa 83       	std	Y+2, r26	; 0x02
    1d80:	bb 83       	std	Y+3, r27	; 0x03

void SPI_WriteFrame(uint32_t * adres, uint16_t frame_length, frame_t * frame){
	uint32_t i = 0;
	if((*adres) < 4194000){
		PORTA_OUTSET = PIN2_bm;
		while((frame->frameASCII[i]) && (i<frame_length)){
    1d82:	d8 01       	movw	r26, r16
    1d84:	4d 91       	ld	r20, X+
    1d86:	8d 01       	movw	r16, r26
    1d88:	44 23       	and	r20, r20
    1d8a:	29 f0       	breq	.+10     	; 0x1d96 <SPI_WriteFrame+0x98>
    1d8c:	c8 14       	cp	r12, r8
    1d8e:	d9 04       	cpc	r13, r9
    1d90:	ea 04       	cpc	r14, r10
    1d92:	fb 04       	cpc	r15, r11
    1d94:	01 f7       	brne	.-64     	; 0x1d56 <SPI_WriteFrame+0x58>
			SPI_WriteByte((*adres),frame->frameASCII[i++]);
			SPI_WriteFin();
			(*adres)++;			//address increment
		}
		PORTA_OUTCLR = PIN2_bm;
    1d96:	84 e0       	ldi	r24, 0x04	; 4
    1d98:	80 93 06 06 	sts	0x0606, r24
	}
    1d9c:	df 91       	pop	r29
    1d9e:	cf 91       	pop	r28
    1da0:	1f 91       	pop	r17
    1da2:	0f 91       	pop	r16
    1da4:	ff 90       	pop	r15
    1da6:	ef 90       	pop	r14
    1da8:	df 90       	pop	r13
    1daa:	cf 90       	pop	r12
    1dac:	bf 90       	pop	r11
    1dae:	af 90       	pop	r10
    1db0:	9f 90       	pop	r9
    1db2:	8f 90       	pop	r8
    1db4:	08 95       	ret

00001db6 <Osc2MHz>:
void CPU_clk(uint8_t val){
	Osc2MHz((uint8_t)(val/2));
}

void Osc2MHz(uint8_t pll_factor) {
	OSC.CTRL |= OSC_RC2MEN_bm;						// wczenie oscylatora 2MHz
    1db6:	e0 e5       	ldi	r30, 0x50	; 80
    1db8:	f0 e0       	ldi	r31, 0x00	; 0
    1dba:	90 81       	ld	r25, Z
    1dbc:	91 60       	ori	r25, 0x01	; 1
    1dbe:	90 83       	st	Z, r25
	
	//--------------stabilizacja czstotliwoci
	DFLLRC2M.CALA = 0x40;								//dane z sygnatury
    1dc0:	a8 e6       	ldi	r26, 0x68	; 104
    1dc2:	b0 e0       	ldi	r27, 0x00	; 0
    1dc4:	90 e4       	ldi	r25, 0x40	; 64
    1dc6:	12 96       	adiw	r26, 0x02	; 2
    1dc8:	9c 93       	st	X, r25
    1dca:	12 97       	sbiw	r26, 0x02	; 2
	DFLLRC2M.CALB = 0x0D;
    1dcc:	9d e0       	ldi	r25, 0x0D	; 13
    1dce:	13 96       	adiw	r26, 0x03	; 3
    1dd0:	9c 93       	st	X, r25
	OSC.CTRL|=OSC_RC32KEN_bm;							//wczenie oscylatora 32kHz
    1dd2:	90 81       	ld	r25, Z
    1dd4:	94 60       	ori	r25, 0x04	; 4
    1dd6:	90 83       	st	Z, r25
	while(!(OSC.STATUS & OSC_RC32KRDY_bm));				//czekanie na ustabilizowanie zegara 32kHz
    1dd8:	91 81       	ldd	r25, Z+1	; 0x01
    1dda:	92 ff       	sbrs	r25, 2
    1ddc:	fd cf       	rjmp	.-6      	; 0x1dd8 <Osc2MHz+0x22>
	OSC.DFLLCTRL &= ~(OSC_RC32MCREF_gm | OSC_RC2MCREF_bm);
    1dde:	e0 e5       	ldi	r30, 0x50	; 80
    1de0:	f0 e0       	ldi	r31, 0x00	; 0
    1de2:	96 81       	ldd	r25, Z+6	; 0x06
    1de4:	98 7f       	andi	r25, 0xF8	; 248
    1de6:	96 83       	std	Z+6, r25	; 0x06
	DFLLRC2M.CTRL |= DFLL_ENABLE_bm;
    1de8:	e8 e6       	ldi	r30, 0x68	; 104
    1dea:	f0 e0       	ldi	r31, 0x00	; 0
    1dec:	90 81       	ld	r25, Z
    1dee:	91 60       	ori	r25, 0x01	; 1
    1df0:	90 83       	st	Z, r25
	
	while(!(OSC.STATUS & OSC_RC2MRDY_bm));			// czekanie na ustabilizowanie zegara 2MHz
    1df2:	e0 e5       	ldi	r30, 0x50	; 80
    1df4:	f0 e0       	ldi	r31, 0x00	; 0
    1df6:	91 81       	ldd	r25, Z+1	; 0x01
    1df8:	90 ff       	sbrs	r25, 0
    1dfa:	fd cf       	rjmp	.-6      	; 0x1df6 <Osc2MHz+0x40>
	CPU_CCP = CCP_IOREG_gc;							// odblokowanie zmiany rda sygnau
    1dfc:	98 ed       	ldi	r25, 0xD8	; 216
    1dfe:	94 bf       	out	0x34, r25	; 52
	CLK.CTRL = CLK_SCLKSEL_RC2M_gc;					// zmiana rda sygnau na RC 2MHz
    1e00:	10 92 40 00 	sts	0x0040, r1
	OSC.CTRL &= ~OSC_PLLEN_bm;						// wyczenie PLL
    1e04:	e0 e5       	ldi	r30, 0x50	; 80
    1e06:	f0 e0       	ldi	r31, 0x00	; 0
    1e08:	90 81       	ld	r25, Z
    1e0a:	9f 7e       	andi	r25, 0xEF	; 239
    1e0c:	90 83       	st	Z, r25
	OSC.PLLCTRL = OSC_PLLSRC_RC2M_gc | pll_factor;	// mnonik czstotliwoci (od 1 do 31)
    1e0e:	85 83       	std	Z+5, r24	; 0x05
	OSC.CTRL = OSC_PLLEN_bm;						// wczenie ukadu PLL
    1e10:	80 e1       	ldi	r24, 0x10	; 16
    1e12:	80 83       	st	Z, r24
	while(!(OSC.STATUS & OSC_PLLRDY_bm));			// czekanie na ustabilizowanie si generatora PLL
    1e14:	81 81       	ldd	r24, Z+1	; 0x01
    1e16:	84 ff       	sbrs	r24, 4
    1e18:	fd cf       	rjmp	.-6      	; 0x1e14 <Osc2MHz+0x5e>
	CPU_CCP = CCP_IOREG_gc;							// odblokowanie zmiany rda sygnau
    1e1a:	88 ed       	ldi	r24, 0xD8	; 216
    1e1c:	84 bf       	out	0x34, r24	; 52
	CLK.CTRL = CLK_SCLKSEL_PLL_gc;					// wybr rda sygnau zegarowego PLL
    1e1e:	84 e0       	ldi	r24, 0x04	; 4
    1e20:	80 93 40 00 	sts	0x0040, r24
    1e24:	08 95       	ret

00001e26 <CPU_clk>:
#include "struct.h"
#include "Initialization.h"
#include "CanSat.h"

void CPU_clk(uint8_t val){
	Osc2MHz((uint8_t)(val/2));
    1e26:	86 95       	lsr	r24
    1e28:	c6 cf       	rjmp	.-116    	; 0x1db6 <Osc2MHz>
    1e2a:	08 95       	ret

00001e2c <OscRTC>:
	while(!(OSC.STATUS & OSC_PLLRDY_bm));			// czekanie na ustabilizowanie si generatora PLL
	CPU_CCP = CCP_IOREG_gc;							// odblokowanie zmiany rda sygnau
	CLK.CTRL = CLK_SCLKSEL_PLL_gc;					// wybr rda sygnau zegarowego PLL
}

void OscRTC(void){
    1e2c:	08 95       	ret

00001e2e <RTC_Init>:
	CLK.RTCCTRL = CLK_RTCSRC_RCOSC32_gc;			//RTC zasilane z 32.768kHz
	CLK.RTCCTRL |= CLK_RTCEN_bm;					//wczenie RTC
	*/
}

void RTC_Init(void){
    1e2e:	08 95       	ret

00001e30 <TimerCInit>:
	RTC.INTCTRL = RTC_OVFINTLVL_MED_gc;				//przerwanie od przepenienia - niski priorytet
	*/
}

void TimerCInit(uint16_t period_ms){
	TCC0_CTRLA = TC_CLKSEL_DIV1024_gc;				//wczenie timera z preskalerem 64
    1e30:	27 e0       	ldi	r18, 0x07	; 7
    1e32:	20 93 00 08 	sts	0x0800, r18
	TCC0_CTRLB = 0x00;								//Normal mode
    1e36:	10 92 01 08 	sts	0x0801, r1
	TCC0_CNT = 0;									//zeruj licznik
    1e3a:	10 92 20 08 	sts	0x0820, r1
    1e3e:	10 92 21 08 	sts	0x0821, r1
	TCC0_PER = (period_ms*32000UL)/1024;			//przeliczenie okresu na 1ms*period
    1e42:	9c 01       	movw	r18, r24
    1e44:	a0 e0       	ldi	r26, 0x00	; 0
    1e46:	bd e7       	ldi	r27, 0x7D	; 125
    1e48:	0e 94 b2 2d 	call	0x5b64	; 0x5b64 <__umulhisi3>
    1e4c:	dc 01       	movw	r26, r24
    1e4e:	cb 01       	movw	r24, r22
    1e50:	07 2e       	mov	r0, r23
    1e52:	7a e0       	ldi	r23, 0x0A	; 10
    1e54:	b6 95       	lsr	r27
    1e56:	a7 95       	ror	r26
    1e58:	97 95       	ror	r25
    1e5a:	87 95       	ror	r24
    1e5c:	7a 95       	dec	r23
    1e5e:	d1 f7       	brne	.-12     	; 0x1e54 <TimerCInit+0x24>
    1e60:	70 2d       	mov	r23, r0
    1e62:	80 93 26 08 	sts	0x0826, r24
    1e66:	90 93 27 08 	sts	0x0827, r25
	TCC0_INTCTRLA = TC_OVFINTLVL_MED_gc;			//redni poziom przerwania od przepenienia
    1e6a:	82 e0       	ldi	r24, 0x02	; 2
    1e6c:	80 93 06 08 	sts	0x0806, r24
    1e70:	08 95       	ret

00001e72 <TimerDInit>:
}

void TimerDInit(uint16_t period_ms){
	TCD0_CTRLA = TC_CLKSEL_DIV1024_gc;				//wczenie timera z preskalerem 64
    1e72:	27 e0       	ldi	r18, 0x07	; 7
    1e74:	20 93 00 09 	sts	0x0900, r18
	TCD0_CTRLB = 0x00;								//Normal mode
    1e78:	10 92 01 09 	sts	0x0901, r1
	TCD0_CNT = 0;									//zeruj licznik
    1e7c:	10 92 20 09 	sts	0x0920, r1
    1e80:	10 92 21 09 	sts	0x0921, r1
	TCD0_PER = (period_ms*32000UL)/1024;			//przeliczenie okresu na 1ms*period
    1e84:	9c 01       	movw	r18, r24
    1e86:	a0 e0       	ldi	r26, 0x00	; 0
    1e88:	bd e7       	ldi	r27, 0x7D	; 125
    1e8a:	0e 94 b2 2d 	call	0x5b64	; 0x5b64 <__umulhisi3>
    1e8e:	dc 01       	movw	r26, r24
    1e90:	cb 01       	movw	r24, r22
    1e92:	07 2e       	mov	r0, r23
    1e94:	7a e0       	ldi	r23, 0x0A	; 10
    1e96:	b6 95       	lsr	r27
    1e98:	a7 95       	ror	r26
    1e9a:	97 95       	ror	r25
    1e9c:	87 95       	ror	r24
    1e9e:	7a 95       	dec	r23
    1ea0:	d1 f7       	brne	.-12     	; 0x1e96 <TimerDInit+0x24>
    1ea2:	70 2d       	mov	r23, r0
    1ea4:	80 93 26 09 	sts	0x0926, r24
    1ea8:	90 93 27 09 	sts	0x0927, r25
	TCD0_INTCTRLA = TC_OVFINTLVL_LO_gc;				//redni poziom przerwania od przepenienia
    1eac:	81 e0       	ldi	r24, 0x01	; 1
    1eae:	80 93 06 09 	sts	0x0906, r24
    1eb2:	08 95       	ret

00001eb4 <TimerEInit>:
}

void TimerEInit(uint16_t period_ms){
	TCE0_CTRLA = TC_CLKSEL_DIV1024_gc;				//wczenie timera z preskalerem 64
    1eb4:	27 e0       	ldi	r18, 0x07	; 7
    1eb6:	20 93 00 0a 	sts	0x0A00, r18
	TCE0_CTRLB = 0x00;								//Normal mode
    1eba:	10 92 01 0a 	sts	0x0A01, r1
	TCE0_CNT = 0;									//zeruj licznik
    1ebe:	10 92 20 0a 	sts	0x0A20, r1
    1ec2:	10 92 21 0a 	sts	0x0A21, r1
	TCE0_PER = (period_ms*32000UL)/1024;			//przeliczenie okresu na 1ms*period
    1ec6:	9c 01       	movw	r18, r24
    1ec8:	a0 e0       	ldi	r26, 0x00	; 0
    1eca:	bd e7       	ldi	r27, 0x7D	; 125
    1ecc:	0e 94 b2 2d 	call	0x5b64	; 0x5b64 <__umulhisi3>
    1ed0:	dc 01       	movw	r26, r24
    1ed2:	cb 01       	movw	r24, r22
    1ed4:	07 2e       	mov	r0, r23
    1ed6:	7a e0       	ldi	r23, 0x0A	; 10
    1ed8:	b6 95       	lsr	r27
    1eda:	a7 95       	ror	r26
    1edc:	97 95       	ror	r25
    1ede:	87 95       	ror	r24
    1ee0:	7a 95       	dec	r23
    1ee2:	d1 f7       	brne	.-12     	; 0x1ed8 <TimerEInit+0x24>
    1ee4:	70 2d       	mov	r23, r0
    1ee6:	80 93 26 0a 	sts	0x0A26, r24
    1eea:	90 93 27 0a 	sts	0x0A27, r25
	TCE0_INTCTRLA = TC_OVFINTLVL_MED_gc;			//redni poziom przerwania od przepenienia
    1eee:	82 e0       	ldi	r24, 0x02	; 2
    1ef0:	80 93 06 0a 	sts	0x0A06, r24
    1ef4:	08 95       	ret

00001ef6 <TimerFInit>:
}

void TimerFInit(uint16_t period_ms){
	TCF0_CTRLA = TC_CLKSEL_DIV1024_gc;				//wczenie timera z preskalerem 64
    1ef6:	27 e0       	ldi	r18, 0x07	; 7
    1ef8:	20 93 00 0b 	sts	0x0B00, r18
	TCF0_CTRLB = 0x00;								//Normal mode
    1efc:	10 92 01 0b 	sts	0x0B01, r1
	TCF0_CNT = 0;									//zeruj licznik
    1f00:	10 92 20 0b 	sts	0x0B20, r1
    1f04:	10 92 21 0b 	sts	0x0B21, r1
    1f08:	81 3d       	cpi	r24, 0xD1	; 209
    1f0a:	27 e0       	ldi	r18, 0x07	; 7
    1f0c:	92 07       	cpc	r25, r18
    1f0e:	10 f0       	brcs	.+4      	; 0x1f14 <TimerFInit+0x1e>
    1f10:	80 ed       	ldi	r24, 0xD0	; 208
    1f12:	97 e0       	ldi	r25, 0x07	; 7
	if(period_ms > 2000) period_ms = 2000;			//ograniczenie ze wzgldu na przepenienie
	TCF0_PER = (period_ms*32000UL)/1024;			//przeliczenie okresu na 1ms*period
    1f14:	9c 01       	movw	r18, r24
    1f16:	a0 e0       	ldi	r26, 0x00	; 0
    1f18:	bd e7       	ldi	r27, 0x7D	; 125
    1f1a:	0e 94 b2 2d 	call	0x5b64	; 0x5b64 <__umulhisi3>
    1f1e:	dc 01       	movw	r26, r24
    1f20:	cb 01       	movw	r24, r22
    1f22:	07 2e       	mov	r0, r23
    1f24:	7a e0       	ldi	r23, 0x0A	; 10
    1f26:	b6 95       	lsr	r27
    1f28:	a7 95       	ror	r26
    1f2a:	97 95       	ror	r25
    1f2c:	87 95       	ror	r24
    1f2e:	7a 95       	dec	r23
    1f30:	d1 f7       	brne	.-12     	; 0x1f26 <TimerFInit+0x30>
    1f32:	70 2d       	mov	r23, r0
    1f34:	80 93 26 0b 	sts	0x0B26, r24
    1f38:	90 93 27 0b 	sts	0x0B27, r25
	TCF0_INTCTRLA = TC_OVFINTLVL_MED_gc;			//redni poziom przerwania od przepenienia
    1f3c:	82 e0       	ldi	r24, 0x02	; 2
    1f3e:	80 93 06 0b 	sts	0x0B06, r24
    1f42:	08 95       	ret

00001f44 <GPS_Init>:
	ADCA.PRESCALER = ADC_PRESCALER_DIV32_gc;
	ADCA.CH0.CTRL = ADC_CH_INPUTMODE_SINGLEENDED_gc;
}

void GPS_Init(void){
	GPS_UART_PORT.OUTCLR = PIN2_bm;					//konfiguracja pinw Rx i Tx
    1f44:	e0 ea       	ldi	r30, 0xA0	; 160
    1f46:	f6 e0       	ldi	r31, 0x06	; 6
    1f48:	84 e0       	ldi	r24, 0x04	; 4
    1f4a:	86 83       	std	Z+6, r24	; 0x06
	GPS_UART_PORT.OUTSET = PIN3_bm;
    1f4c:	88 e0       	ldi	r24, 0x08	; 8
    1f4e:	85 83       	std	Z+5, r24	; 0x05
	GPS_UART_PORT.DIRSET = PIN3_bm;
    1f50:	81 83       	std	Z+1, r24	; 0x01
	
	GPS_UART.CTRLC = USART_CHSIZE_8BIT_gc;			//ramka: 8bitw, 1 bit stopu, brak bitu parzystoci
    1f52:	e0 ea       	ldi	r30, 0xA0	; 160
    1f54:	fb e0       	ldi	r31, 0x0B	; 11
    1f56:	83 e0       	ldi	r24, 0x03	; 3
    1f58:	85 83       	std	Z+5, r24	; 0x05
	int16_t BSEL = GPS_BSEL;							//konfiguracja prdkoci transmisji 115200
	int8_t BSCALE = GPS_BSCALE;					//-6
	GPS_UART.BAUDCTRLA = (uint8_t)(BSEL&0x00FF);
    1f5a:	87 e1       	ldi	r24, 0x17	; 23
    1f5c:	86 83       	std	Z+6, r24	; 0x06
	GPS_UART.BAUDCTRLB = (uint8_t)(((BSEL >> 8) & 0x000F) | BSCALE) ;
    1f5e:	84 ea       	ldi	r24, 0xA4	; 164
    1f60:	87 83       	std	Z+7, r24	; 0x07
	GPS_UART.CTRLA |= USART_RXCINTLVL_LO_gc;								//odblokowanie przerwa odbiornika, niski priorytet
    1f62:	83 81       	ldd	r24, Z+3	; 0x03
    1f64:	80 61       	ori	r24, 0x10	; 16
    1f66:	83 83       	std	Z+3, r24	; 0x03
	GPS_UART.CTRLB |= USART_TXEN_bm | USART_RXEN_bm;						//wczenie nadajnika i odbiornika USART
    1f68:	84 81       	ldd	r24, Z+4	; 0x04
    1f6a:	88 61       	ori	r24, 0x18	; 24
    1f6c:	84 83       	std	Z+4, r24	; 0x04
    1f6e:	08 95       	ret

00001f70 <GPS_Conf>:
}

void GPS_Conf(void){
    1f70:	08 95       	ret

00001f72 <USART_Init>:
	}
	*/
}

void USART_Init(void){
	XBEE_UART_PORT.OUTCLR = PIN2_bm;					//konfiguracja pinw Rx i Tx
    1f72:	e0 e6       	ldi	r30, 0x60	; 96
    1f74:	f6 e0       	ldi	r31, 0x06	; 6
    1f76:	84 e0       	ldi	r24, 0x04	; 4
    1f78:	86 83       	std	Z+6, r24	; 0x06
	XBEE_UART_PORT.OUTSET = PIN3_bm;
    1f7a:	88 e0       	ldi	r24, 0x08	; 8
    1f7c:	85 83       	std	Z+5, r24	; 0x05
	XBEE_UART_PORT.DIRSET = PIN3_bm;
    1f7e:	81 83       	std	Z+1, r24	; 0x01
	
	XBEE_UART.CTRLC = USART_CHSIZE_8BIT_gc;	//ramka: 8bitw, 1 bit stopu, brak bitu parzystoci
    1f80:	e0 ea       	ldi	r30, 0xA0	; 160
    1f82:	f9 e0       	ldi	r31, 0x09	; 9
    1f84:	83 e0       	ldi	r24, 0x03	; 3
    1f86:	85 83       	std	Z+5, r24	; 0x05
	int16_t BSEL = 1047;					//konfiguracja prdkoci transmisji 115200
	int8_t BSCALE = 0b10100000;				//-6
	XBEE_UART.BAUDCTRLA = (uint8_t)(BSEL&0x00FF);
    1f88:	87 e1       	ldi	r24, 0x17	; 23
    1f8a:	86 83       	std	Z+6, r24	; 0x06
	XBEE_UART.BAUDCTRLB = (uint8_t)(((BSEL >> 8) & 0x000F) | BSCALE) ;
    1f8c:	84 ea       	ldi	r24, 0xA4	; 164
    1f8e:	87 83       	std	Z+7, r24	; 0x07
	XBEE_UART.CTRLA |= USART_RXCINTLVL_LO_gc | USART_TXCINTLVL_HI_gc;		//odblokowanie przerwa nadajnika i odbiornika, niski priorytet
    1f90:	83 81       	ldd	r24, Z+3	; 0x03
    1f92:	8c 61       	ori	r24, 0x1C	; 28
    1f94:	83 83       	std	Z+3, r24	; 0x03
	XBEE_UART.CTRLB |= USART_TXEN_bm | USART_RXEN_bm;						//wczenie nadajnika i odbiornika USART
    1f96:	84 81       	ldd	r24, Z+4	; 0x04
    1f98:	88 61       	ori	r24, 0x18	; 24
    1f9a:	84 83       	std	Z+4, r24	; 0x04
    1f9c:	08 95       	ret

00001f9e <IO_Init>:
}

void IO_Init(void){
    1f9e:	cf 93       	push	r28
    1fa0:	df 93       	push	r29
	//konfiguracja przyciskw
	PORTE_PIN0CTRL = PORT_OPC_PULLUP_gc;		//wczenie Pull-up przycisku 1
    1fa2:	88 e1       	ldi	r24, 0x18	; 24
    1fa4:	80 93 90 06 	sts	0x0690, r24
	PORTE_PIN1CTRL = PORT_OPC_PULLUP_gc;		//wczenie Pull-up przycisku 2
    1fa8:	80 93 91 06 	sts	0x0691, r24
	//konfiguracja pinw kontroli GPS
	PORTA_DIR |= PIN0_bm;
    1fac:	a0 e0       	ldi	r26, 0x00	; 0
    1fae:	b6 e0       	ldi	r27, 0x06	; 6
    1fb0:	8c 91       	ld	r24, X
    1fb2:	81 60       	ori	r24, 0x01	; 1
    1fb4:	8c 93       	st	X, r24
	PORTA_OUTCLR = PIN0_bm;
    1fb6:	e6 e0       	ldi	r30, 0x06	; 6
    1fb8:	f6 e0       	ldi	r31, 0x06	; 6
    1fba:	21 e0       	ldi	r18, 0x01	; 1
    1fbc:	20 83       	st	Z, r18
	//konfiguracja LED
	PORTA_DIR |= PIN2_bm | PIN3_bm | PIN4_bm | PIN5_bm | PIN6_bm;	//konfiguracja kierunku pinw LED
    1fbe:	8c 91       	ld	r24, X
    1fc0:	8c 67       	ori	r24, 0x7C	; 124
    1fc2:	8c 93       	st	X, r24
	PORTA_OUTCLR = PIN2_bm | PIN3_bm | PIN4_bm | PIN5_bm | PIN6_bm;	//konfiguracja stanu pinw LED
    1fc4:	8c e7       	ldi	r24, 0x7C	; 124
    1fc6:	80 83       	st	Z, r24
	//konfiguracja buzzera
	PORTF_DIR |= PIN6_bm;						//konfiguracja kierunku pinu buzzera
    1fc8:	a0 ea       	ldi	r26, 0xA0	; 160
    1fca:	b6 e0       	ldi	r27, 0x06	; 6
    1fcc:	8c 91       	ld	r24, X
    1fce:	80 64       	ori	r24, 0x40	; 64
    1fd0:	8c 93       	st	X, r24
	PORTF_OUTCLR = PIN6_bm;						//konfiguracja stanu pinu buzzer
    1fd2:	66 ea       	ldi	r22, 0xA6	; 166
    1fd4:	76 e0       	ldi	r23, 0x06	; 6
    1fd6:	50 e4       	ldi	r21, 0x40	; 64
    1fd8:	db 01       	movw	r26, r22
    1fda:	5c 93       	st	X, r21
	//konfiguracja wyj POWER
	PORTC_DIRSET = PIN2_bm;			//konfiguracja kierunku pinw POWER
    1fdc:	34 e0       	ldi	r19, 0x04	; 4
    1fde:	30 93 41 06 	sts	0x0641, r19
	PORTC_OUTCLR = PIN2_bm;			//konfiguracja stanu pinw POWER
    1fe2:	30 93 46 06 	sts	0x0646, r19
	PORTD_DIRSET = PIN1_bm;			//konfiguracja kierunku pinw POWER
    1fe6:	c1 e6       	ldi	r28, 0x61	; 97
    1fe8:	d6 e0       	ldi	r29, 0x06	; 6
    1fea:	82 e0       	ldi	r24, 0x02	; 2
    1fec:	88 83       	st	Y, r24
	PORTD_OUTCLR = PIN1_bm;			//konfiguracja stanu pinw POWER
    1fee:	a6 e6       	ldi	r26, 0x66	; 102
    1ff0:	b6 e0       	ldi	r27, 0x06	; 6
    1ff2:	8c 93       	st	X, r24
	//konfiguracja interfejsu XBEE
	PORTD_OUTCLR = PIN2_bm;		//RX
    1ff4:	3c 93       	st	X, r19
	PORTD_DIRSET = PIN3_bm;		//TX
    1ff6:	48 e0       	ldi	r20, 0x08	; 8
    1ff8:	48 83       	st	Y, r20
	PORTD_DIRSET = PIN5_bm;		//sleep pin
    1ffa:	90 e2       	ldi	r25, 0x20	; 32
    1ffc:	98 83       	st	Y, r25
	PORTD_OUTCLR = PIN5_bm;
    1ffe:	9c 93       	st	X, r25
	//konfiguracja interfejsu GPS
	PORTF_OUTCLR = PIN2_bm;
    2000:	db 01       	movw	r26, r22
    2002:	3c 93       	st	X, r19
	PORTF_OUTSET = PIN3_bm;
    2004:	40 93 a5 06 	sts	0x06A5, r20
	PORTF_DIRSET = PIN3_bm;
    2008:	40 93 a1 06 	sts	0x06A1, r20
	//konfiguracja pinw I2C
	PORTC_DIR = PIN0_bm | PIN1_bm;
    200c:	33 e0       	ldi	r19, 0x03	; 3
    200e:	30 93 40 06 	sts	0x0640, r19
	PORTC_OUT = PIN0_bm | PIN1_bm;
    2012:	30 93 44 06 	sts	0x0644, r19
	//konfiguracja wej data ready
	PORTR_DIRCLR = PIN0_bm;		//LPS
    2016:	a2 ee       	ldi	r26, 0xE2	; 226
    2018:	b7 e0       	ldi	r27, 0x07	; 7
    201a:	2c 93       	st	X, r18
	PORTR_DIRCLR = PIN1_bm;		//LIS
    201c:	8c 93       	st	X, r24
	PORTE_DIRCLR = PIN4_bm;		//MPU
    201e:	a2 e8       	ldi	r26, 0x82	; 130
    2020:	b6 e0       	ldi	r27, 0x06	; 6
    2022:	30 e1       	ldi	r19, 0x10	; 16
    2024:	3c 93       	st	X, r19
	PORTE_DIRCLR = PIN5_bm;		//LSM
    2026:	9c 93       	st	X, r25
	PORTF_DIRCLR = PIN0_bm;		//LSM
    2028:	a2 ea       	ldi	r26, 0xA2	; 162
    202a:	b6 e0       	ldi	r27, 0x06	; 6
    202c:	2c 93       	st	X, r18
	PORTF_DIRCLR = PIN1_bm;		//HMC
    202e:	8c 93       	st	X, r24
	PORTF_DIRCLR = PIN4_bm;		//LIS2
    2030:	3c 93       	st	X, r19
	PORTD_DIRCLR = PIN4_bm;		//HP
    2032:	30 93 62 06 	sts	0x0662, r19
	//konfiguracja wej ADC
	PORTA_OUTCLR = PIN1_bm;		//Vsense2
    2036:	80 83       	st	Z, r24
	PORTA_OUTCLR = PIN7_bm;		//Vsense
    2038:	80 e8       	ldi	r24, 0x80	; 128
    203a:	80 83       	st	Z, r24
	PORTB_OUTCLR = PIN0_bm;		//Vusb
    203c:	e6 e2       	ldi	r30, 0x26	; 38
    203e:	f6 e0       	ldi	r31, 0x06	; 6
    2040:	20 83       	st	Z, r18
	PORTB_OUTCLR = PIN5_bm;		//light1
    2042:	90 83       	st	Z, r25
	PORTB_OUTCLR = PIN6_bm;		//light2
    2044:	50 83       	st	Z, r21
	PORTB_OUTCLR = PIN7_bm;		//light3
    2046:	80 83       	st	Z, r24
}
    2048:	df 91       	pop	r29
    204a:	cf 91       	pop	r28
    204c:	08 95       	ret

0000204e <I2C_Init>:

void I2C_Init(void){
	SENSORS_I2C.MASTER.CTRLA = TWI_MASTER_RIEN_bm | TWI_MASTER_WIEN_bm;		//ustawienie priorytetu przerwania na Low i w?aczenie przerwania od odbioru
    204e:	e0 e8       	ldi	r30, 0x80	; 128
    2050:	f4 e0       	ldi	r31, 0x04	; 4
    2052:	80 e3       	ldi	r24, 0x30	; 48
    2054:	81 83       	std	Z+1, r24	; 0x01
	SENSORS_I2C.MASTER.CTRLB = TWI_MASTER_SMEN_bm;                             //uruchomienie Smart Mode
    2056:	91 e0       	ldi	r25, 0x01	; 1
    2058:	92 83       	std	Z+2, r25	; 0x02
	SENSORS_I2C.MASTER.BAUD = 48;                                             //BAUD = 48 -> f=300kHz    BAUD = 21 -> f=600kHz
    205a:	85 83       	std	Z+5, r24	; 0x05
	SENSORS_I2C.MASTER.CTRLA |= TWI_MASTER_ENABLE_bm;                          //wczenie TWI
    205c:	81 81       	ldd	r24, Z+1	; 0x01
    205e:	88 60       	ori	r24, 0x08	; 8
    2060:	81 83       	std	Z+1, r24	; 0x01
	SENSORS_I2C.MASTER.STATUS = TWI_MASTER_BUSSTATE_IDLE_gc;                   //I2C wolne
    2062:	94 83       	std	Z+4, r25	; 0x04
    2064:	08 95       	ret

00002066 <SPI_Init>:
}

void SPI_Init(void){
	SPI_PORT.DIRSET = PIN4_bm;						//podcignicie CS
    2066:	e0 e4       	ldi	r30, 0x40	; 64
    2068:	f6 e0       	ldi	r31, 0x06	; 6
    206a:	80 e1       	ldi	r24, 0x10	; 16
    206c:	81 83       	std	Z+1, r24	; 0x01
	SPI_PORT.DIRSET = PIN5_bm | PIN7_bm;
    206e:	80 ea       	ldi	r24, 0xA0	; 160
    2070:	81 83       	std	Z+1, r24	; 0x01
	SPI_PORT.DIRCLR = PIN6_bm;
    2072:	80 e4       	ldi	r24, 0x40	; 64
    2074:	82 83       	std	Z+2, r24	; 0x02
	SPI_PORT.OUTSET = PIN5_bm | PIN6_bm | PIN7_bm;	//moe doda PIN6_bm
    2076:	80 ee       	ldi	r24, 0xE0	; 224
    2078:	85 83       	std	Z+5, r24	; 0x05
	//----CS---
	FLASH_CS_PORT.DIRSET = FLASH_CS_PIN;
    207a:	e0 e6       	ldi	r30, 0x60	; 96
    207c:	f6 e0       	ldi	r31, 0x06	; 6
    207e:	81 e0       	ldi	r24, 0x01	; 1
    2080:	81 83       	std	Z+1, r24	; 0x01
	FLASH_CS_PORT.OUTSET = FLASH_CS_PIN;
    2082:	85 83       	std	Z+5, r24	; 0x05
	
	//-----------Clk=250kHz-------------------------
	FLASH_SPI.CTRL = SPI_ENABLE_bm | SPI_MODE_0_gc | SPI_PRESCALER_DIV16_gc | SPI_MASTER_bm;
    2084:	81 e5       	ldi	r24, 0x51	; 81
    2086:	80 93 c0 08 	sts	0x08C0, r24
    208a:	08 95       	ret

0000208c <ReadSignatureByte>:
	//FLASH_SPI.INTCTRL = SPI_INTLVL_LO_gc;
}

uint8_t ReadSignatureByte(uint16_t Address)
{
	NVM_CMD = NVM_CMD_READ_CALIB_ROW_gc;
    208c:	aa ec       	ldi	r26, 0xCA	; 202
    208e:	b1 e0       	ldi	r27, 0x01	; 1
    2090:	22 e0       	ldi	r18, 0x02	; 2
    2092:	2c 93       	st	X, r18
	uint8_t Result;
	__asm__ ("lpm %0, Z\n" : "=r" (Result) : "z" (Address));
    2094:	fc 01       	movw	r30, r24
    2096:	84 91       	lpm	r24, Z
	NVM_CMD = NVM_CMD_NO_OPERATION_gc;
    2098:	1c 92       	st	X, r1
	return Result;
    209a:	08 95       	ret

0000209c <ADC_Init>:
	if(period_ms > 2000) period_ms = 2000;			//ograniczenie ze wzgldu na przepenienie
	TCF0_PER = (period_ms*32000UL)/1024;			//przeliczenie okresu na 1ms*period
	TCF0_INTCTRLA = TC_OVFINTLVL_MED_gc;			//redni poziom przerwania od przepenienia
}

void ADC_Init(void){
    209c:	1f 93       	push	r17
    209e:	cf 93       	push	r28
    20a0:	df 93       	push	r29
	ADCA.CTRLA = ADC_ENABLE_bm;
    20a2:	c0 e0       	ldi	r28, 0x00	; 0
    20a4:	d2 e0       	ldi	r29, 0x02	; 2
    20a6:	11 e0       	ldi	r17, 0x01	; 1
    20a8:	18 83       	st	Y, r17
	ADCA.CALL = ReadSignatureByte(0x20) ; //ADC Calibration Byte 0
    20aa:	80 e2       	ldi	r24, 0x20	; 32
    20ac:	90 e0       	ldi	r25, 0x00	; 0
    20ae:	ee df       	rcall	.-36     	; 0x208c <ReadSignatureByte>
    20b0:	8c 87       	std	Y+12, r24	; 0x0c
	ADCA.CALH = ReadSignatureByte(0x21) ; //ADC Calibration Byte 1
    20b2:	81 e2       	ldi	r24, 0x21	; 33
    20b4:	90 e0       	ldi	r25, 0x00	; 0
    20b6:	ea df       	rcall	.-44     	; 0x208c <ReadSignatureByte>
    20b8:	8d 87       	std	Y+13, r24	; 0x0d
	ADCA.CTRLB = ADC_RESOLUTION_12BIT_gc;	//rozdzielczo 12bit, CONVMODE=0
    20ba:	19 82       	std	Y+1, r1	; 0x01
	ADCA.REFCTRL = ADC_REFSEL_INT1V_gc;
    20bc:	1a 82       	std	Y+2, r1	; 0x02
	ADCA.PRESCALER = ADC_PRESCALER_DIV32_gc;
    20be:	83 e0       	ldi	r24, 0x03	; 3
    20c0:	8c 83       	std	Y+4, r24	; 0x04
	ADCA.CH0.CTRL = ADC_CH_INPUTMODE_SINGLEENDED_gc;
    20c2:	18 a3       	std	Y+32, r17	; 0x20
}
    20c4:	df 91       	pop	r29
    20c6:	cf 91       	pop	r28
    20c8:	1f 91       	pop	r17
    20ca:	08 95       	ret

000020cc <LIS331HH_RegWrite>:
#include "MPU9150.h"
#include "CanSat.h"
#include "LIS331HH.h"

void LIS331HH_RegWrite(uint8_t addres, uint8_t data){
	SENSORS_I2C.MASTER.ADDR = 0x32;
    20cc:	92 e3       	ldi	r25, 0x32	; 50
    20ce:	90 93 86 04 	sts	0x0486, r25
	while(!(SENSORS_I2C.MASTER.STATUS & TWI_MASTER_WIF_bm)) {}
    20d2:	e0 e8       	ldi	r30, 0x80	; 128
    20d4:	f4 e0       	ldi	r31, 0x04	; 4
    20d6:	94 81       	ldd	r25, Z+4	; 0x04
    20d8:	96 ff       	sbrs	r25, 6
    20da:	fd cf       	rjmp	.-6      	; 0x20d6 <LIS331HH_RegWrite+0xa>
	SENSORS_I2C.MASTER.DATA = addres;
    20dc:	80 93 87 04 	sts	0x0487, r24
	while(!(SENSORS_I2C.MASTER.STATUS & TWI_MASTER_WIF_bm)) {}
    20e0:	e0 e8       	ldi	r30, 0x80	; 128
    20e2:	f4 e0       	ldi	r31, 0x04	; 4
    20e4:	84 81       	ldd	r24, Z+4	; 0x04
    20e6:	86 ff       	sbrs	r24, 6
    20e8:	fd cf       	rjmp	.-6      	; 0x20e4 <LIS331HH_RegWrite+0x18>
	SENSORS_I2C.MASTER.DATA = data;
    20ea:	60 93 87 04 	sts	0x0487, r22
	while(!(SENSORS_I2C.MASTER.STATUS & TWI_MASTER_WIF_bm)) {}
    20ee:	e0 e8       	ldi	r30, 0x80	; 128
    20f0:	f4 e0       	ldi	r31, 0x04	; 4
    20f2:	84 81       	ldd	r24, Z+4	; 0x04
    20f4:	86 ff       	sbrs	r24, 6
    20f6:	fd cf       	rjmp	.-6      	; 0x20f2 <LIS331HH_RegWrite+0x26>
	//_delay_us(10);
	SENSORS_I2C.MASTER.CTRLC = TWI_MASTER_CMD_STOP_gc;
    20f8:	83 e0       	ldi	r24, 0x03	; 3
    20fa:	80 93 83 04 	sts	0x0483, r24
    20fe:	08 95       	ret

00002100 <LIS331HH_WakeUp>:
}

void LIS331HH_WakeUp(void){
	LIS331HH_RegWrite(0x20,0x2F);	//XYZ enabled, Normal mode, 100Hz ODR
    2100:	6f e2       	ldi	r22, 0x2F	; 47
    2102:	80 e2       	ldi	r24, 0x20	; 32
    2104:	e3 df       	rcall	.-58     	; 0x20cc <LIS331HH_RegWrite>
	LIS331HH_RegWrite(0x23,0x30);	//+/-24g
    2106:	60 e3       	ldi	r22, 0x30	; 48
    2108:	83 e2       	ldi	r24, 0x23	; 35
    210a:	e0 cf       	rjmp	.-64     	; 0x20cc <LIS331HH_RegWrite>
    210c:	08 95       	ret

0000210e <LIS331HH_Update>:
}

void LIS331HH_Update(LIS331HH_t * data){
    210e:	cf 92       	push	r12
    2110:	df 92       	push	r13
    2112:	ef 92       	push	r14
    2114:	ff 92       	push	r15
    2116:	0f 93       	push	r16
    2118:	1f 93       	push	r17
    211a:	cf 93       	push	r28
    211c:	df 93       	push	r29
    211e:	8c 01       	movw	r16, r24
	SENSORS_I2C.MASTER.ADDR = 0x32;
    2120:	82 e3       	ldi	r24, 0x32	; 50
    2122:	80 93 86 04 	sts	0x0486, r24
	while(!(SENSORS_I2C.MASTER.STATUS & TWI_MASTER_WIF_bm)) {}
    2126:	e0 e8       	ldi	r30, 0x80	; 128
    2128:	f4 e0       	ldi	r31, 0x04	; 4
    212a:	94 81       	ldd	r25, Z+4	; 0x04
    212c:	96 ff       	sbrs	r25, 6
    212e:	fd cf       	rjmp	.-6      	; 0x212a <LIS331HH_Update+0x1c>
	SENSORS_I2C.MASTER.DATA = (0x28 | 0x80);
    2130:	88 ea       	ldi	r24, 0xA8	; 168
    2132:	80 93 87 04 	sts	0x0487, r24
	while(!(SENSORS_I2C.MASTER.STATUS & TWI_MASTER_WIF_bm)) {}
    2136:	e0 e8       	ldi	r30, 0x80	; 128
    2138:	f4 e0       	ldi	r31, 0x04	; 4
    213a:	94 81       	ldd	r25, Z+4	; 0x04
    213c:	96 ff       	sbrs	r25, 6
    213e:	fd cf       	rjmp	.-6      	; 0x213a <LIS331HH_Update+0x2c>
	//_delay_us(40);
	
	SENSORS_I2C.MASTER.CTRLC = TWI_MASTER_CMD_REPSTART_gc;
    2140:	e0 e8       	ldi	r30, 0x80	; 128
    2142:	f4 e0       	ldi	r31, 0x04	; 4
    2144:	81 e0       	ldi	r24, 0x01	; 1
    2146:	83 83       	std	Z+3, r24	; 0x03
	SENSORS_I2C.MASTER.ADDR = 0x33;
    2148:	83 e3       	ldi	r24, 0x33	; 51
    214a:	86 83       	std	Z+6, r24	; 0x06
	int16_t tmp1 = I2C_ReadEnd(false);				//0x3B
    214c:	80 e0       	ldi	r24, 0x00	; 0
    214e:	8b dc       	rcall	.-1770   	; 0x1a66 <I2C_ReadEnd>
    2150:	c8 2e       	mov	r12, r24
    2152:	d1 2c       	mov	r13, r1
	tmp1 |= I2C_ReadEnd(false)<<8;					//0x3C
    2154:	80 e0       	ldi	r24, 0x00	; 0
    2156:	87 dc       	rcall	.-1778   	; 0x1a66 <I2C_ReadEnd>
    2158:	d8 2a       	or	r13, r24
	int16_t tmp2 = I2C_ReadEnd(false);				//0x3D
    215a:	80 e0       	ldi	r24, 0x00	; 0
    215c:	84 dc       	rcall	.-1784   	; 0x1a66 <I2C_ReadEnd>
    215e:	e8 2e       	mov	r14, r24
    2160:	f1 2c       	mov	r15, r1
	tmp2 |= I2C_ReadEnd(false)<<8;					//0x3E
    2162:	80 e0       	ldi	r24, 0x00	; 0
    2164:	80 dc       	rcall	.-1792   	; 0x1a66 <I2C_ReadEnd>
    2166:	f8 2a       	or	r15, r24
	int16_t tmp3 = I2C_ReadEnd(false);				//0x3F
    2168:	80 e0       	ldi	r24, 0x00	; 0
    216a:	7d dc       	rcall	.-1798   	; 0x1a66 <I2C_ReadEnd>
    216c:	c8 2f       	mov	r28, r24
    216e:	d0 e0       	ldi	r29, 0x00	; 0
	tmp3 |= I2C_ReadEnd(true)<<8;					//
    2170:	81 e0       	ldi	r24, 0x01	; 1
    2172:	79 dc       	rcall	.-1806   	; 0x1a66 <I2C_ReadEnd>
	
	data->raw_accel_x = tmp1;
    2174:	f8 01       	movw	r30, r16
    2176:	c0 82       	st	Z, r12
    2178:	d1 82       	std	Z+1, r13	; 0x01
	data->raw_accel_y = tmp2;
    217a:	e2 82       	std	Z+2, r14	; 0x02
    217c:	f3 82       	std	Z+3, r15	; 0x03
	int16_t tmp1 = I2C_ReadEnd(false);				//0x3B
	tmp1 |= I2C_ReadEnd(false)<<8;					//0x3C
	int16_t tmp2 = I2C_ReadEnd(false);				//0x3D
	tmp2 |= I2C_ReadEnd(false)<<8;					//0x3E
	int16_t tmp3 = I2C_ReadEnd(false);				//0x3F
	tmp3 |= I2C_ReadEnd(true)<<8;					//
    217e:	d8 2b       	or	r29, r24
	
	data->raw_accel_x = tmp1;
	data->raw_accel_y = tmp2;
	data->raw_accel_z = tmp3;
    2180:	c4 83       	std	Z+4, r28	; 0x04
    2182:	d5 83       	std	Z+5, r29	; 0x05
}
    2184:	df 91       	pop	r29
    2186:	cf 91       	pop	r28
    2188:	1f 91       	pop	r17
    218a:	0f 91       	pop	r16
    218c:	ff 90       	pop	r15
    218e:	ef 90       	pop	r14
    2190:	df 90       	pop	r13
    2192:	cf 90       	pop	r12
    2194:	08 95       	ret

00002196 <LIS331HH_Calc>:

void LIS331HH_Calc(allData_t * allData){
    2196:	ef 92       	push	r14
    2198:	ff 92       	push	r15
    219a:	0f 93       	push	r16
    219c:	1f 93       	push	r17
    219e:	cf 93       	push	r28
    21a0:	df 93       	push	r29
    21a2:	cd b7       	in	r28, 0x3d	; 61
    21a4:	de b7       	in	r29, 0x3e	; 62
    21a6:	2c 97       	sbiw	r28, 0x0c	; 12
    21a8:	cd bf       	out	0x3d, r28	; 61
    21aa:	de bf       	out	0x3e, r29	; 62
    21ac:	7c 01       	movw	r14, r24
	float volatile tmp1, tmp2, tmp3;
	float offset = -0.2246;
	
	tmp1 = (allData->LIS331HH->raw_accel_x)*(48/65536.0);
    21ae:	fc 01       	movw	r30, r24
    21b0:	04 85       	ldd	r16, Z+12	; 0x0c
    21b2:	15 85       	ldd	r17, Z+13	; 0x0d
    21b4:	f8 01       	movw	r30, r16
    21b6:	60 81       	ld	r22, Z
    21b8:	71 81       	ldd	r23, Z+1	; 0x01
    21ba:	07 2e       	mov	r0, r23
    21bc:	00 0c       	add	r0, r0
    21be:	88 0b       	sbc	r24, r24
    21c0:	99 0b       	sbc	r25, r25
    21c2:	0e 94 40 2a 	call	0x5480	; 0x5480 <__floatsisf>
    21c6:	20 e0       	ldi	r18, 0x00	; 0
    21c8:	30 e0       	ldi	r19, 0x00	; 0
    21ca:	40 e4       	ldi	r20, 0x40	; 64
    21cc:	5a e3       	ldi	r21, 0x3A	; 58
    21ce:	0e 94 34 2b 	call	0x5668	; 0x5668 <__mulsf3>
    21d2:	69 83       	std	Y+1, r22	; 0x01
    21d4:	7a 83       	std	Y+2, r23	; 0x02
    21d6:	8b 83       	std	Y+3, r24	; 0x03
    21d8:	9c 83       	std	Y+4, r25	; 0x04
	tmp2 = (allData->LIS331HH->raw_accel_y)*(48/65536.0);
    21da:	f8 01       	movw	r30, r16
    21dc:	62 81       	ldd	r22, Z+2	; 0x02
    21de:	73 81       	ldd	r23, Z+3	; 0x03
    21e0:	07 2e       	mov	r0, r23
    21e2:	00 0c       	add	r0, r0
    21e4:	88 0b       	sbc	r24, r24
    21e6:	99 0b       	sbc	r25, r25
    21e8:	0e 94 40 2a 	call	0x5480	; 0x5480 <__floatsisf>
    21ec:	20 e0       	ldi	r18, 0x00	; 0
    21ee:	30 e0       	ldi	r19, 0x00	; 0
    21f0:	40 e4       	ldi	r20, 0x40	; 64
    21f2:	5a e3       	ldi	r21, 0x3A	; 58
    21f4:	0e 94 34 2b 	call	0x5668	; 0x5668 <__mulsf3>
    21f8:	6d 83       	std	Y+5, r22	; 0x05
    21fa:	7e 83       	std	Y+6, r23	; 0x06
    21fc:	8f 83       	std	Y+7, r24	; 0x07
    21fe:	98 87       	std	Y+8, r25	; 0x08
	tmp3 = (allData->LIS331HH->raw_accel_z)*(48/65536.0);
    2200:	f8 01       	movw	r30, r16
    2202:	64 81       	ldd	r22, Z+4	; 0x04
    2204:	75 81       	ldd	r23, Z+5	; 0x05
    2206:	07 2e       	mov	r0, r23
    2208:	00 0c       	add	r0, r0
    220a:	88 0b       	sbc	r24, r24
    220c:	99 0b       	sbc	r25, r25
    220e:	0e 94 40 2a 	call	0x5480	; 0x5480 <__floatsisf>
    2212:	20 e0       	ldi	r18, 0x00	; 0
    2214:	30 e0       	ldi	r19, 0x00	; 0
    2216:	40 e4       	ldi	r20, 0x40	; 64
    2218:	5a e3       	ldi	r21, 0x3A	; 58
    221a:	0e 94 34 2b 	call	0x5668	; 0x5668 <__mulsf3>
    221e:	69 87       	std	Y+9, r22	; 0x09
    2220:	7a 87       	std	Y+10, r23	; 0x0a
    2222:	8b 87       	std	Y+11, r24	; 0x0b
    2224:	9c 87       	std	Y+12, r25	; 0x0c
	
	allData->LIS331HH->accel_x = tmp1-offset;
    2226:	69 81       	ldd	r22, Y+1	; 0x01
    2228:	7a 81       	ldd	r23, Y+2	; 0x02
    222a:	8b 81       	ldd	r24, Y+3	; 0x03
    222c:	9c 81       	ldd	r25, Y+4	; 0x04
    222e:	2b e8       	ldi	r18, 0x8B	; 139
    2230:	3d ef       	ldi	r19, 0xFD	; 253
    2232:	45 e6       	ldi	r20, 0x65	; 101
    2234:	5e e3       	ldi	r21, 0x3E	; 62
    2236:	0e 94 3d 29 	call	0x527a	; 0x527a <__addsf3>
    223a:	f8 01       	movw	r30, r16
    223c:	66 83       	std	Z+6, r22	; 0x06
    223e:	77 83       	std	Z+7, r23	; 0x07
    2240:	80 87       	std	Z+8, r24	; 0x08
    2242:	91 87       	std	Z+9, r25	; 0x09
	allData->LIS331HH->accel_y = tmp2-offset;
    2244:	f7 01       	movw	r30, r14
    2246:	04 85       	ldd	r16, Z+12	; 0x0c
    2248:	15 85       	ldd	r17, Z+13	; 0x0d
    224a:	6d 81       	ldd	r22, Y+5	; 0x05
    224c:	7e 81       	ldd	r23, Y+6	; 0x06
    224e:	8f 81       	ldd	r24, Y+7	; 0x07
    2250:	98 85       	ldd	r25, Y+8	; 0x08
    2252:	2b e8       	ldi	r18, 0x8B	; 139
    2254:	3d ef       	ldi	r19, 0xFD	; 253
    2256:	45 e6       	ldi	r20, 0x65	; 101
    2258:	5e e3       	ldi	r21, 0x3E	; 62
    225a:	0e 94 3d 29 	call	0x527a	; 0x527a <__addsf3>
    225e:	f8 01       	movw	r30, r16
    2260:	62 87       	std	Z+10, r22	; 0x0a
    2262:	73 87       	std	Z+11, r23	; 0x0b
    2264:	84 87       	std	Z+12, r24	; 0x0c
    2266:	95 87       	std	Z+13, r25	; 0x0d
	allData->LIS331HH->accel_z = tmp3+offset;
    2268:	f7 01       	movw	r30, r14
    226a:	04 85       	ldd	r16, Z+12	; 0x0c
    226c:	15 85       	ldd	r17, Z+13	; 0x0d
    226e:	69 85       	ldd	r22, Y+9	; 0x09
    2270:	7a 85       	ldd	r23, Y+10	; 0x0a
    2272:	8b 85       	ldd	r24, Y+11	; 0x0b
    2274:	9c 85       	ldd	r25, Y+12	; 0x0c
    2276:	2b e8       	ldi	r18, 0x8B	; 139
    2278:	3d ef       	ldi	r19, 0xFD	; 253
    227a:	45 e6       	ldi	r20, 0x65	; 101
    227c:	5e e3       	ldi	r21, 0x3E	; 62
    227e:	0e 94 3c 29 	call	0x5278	; 0x5278 <__subsf3>
    2282:	f8 01       	movw	r30, r16
    2284:	66 87       	std	Z+14, r22	; 0x0e
    2286:	77 87       	std	Z+15, r23	; 0x0f
    2288:	80 8b       	std	Z+16, r24	; 0x10
    228a:	91 8b       	std	Z+17, r25	; 0x11
    228c:	2c 96       	adiw	r28, 0x0c	; 12
    228e:	cd bf       	out	0x3d, r28	; 61
    2290:	de bf       	out	0x3e, r29	; 62
    2292:	df 91       	pop	r29
    2294:	cf 91       	pop	r28
    2296:	1f 91       	pop	r17
    2298:	0f 91       	pop	r16
    229a:	ff 90       	pop	r15
    229c:	ef 90       	pop	r14
    229e:	08 95       	ret

000022a0 <LPS25H_config>:
#include "I2C.h"
#include "util.h"

void LPS25H_config(void){
	//--------------urednianie: press 512, temp 64-----------
	I2C_WriteReg(0xB8,0x10,0x0F);
    22a0:	4f e0       	ldi	r20, 0x0F	; 15
    22a2:	60 e1       	ldi	r22, 0x10	; 16
    22a4:	88 eb       	ldi	r24, 0xB8	; 184
    22a6:	ec db       	rcall	.-2088   	; 0x1a80 <I2C_WriteReg>
	//------------Data ready interrupt------------------------
	I2C_WriteReg(0xB8,0x23,0x01);
    22a8:	41 e0       	ldi	r20, 0x01	; 1
    22aa:	63 e2       	ldi	r22, 0x23	; 35
    22ac:	88 eb       	ldi	r24, 0xB8	; 184
    22ae:	e8 db       	rcall	.-2096   	; 0x1a80 <I2C_WriteReg>
	//-------------active mode, 25Hz output-------------------
	I2C_WriteReg(0xB8,0x20,0xC0);
    22b0:	40 ec       	ldi	r20, 0xC0	; 192
    22b2:	60 e2       	ldi	r22, 0x20	; 32
    22b4:	88 eb       	ldi	r24, 0xB8	; 184
    22b6:	e4 cb       	rjmp	.-2104   	; 0x1a80 <I2C_WriteReg>
    22b8:	08 95       	ret

000022ba <LPS25H_update>:
}

void LPS25H_update(LPS25H_t * LPS25H){
    22ba:	0f 93       	push	r16
    22bc:	1f 93       	push	r17
    22be:	cf 93       	push	r28
    22c0:	df 93       	push	r29
    22c2:	cd b7       	in	r28, 0x3d	; 61
    22c4:	de b7       	in	r29, 0x3e	; 62
    22c6:	2a 97       	sbiw	r28, 0x0a	; 10
    22c8:	cd bf       	out	0x3d, r28	; 61
    22ca:	de bf       	out	0x3e, r29	; 62
    22cc:	8c 01       	movw	r16, r24
	uint8_t bufor123[10];
	I2C_ReadRegister(0xB8, (0x28 | 0x80), 5, bufor123);
    22ce:	9e 01       	movw	r18, r28
    22d0:	2f 5f       	subi	r18, 0xFF	; 255
    22d2:	3f 4f       	sbci	r19, 0xFF	; 255
    22d4:	45 e0       	ldi	r20, 0x05	; 5
    22d6:	68 ea       	ldi	r22, 0xA8	; 168
    22d8:	88 eb       	ldi	r24, 0xB8	; 184
    22da:	eb db       	rcall	.-2090   	; 0x1ab2 <I2C_ReadRegister>
	
	LPS25H->raw_pressure = (uint32_t)(bufor123[0]) | (uint32_t)(bufor123[1])<<8 | (uint32_t)(bufor123[2])<<16;
    22dc:	8a 81       	ldd	r24, Y+2	; 0x02
    22de:	4b 81       	ldd	r20, Y+3	; 0x03
    22e0:	50 e0       	ldi	r21, 0x00	; 0
    22e2:	60 e0       	ldi	r22, 0x00	; 0
    22e4:	70 e0       	ldi	r23, 0x00	; 0
    22e6:	ba 01       	movw	r22, r20
    22e8:	55 27       	eor	r21, r21
    22ea:	44 27       	eor	r20, r20
    22ec:	58 2b       	or	r21, r24
    22ee:	89 81       	ldd	r24, Y+1	; 0x01
    22f0:	48 2b       	or	r20, r24
    22f2:	f8 01       	movw	r30, r16
    22f4:	40 83       	st	Z, r20
    22f6:	51 83       	std	Z+1, r21	; 0x01
    22f8:	62 83       	std	Z+2, r22	; 0x02
    22fa:	73 83       	std	Z+3, r23	; 0x03
	LPS25H->raw_temp = bufor123[3] | (bufor123[4]<<8);
    22fc:	8d 81       	ldd	r24, Y+5	; 0x05
    22fe:	90 e0       	ldi	r25, 0x00	; 0
    2300:	98 2f       	mov	r25, r24
    2302:	88 27       	eor	r24, r24
    2304:	2c 81       	ldd	r18, Y+4	; 0x04
    2306:	82 2b       	or	r24, r18
    2308:	80 87       	std	Z+8, r24	; 0x08
    230a:	91 87       	std	Z+9, r25	; 0x09
}
    230c:	2a 96       	adiw	r28, 0x0a	; 10
    230e:	cd bf       	out	0x3d, r28	; 61
    2310:	de bf       	out	0x3e, r29	; 62
    2312:	df 91       	pop	r29
    2314:	cf 91       	pop	r28
    2316:	1f 91       	pop	r17
    2318:	0f 91       	pop	r16
    231a:	08 95       	ret

0000231c <LPS25H_calc>:

void LPS25H_calc(LPS25H_t * LPS25H){
    231c:	cf 93       	push	r28
    231e:	df 93       	push	r29
    2320:	ec 01       	movw	r28, r24
	float x1;
	x1 = LPS25H->raw_pressure;
    2322:	68 81       	ld	r22, Y
    2324:	79 81       	ldd	r23, Y+1	; 0x01
    2326:	8a 81       	ldd	r24, Y+2	; 0x02
    2328:	9b 81       	ldd	r25, Y+3	; 0x03
    232a:	0e 94 3e 2a 	call	0x547c	; 0x547c <__floatunsisf>
	LPS25H->pressure = x1/4096.0;
    232e:	20 e0       	ldi	r18, 0x00	; 0
    2330:	30 e0       	ldi	r19, 0x00	; 0
    2332:	40 e8       	ldi	r20, 0x80	; 128
    2334:	59 e3       	ldi	r21, 0x39	; 57
    2336:	0e 94 34 2b 	call	0x5668	; 0x5668 <__mulsf3>
    233a:	6c 83       	std	Y+4, r22	; 0x04
    233c:	7d 83       	std	Y+5, r23	; 0x05
    233e:	8e 83       	std	Y+6, r24	; 0x06
    2340:	9f 83       	std	Y+7, r25	; 0x07
	x1 = LPS25H->raw_temp;
    2342:	68 85       	ldd	r22, Y+8	; 0x08
    2344:	79 85       	ldd	r23, Y+9	; 0x09
    2346:	07 2e       	mov	r0, r23
    2348:	00 0c       	add	r0, r0
    234a:	88 0b       	sbc	r24, r24
    234c:	99 0b       	sbc	r25, r25
    234e:	0e 94 40 2a 	call	0x5480	; 0x5480 <__floatsisf>
	LPS25H->temp = x1/480.0+42.5;
    2352:	20 e0       	ldi	r18, 0x00	; 0
    2354:	30 e0       	ldi	r19, 0x00	; 0
    2356:	40 ef       	ldi	r20, 0xF0	; 240
    2358:	53 e4       	ldi	r21, 0x43	; 67
    235a:	0e 94 a5 29 	call	0x534a	; 0x534a <__divsf3>
    235e:	20 e0       	ldi	r18, 0x00	; 0
    2360:	30 e0       	ldi	r19, 0x00	; 0
    2362:	4a e2       	ldi	r20, 0x2A	; 42
    2364:	52 e4       	ldi	r21, 0x42	; 66
    2366:	0e 94 3d 29 	call	0x527a	; 0x527a <__addsf3>
    236a:	6a 87       	std	Y+10, r22	; 0x0a
    236c:	7b 87       	std	Y+11, r23	; 0x0b
    236e:	8c 87       	std	Y+12, r24	; 0x0c
    2370:	9d 87       	std	Y+13, r25	; 0x0d
	
	//check data
}
    2372:	df 91       	pop	r29
    2374:	cf 91       	pop	r28
    2376:	08 95       	ret

00002378 <altitudeCalcLPS>:


void altitudeCalcLPS(LPS25H_t * LPS25H){
    2378:	4f 92       	push	r4
    237a:	5f 92       	push	r5
    237c:	6f 92       	push	r6
    237e:	7f 92       	push	r7
    2380:	8f 92       	push	r8
    2382:	9f 92       	push	r9
    2384:	af 92       	push	r10
    2386:	bf 92       	push	r11
    2388:	cf 92       	push	r12
    238a:	df 92       	push	r13
    238c:	ef 92       	push	r14
    238e:	ff 92       	push	r15
    2390:	cf 93       	push	r28
    2392:	df 93       	push	r29
    2394:	ec 01       	movw	r28, r24
	//----Calculate new altitude----------------------------
	float new_altitude = altitudeCalc(LPS25H->pressure, LPS25H->start_pressure);
    2396:	2e 85       	ldd	r18, Y+14	; 0x0e
    2398:	3f 85       	ldd	r19, Y+15	; 0x0f
    239a:	48 89       	ldd	r20, Y+16	; 0x10
    239c:	59 89       	ldd	r21, Y+17	; 0x11
    239e:	6c 81       	ldd	r22, Y+4	; 0x04
    23a0:	7d 81       	ldd	r23, Y+5	; 0x05
    23a2:	8e 81       	ldd	r24, Y+6	; 0x06
    23a4:	9f 81       	ldd	r25, Y+7	; 0x07
    23a6:	0e 94 a5 29 	call	0x534a	; 0x534a <__divsf3>
    23aa:	2e e5       	ldi	r18, 0x5E	; 94
    23ac:	34 ed       	ldi	r19, 0xD4	; 212
    23ae:	42 e4       	ldi	r20, 0x42	; 66
    23b0:	5e e3       	ldi	r21, 0x3E	; 62
    23b2:	0e 94 97 2b 	call	0x572e	; 0x572e <pow>
    23b6:	2b 01       	movw	r4, r22
    23b8:	3c 01       	movw	r6, r24
	
	//----Exponenetal filtering-----------------------------
	float old_altitude = LPS25H->altitude;
    23ba:	8a 88       	ldd	r8, Y+18	; 0x12
    23bc:	9b 88       	ldd	r9, Y+19	; 0x13
    23be:	ac 88       	ldd	r10, Y+20	; 0x14
    23c0:	bd 88       	ldd	r11, Y+21	; 0x15
	LPS25H->altitude = old_altitude*(1-LPS25H_alti_alpha) + new_altitude*LPS25H_alti_alpha;	//Exponential smoothing
    23c2:	2d ec       	ldi	r18, 0xCD	; 205
    23c4:	3c ec       	ldi	r19, 0xCC	; 204
    23c6:	4c e4       	ldi	r20, 0x4C	; 76
    23c8:	5f e3       	ldi	r21, 0x3F	; 63
    23ca:	c5 01       	movw	r24, r10
    23cc:	b4 01       	movw	r22, r8
    23ce:	0e 94 34 2b 	call	0x5668	; 0x5668 <__mulsf3>
    23d2:	6b 01       	movw	r12, r22
    23d4:	7c 01       	movw	r14, r24
}


void altitudeCalcLPS(LPS25H_t * LPS25H){
	//----Calculate new altitude----------------------------
	float new_altitude = altitudeCalc(LPS25H->pressure, LPS25H->start_pressure);
    23d6:	a3 01       	movw	r20, r6
    23d8:	92 01       	movw	r18, r4
    23da:	60 e0       	ldi	r22, 0x00	; 0
    23dc:	70 e0       	ldi	r23, 0x00	; 0
    23de:	80 e8       	ldi	r24, 0x80	; 128
    23e0:	9f e3       	ldi	r25, 0x3F	; 63
    23e2:	0e 94 3c 29 	call	0x5278	; 0x5278 <__subsf3>
    23e6:	20 e0       	ldi	r18, 0x00	; 0
    23e8:	32 e1       	ldi	r19, 0x12	; 18
    23ea:	4a e2       	ldi	r20, 0x2A	; 42
    23ec:	57 e4       	ldi	r21, 0x47	; 71
    23ee:	0e 94 34 2b 	call	0x5668	; 0x5668 <__mulsf3>
	
	//----Exponenetal filtering-----------------------------
	float old_altitude = LPS25H->altitude;
	LPS25H->altitude = old_altitude*(1-LPS25H_alti_alpha) + new_altitude*LPS25H_alti_alpha;	//Exponential smoothing
    23f2:	2d ec       	ldi	r18, 0xCD	; 205
    23f4:	3c ec       	ldi	r19, 0xCC	; 204
    23f6:	4c e4       	ldi	r20, 0x4C	; 76
    23f8:	5e e3       	ldi	r21, 0x3E	; 62
    23fa:	0e 94 34 2b 	call	0x5668	; 0x5668 <__mulsf3>
    23fe:	9b 01       	movw	r18, r22
    2400:	ac 01       	movw	r20, r24
    2402:	c7 01       	movw	r24, r14
    2404:	b6 01       	movw	r22, r12
    2406:	0e 94 3d 29 	call	0x527a	; 0x527a <__addsf3>
    240a:	6b 01       	movw	r12, r22
    240c:	7c 01       	movw	r14, r24
    240e:	6a 8b       	std	Y+18, r22	; 0x12
    2410:	7b 8b       	std	Y+19, r23	; 0x13
    2412:	8c 8b       	std	Y+20, r24	; 0x14
    2414:	9d 8b       	std	Y+21, r25	; 0x15
	
	//----Ascent velocity-----------------------------------
	LPS25H->velocity = LPS25H->velocity*(1-LPS25H_velo_alpha) + (LPS25H->altitude-old_altitude)*LPS25H_velo_alpha* sampling_rate;
    2416:	26 e6       	ldi	r18, 0x66	; 102
    2418:	36 e6       	ldi	r19, 0x66	; 102
    241a:	46 e6       	ldi	r20, 0x66	; 102
    241c:	5f e3       	ldi	r21, 0x3F	; 63
    241e:	6a 8d       	ldd	r22, Y+26	; 0x1a
    2420:	7b 8d       	ldd	r23, Y+27	; 0x1b
    2422:	8c 8d       	ldd	r24, Y+28	; 0x1c
    2424:	9d 8d       	ldd	r25, Y+29	; 0x1d
    2426:	0e 94 34 2b 	call	0x5668	; 0x5668 <__mulsf3>
    242a:	2b 01       	movw	r4, r22
    242c:	3c 01       	movw	r6, r24
    242e:	a5 01       	movw	r20, r10
    2430:	94 01       	movw	r18, r8
    2432:	c7 01       	movw	r24, r14
    2434:	b6 01       	movw	r22, r12
    2436:	0e 94 3c 29 	call	0x5278	; 0x5278 <__subsf3>
    243a:	2d ec       	ldi	r18, 0xCD	; 205
    243c:	3c ec       	ldi	r19, 0xCC	; 204
    243e:	4c ec       	ldi	r20, 0xCC	; 204
    2440:	5d e3       	ldi	r21, 0x3D	; 61
    2442:	0e 94 34 2b 	call	0x5668	; 0x5668 <__mulsf3>
    2446:	20 e0       	ldi	r18, 0x00	; 0
    2448:	30 e0       	ldi	r19, 0x00	; 0
    244a:	48 ec       	ldi	r20, 0xC8	; 200
    244c:	51 e4       	ldi	r21, 0x41	; 65
    244e:	0e 94 34 2b 	call	0x5668	; 0x5668 <__mulsf3>
    2452:	9b 01       	movw	r18, r22
    2454:	ac 01       	movw	r20, r24
    2456:	c3 01       	movw	r24, r6
    2458:	b2 01       	movw	r22, r4
    245a:	0e 94 3d 29 	call	0x527a	; 0x527a <__addsf3>
    245e:	6a 8f       	std	Y+26, r22	; 0x1a
    2460:	7b 8f       	std	Y+27, r23	; 0x1b
    2462:	8c 8f       	std	Y+28, r24	; 0x1c
    2464:	9d 8f       	std	Y+29, r25	; 0x1d
}
    2466:	df 91       	pop	r29
    2468:	cf 91       	pop	r28
    246a:	ff 90       	pop	r15
    246c:	ef 90       	pop	r14
    246e:	df 90       	pop	r13
    2470:	cf 90       	pop	r12
    2472:	bf 90       	pop	r11
    2474:	af 90       	pop	r10
    2476:	9f 90       	pop	r9
    2478:	8f 90       	pop	r8
    247a:	7f 90       	pop	r7
    247c:	6f 90       	pop	r6
    247e:	5f 90       	pop	r5
    2480:	4f 90       	pop	r4
    2482:	08 95       	ret

00002484 <LSM9DS0_Init>:
#include "CanSat.h"

void LSM9DS0_Init(void){
	//GYRO
	//--------------Rate 380Hz BW 100Hz-----------------------
	SENSORS_I2C.MASTER.ADDR = 0xD4;
    2484:	84 ed       	ldi	r24, 0xD4	; 212
    2486:	80 93 86 04 	sts	0x0486, r24
	while(!(SENSORS_I2C.MASTER.STATUS & TWI_MASTER_WIF_bm)) {}
    248a:	e0 e8       	ldi	r30, 0x80	; 128
    248c:	f4 e0       	ldi	r31, 0x04	; 4
    248e:	84 81       	ldd	r24, Z+4	; 0x04
    2490:	86 ff       	sbrs	r24, 6
    2492:	fd cf       	rjmp	.-6      	; 0x248e <LSM9DS0_Init+0xa>
	SENSORS_I2C.MASTER.DATA = 0x20;
    2494:	80 e2       	ldi	r24, 0x20	; 32
    2496:	80 93 87 04 	sts	0x0487, r24
	while(!(SENSORS_I2C.MASTER.STATUS & TWI_MASTER_WIF_bm)) {}
    249a:	e0 e8       	ldi	r30, 0x80	; 128
    249c:	f4 e0       	ldi	r31, 0x04	; 4
    249e:	84 81       	ldd	r24, Z+4	; 0x04
    24a0:	86 ff       	sbrs	r24, 6
    24a2:	fd cf       	rjmp	.-6      	; 0x249e <LSM9DS0_Init+0x1a>
	SENSORS_I2C.MASTER.DATA = 0xBF;
    24a4:	8f eb       	ldi	r24, 0xBF	; 191
    24a6:	80 93 87 04 	sts	0x0487, r24
	while(!(SENSORS_I2C.MASTER.STATUS & TWI_MASTER_WIF_bm)) {}
    24aa:	e0 e8       	ldi	r30, 0x80	; 128
    24ac:	f4 e0       	ldi	r31, 0x04	; 4
    24ae:	84 81       	ldd	r24, Z+4	; 0x04
    24b0:	86 ff       	sbrs	r24, 6
    24b2:	fd cf       	rjmp	.-6      	; 0x24ae <LSM9DS0_Init+0x2a>
	SENSORS_I2C.MASTER.CTRLC = TWI_MASTER_CMD_STOP_gc;
    24b4:	e0 e8       	ldi	r30, 0x80	; 128
    24b6:	f4 e0       	ldi	r31, 0x04	; 4
    24b8:	83 e0       	ldi	r24, 0x03	; 3
    24ba:	83 83       	std	Z+3, r24	; 0x03
	//_delay_us(40);
	//------------Scale 2000 deg/s----------------------------
	SENSORS_I2C.MASTER.ADDR = 0xD4;
    24bc:	84 ed       	ldi	r24, 0xD4	; 212
    24be:	86 83       	std	Z+6, r24	; 0x06
	while(!(SENSORS_I2C.MASTER.STATUS & TWI_MASTER_WIF_bm)) {}
    24c0:	84 81       	ldd	r24, Z+4	; 0x04
    24c2:	86 ff       	sbrs	r24, 6
    24c4:	fd cf       	rjmp	.-6      	; 0x24c0 <LSM9DS0_Init+0x3c>
	SENSORS_I2C.MASTER.DATA = 0x23;
    24c6:	83 e2       	ldi	r24, 0x23	; 35
    24c8:	80 93 87 04 	sts	0x0487, r24
	while(!(SENSORS_I2C.MASTER.STATUS & TWI_MASTER_WIF_bm)) {}
    24cc:	e0 e8       	ldi	r30, 0x80	; 128
    24ce:	f4 e0       	ldi	r31, 0x04	; 4
    24d0:	84 81       	ldd	r24, Z+4	; 0x04
    24d2:	86 ff       	sbrs	r24, 6
    24d4:	fd cf       	rjmp	.-6      	; 0x24d0 <LSM9DS0_Init+0x4c>
	SENSORS_I2C.MASTER.DATA = 0x20;
    24d6:	80 e2       	ldi	r24, 0x20	; 32
    24d8:	80 93 87 04 	sts	0x0487, r24
	while(!(SENSORS_I2C.MASTER.STATUS & TWI_MASTER_WIF_bm)) {}
    24dc:	e0 e8       	ldi	r30, 0x80	; 128
    24de:	f4 e0       	ldi	r31, 0x04	; 4
    24e0:	84 81       	ldd	r24, Z+4	; 0x04
    24e2:	86 ff       	sbrs	r24, 6
    24e4:	fd cf       	rjmp	.-6      	; 0x24e0 <LSM9DS0_Init+0x5c>
	SENSORS_I2C.MASTER.CTRLC = TWI_MASTER_CMD_STOP_gc;
    24e6:	e0 e8       	ldi	r30, 0x80	; 128
    24e8:	f4 e0       	ldi	r31, 0x04	; 4
    24ea:	83 e0       	ldi	r24, 0x03	; 3
    24ec:	83 83       	std	Z+3, r24	; 0x03
	//_delay_us(40);
	
	//ACCEL
	//-------------Rate 400Hz --------------------------------
	SENSORS_I2C.MASTER.ADDR = 0x3A;
    24ee:	8a e3       	ldi	r24, 0x3A	; 58
    24f0:	86 83       	std	Z+6, r24	; 0x06
	while(!(SENSORS_I2C.MASTER.STATUS & TWI_MASTER_WIF_bm)) {}
    24f2:	84 81       	ldd	r24, Z+4	; 0x04
    24f4:	86 ff       	sbrs	r24, 6
    24f6:	fd cf       	rjmp	.-6      	; 0x24f2 <LSM9DS0_Init+0x6e>
	SENSORS_I2C.MASTER.DATA = 0x20;
    24f8:	80 e2       	ldi	r24, 0x20	; 32
    24fa:	80 93 87 04 	sts	0x0487, r24
	while(!(SENSORS_I2C.MASTER.STATUS & TWI_MASTER_WIF_bm)) {}
    24fe:	e0 e8       	ldi	r30, 0x80	; 128
    2500:	f4 e0       	ldi	r31, 0x04	; 4
    2502:	84 81       	ldd	r24, Z+4	; 0x04
    2504:	86 ff       	sbrs	r24, 6
    2506:	fd cf       	rjmp	.-6      	; 0x2502 <LSM9DS0_Init+0x7e>
	SENSORS_I2C.MASTER.DATA = 0x87;
    2508:	87 e8       	ldi	r24, 0x87	; 135
    250a:	80 93 87 04 	sts	0x0487, r24
	while(!(SENSORS_I2C.MASTER.STATUS & TWI_MASTER_WIF_bm)) {}
    250e:	e0 e8       	ldi	r30, 0x80	; 128
    2510:	f4 e0       	ldi	r31, 0x04	; 4
    2512:	84 81       	ldd	r24, Z+4	; 0x04
    2514:	86 ff       	sbrs	r24, 6
    2516:	fd cf       	rjmp	.-6      	; 0x2512 <LSM9DS0_Init+0x8e>
	SENSORS_I2C.MASTER.CTRLC = TWI_MASTER_CMD_STOP_gc;
    2518:	e0 e8       	ldi	r30, 0x80	; 128
    251a:	f4 e0       	ldi	r31, 0x04	; 4
    251c:	83 e0       	ldi	r24, 0x03	; 3
    251e:	83 83       	std	Z+3, r24	; 0x03
	
	//-------------BW 194Hz, +/- 16g--------------------------
	SENSORS_I2C.MASTER.ADDR = 0x3A;
    2520:	8a e3       	ldi	r24, 0x3A	; 58
    2522:	86 83       	std	Z+6, r24	; 0x06
	while(!(SENSORS_I2C.MASTER.STATUS & TWI_MASTER_WIF_bm)) {}
    2524:	84 81       	ldd	r24, Z+4	; 0x04
    2526:	86 ff       	sbrs	r24, 6
    2528:	fd cf       	rjmp	.-6      	; 0x2524 <LSM9DS0_Init+0xa0>
	SENSORS_I2C.MASTER.DATA = 0x21;
    252a:	81 e2       	ldi	r24, 0x21	; 33
    252c:	80 93 87 04 	sts	0x0487, r24
	while(!(SENSORS_I2C.MASTER.STATUS & TWI_MASTER_WIF_bm)) {}
    2530:	e0 e8       	ldi	r30, 0x80	; 128
    2532:	f4 e0       	ldi	r31, 0x04	; 4
    2534:	84 81       	ldd	r24, Z+4	; 0x04
    2536:	86 ff       	sbrs	r24, 6
    2538:	fd cf       	rjmp	.-6      	; 0x2534 <LSM9DS0_Init+0xb0>
	SENSORS_I2C.MASTER.DATA = 0x60;
    253a:	80 e6       	ldi	r24, 0x60	; 96
    253c:	80 93 87 04 	sts	0x0487, r24
	while(!(SENSORS_I2C.MASTER.STATUS & TWI_MASTER_WIF_bm)) {}
    2540:	e0 e8       	ldi	r30, 0x80	; 128
    2542:	f4 e0       	ldi	r31, 0x04	; 4
    2544:	84 81       	ldd	r24, Z+4	; 0x04
    2546:	86 ff       	sbrs	r24, 6
    2548:	fd cf       	rjmp	.-6      	; 0x2544 <LSM9DS0_Init+0xc0>
	SENSORS_I2C.MASTER.CTRLC = TWI_MASTER_CMD_STOP_gc;
    254a:	e0 e8       	ldi	r30, 0x80	; 128
    254c:	f4 e0       	ldi	r31, 0x04	; 4
    254e:	83 e0       	ldi	r24, 0x03	; 3
    2550:	83 83       	std	Z+3, r24	; 0x03
	
	//MAG
	//-------------Rate 50Hz Hi res--------------------------
	SENSORS_I2C.MASTER.ADDR = 0x3A;
    2552:	8a e3       	ldi	r24, 0x3A	; 58
    2554:	86 83       	std	Z+6, r24	; 0x06
	while(!(SENSORS_I2C.MASTER.STATUS & TWI_MASTER_WIF_bm)) {}
    2556:	84 81       	ldd	r24, Z+4	; 0x04
    2558:	86 ff       	sbrs	r24, 6
    255a:	fd cf       	rjmp	.-6      	; 0x2556 <LSM9DS0_Init+0xd2>
	SENSORS_I2C.MASTER.DATA = 0x24;
    255c:	84 e2       	ldi	r24, 0x24	; 36
    255e:	80 93 87 04 	sts	0x0487, r24
	while(!(SENSORS_I2C.MASTER.STATUS & TWI_MASTER_WIF_bm)) {}
    2562:	e0 e8       	ldi	r30, 0x80	; 128
    2564:	f4 e0       	ldi	r31, 0x04	; 4
    2566:	84 81       	ldd	r24, Z+4	; 0x04
    2568:	86 ff       	sbrs	r24, 6
    256a:	fd cf       	rjmp	.-6      	; 0x2566 <LSM9DS0_Init+0xe2>
	SENSORS_I2C.MASTER.DATA = 0xF0;
    256c:	80 ef       	ldi	r24, 0xF0	; 240
    256e:	80 93 87 04 	sts	0x0487, r24
	while(!(SENSORS_I2C.MASTER.STATUS & TWI_MASTER_WIF_bm)) {}
    2572:	e0 e8       	ldi	r30, 0x80	; 128
    2574:	f4 e0       	ldi	r31, 0x04	; 4
    2576:	84 81       	ldd	r24, Z+4	; 0x04
    2578:	86 ff       	sbrs	r24, 6
    257a:	fd cf       	rjmp	.-6      	; 0x2576 <LSM9DS0_Init+0xf2>
	SENSORS_I2C.MASTER.CTRLC = TWI_MASTER_CMD_STOP_gc;
    257c:	e0 e8       	ldi	r30, 0x80	; 128
    257e:	f4 e0       	ldi	r31, 0x04	; 4
    2580:	83 e0       	ldi	r24, 0x03	; 3
    2582:	83 83       	std	Z+3, r24	; 0x03
	
	//-------------+/-2Gauss--------------------------
	SENSORS_I2C.MASTER.ADDR = 0x3A;
    2584:	8a e3       	ldi	r24, 0x3A	; 58
    2586:	86 83       	std	Z+6, r24	; 0x06
	while(!(SENSORS_I2C.MASTER.STATUS & TWI_MASTER_WIF_bm)) {}
    2588:	84 81       	ldd	r24, Z+4	; 0x04
    258a:	86 ff       	sbrs	r24, 6
    258c:	fd cf       	rjmp	.-6      	; 0x2588 <LSM9DS0_Init+0x104>
	SENSORS_I2C.MASTER.DATA = 0x25;
    258e:	85 e2       	ldi	r24, 0x25	; 37
    2590:	80 93 87 04 	sts	0x0487, r24
	while(!(SENSORS_I2C.MASTER.STATUS & TWI_MASTER_WIF_bm)) {}
    2594:	e0 e8       	ldi	r30, 0x80	; 128
    2596:	f4 e0       	ldi	r31, 0x04	; 4
    2598:	84 81       	ldd	r24, Z+4	; 0x04
    259a:	86 ff       	sbrs	r24, 6
    259c:	fd cf       	rjmp	.-6      	; 0x2598 <LSM9DS0_Init+0x114>
	SENSORS_I2C.MASTER.DATA = 0x00;
    259e:	10 92 87 04 	sts	0x0487, r1
	while(!(SENSORS_I2C.MASTER.STATUS & TWI_MASTER_WIF_bm)) {}
    25a2:	e0 e8       	ldi	r30, 0x80	; 128
    25a4:	f4 e0       	ldi	r31, 0x04	; 4
    25a6:	84 81       	ldd	r24, Z+4	; 0x04
    25a8:	86 ff       	sbrs	r24, 6
    25aa:	fd cf       	rjmp	.-6      	; 0x25a6 <LSM9DS0_Init+0x122>
	SENSORS_I2C.MASTER.CTRLC = TWI_MASTER_CMD_STOP_gc;
    25ac:	e0 e8       	ldi	r30, 0x80	; 128
    25ae:	f4 e0       	ldi	r31, 0x04	; 4
    25b0:	83 e0       	ldi	r24, 0x03	; 3
    25b2:	83 83       	std	Z+3, r24	; 0x03
	
	//-------------Continuous mode--------------------
	SENSORS_I2C.MASTER.ADDR = 0x3A;
    25b4:	8a e3       	ldi	r24, 0x3A	; 58
    25b6:	86 83       	std	Z+6, r24	; 0x06
	while(!(SENSORS_I2C.MASTER.STATUS & TWI_MASTER_WIF_bm)) {}
    25b8:	84 81       	ldd	r24, Z+4	; 0x04
    25ba:	86 ff       	sbrs	r24, 6
    25bc:	fd cf       	rjmp	.-6      	; 0x25b8 <LSM9DS0_Init+0x134>
	SENSORS_I2C.MASTER.DATA = 0x26;
    25be:	86 e2       	ldi	r24, 0x26	; 38
    25c0:	80 93 87 04 	sts	0x0487, r24
	while(!(SENSORS_I2C.MASTER.STATUS & TWI_MASTER_WIF_bm)) {}
    25c4:	e0 e8       	ldi	r30, 0x80	; 128
    25c6:	f4 e0       	ldi	r31, 0x04	; 4
    25c8:	84 81       	ldd	r24, Z+4	; 0x04
    25ca:	86 ff       	sbrs	r24, 6
    25cc:	fd cf       	rjmp	.-6      	; 0x25c8 <LSM9DS0_Init+0x144>
	SENSORS_I2C.MASTER.DATA = 0x00;
    25ce:	10 92 87 04 	sts	0x0487, r1
	while(!(SENSORS_I2C.MASTER.STATUS & TWI_MASTER_WIF_bm)) {}
    25d2:	e0 e8       	ldi	r30, 0x80	; 128
    25d4:	f4 e0       	ldi	r31, 0x04	; 4
    25d6:	84 81       	ldd	r24, Z+4	; 0x04
    25d8:	86 ff       	sbrs	r24, 6
    25da:	fd cf       	rjmp	.-6      	; 0x25d6 <LSM9DS0_Init+0x152>
	SENSORS_I2C.MASTER.CTRLC = TWI_MASTER_CMD_STOP_gc;
    25dc:	83 e0       	ldi	r24, 0x03	; 3
    25de:	80 93 83 04 	sts	0x0483, r24
    25e2:	08 95       	ret

000025e4 <LSM9DS0_Update>:
}

void LSM9DS0_Update(LSM9DS0_t * dane){
    25e4:	0f 93       	push	r16
    25e6:	1f 93       	push	r17
    25e8:	cf 93       	push	r28
    25ea:	df 93       	push	r29
    25ec:	ec 01       	movw	r28, r24
	
	//GYRO update
	SENSORS_I2C.MASTER.ADDR = 0xD4;
    25ee:	84 ed       	ldi	r24, 0xD4	; 212
    25f0:	80 93 86 04 	sts	0x0486, r24
	while(!(SENSORS_I2C.MASTER.STATUS & TWI_MASTER_WIF_bm)) {}
    25f4:	e0 e8       	ldi	r30, 0x80	; 128
    25f6:	f4 e0       	ldi	r31, 0x04	; 4
    25f8:	84 81       	ldd	r24, Z+4	; 0x04
    25fa:	86 ff       	sbrs	r24, 6
    25fc:	fd cf       	rjmp	.-6      	; 0x25f8 <LSM9DS0_Update+0x14>
	SENSORS_I2C.MASTER.DATA = (0x28 | 0x80);
    25fe:	88 ea       	ldi	r24, 0xA8	; 168
    2600:	80 93 87 04 	sts	0x0487, r24
	while(!(SENSORS_I2C.MASTER.STATUS & TWI_MASTER_WIF_bm)) {}
    2604:	e0 e8       	ldi	r30, 0x80	; 128
    2606:	f4 e0       	ldi	r31, 0x04	; 4
    2608:	84 81       	ldd	r24, Z+4	; 0x04
    260a:	86 ff       	sbrs	r24, 6
    260c:	fd cf       	rjmp	.-6      	; 0x2608 <LSM9DS0_Update+0x24>
	//_delay_us(40);
	
	SENSORS_I2C.MASTER.CTRLC = TWI_MASTER_CMD_REPSTART_gc;
    260e:	00 e8       	ldi	r16, 0x80	; 128
    2610:	14 e0       	ldi	r17, 0x04	; 4
    2612:	81 e0       	ldi	r24, 0x01	; 1
    2614:	f8 01       	movw	r30, r16
    2616:	83 83       	std	Z+3, r24	; 0x03
	SENSORS_I2C.MASTER.ADDR = 0xD5;
    2618:	85 ed       	ldi	r24, 0xD5	; 213
    261a:	86 83       	std	Z+6, r24	; 0x06
	dane->raw_gyro_x = I2C_ReadEnd(false);				//0x3B
    261c:	80 e0       	ldi	r24, 0x00	; 0
    261e:	23 da       	rcall	.-3002   	; 0x1a66 <I2C_ReadEnd>
    2620:	90 e0       	ldi	r25, 0x00	; 0
    2622:	8e 83       	std	Y+6, r24	; 0x06
    2624:	9f 83       	std	Y+7, r25	; 0x07
	dane->raw_gyro_x |= I2C_ReadEnd(false) << 8;		//0x3C
    2626:	80 e0       	ldi	r24, 0x00	; 0
    2628:	1e da       	rcall	.-3012   	; 0x1a66 <I2C_ReadEnd>
    262a:	2e 81       	ldd	r18, Y+6	; 0x06
    262c:	3f 81       	ldd	r19, Y+7	; 0x07
    262e:	38 2b       	or	r19, r24
    2630:	2e 83       	std	Y+6, r18	; 0x06
    2632:	3f 83       	std	Y+7, r19	; 0x07
	dane->raw_gyro_y = I2C_ReadEnd(false);				//0x3D
    2634:	80 e0       	ldi	r24, 0x00	; 0
    2636:	17 da       	rcall	.-3026   	; 0x1a66 <I2C_ReadEnd>
    2638:	90 e0       	ldi	r25, 0x00	; 0
    263a:	88 87       	std	Y+8, r24	; 0x08
    263c:	99 87       	std	Y+9, r25	; 0x09
	dane->raw_gyro_y |= I2C_ReadEnd(false) << 8;		//0x3E
    263e:	80 e0       	ldi	r24, 0x00	; 0
    2640:	12 da       	rcall	.-3036   	; 0x1a66 <I2C_ReadEnd>
    2642:	28 85       	ldd	r18, Y+8	; 0x08
    2644:	39 85       	ldd	r19, Y+9	; 0x09
    2646:	38 2b       	or	r19, r24
    2648:	28 87       	std	Y+8, r18	; 0x08
    264a:	39 87       	std	Y+9, r19	; 0x09
	dane->raw_gyro_z = I2C_ReadEnd(false);				//0x3F
    264c:	80 e0       	ldi	r24, 0x00	; 0
    264e:	0b da       	rcall	.-3050   	; 0x1a66 <I2C_ReadEnd>
    2650:	90 e0       	ldi	r25, 0x00	; 0
    2652:	8a 87       	std	Y+10, r24	; 0x0a
    2654:	9b 87       	std	Y+11, r25	; 0x0b
	dane->raw_gyro_z |= I2C_ReadEnd(true) << 8;			//0x40
    2656:	81 e0       	ldi	r24, 0x01	; 1
    2658:	06 da       	rcall	.-3060   	; 0x1a66 <I2C_ReadEnd>
    265a:	2a 85       	ldd	r18, Y+10	; 0x0a
    265c:	3b 85       	ldd	r19, Y+11	; 0x0b
    265e:	38 2b       	or	r19, r24
    2660:	2a 87       	std	Y+10, r18	; 0x0a
    2662:	3b 87       	std	Y+11, r19	; 0x0b
	
	//MAG update
	SENSORS_I2C.MASTER.ADDR = 0x3A;
    2664:	8a e3       	ldi	r24, 0x3A	; 58
    2666:	f8 01       	movw	r30, r16
    2668:	86 83       	std	Z+6, r24	; 0x06
	while(!(SENSORS_I2C.MASTER.STATUS & TWI_MASTER_WIF_bm)) {}
    266a:	84 81       	ldd	r24, Z+4	; 0x04
    266c:	86 ff       	sbrs	r24, 6
    266e:	fd cf       	rjmp	.-6      	; 0x266a <LSM9DS0_Update+0x86>
	SENSORS_I2C.MASTER.DATA = (0x08 | 0x80);
    2670:	88 e8       	ldi	r24, 0x88	; 136
    2672:	80 93 87 04 	sts	0x0487, r24
	while(!(SENSORS_I2C.MASTER.STATUS & TWI_MASTER_WIF_bm)) {}
    2676:	e0 e8       	ldi	r30, 0x80	; 128
    2678:	f4 e0       	ldi	r31, 0x04	; 4
    267a:	84 81       	ldd	r24, Z+4	; 0x04
    267c:	86 ff       	sbrs	r24, 6
    267e:	fd cf       	rjmp	.-6      	; 0x267a <LSM9DS0_Update+0x96>
	//_delay_us(40);
	
	SENSORS_I2C.MASTER.CTRLC = TWI_MASTER_CMD_REPSTART_gc;
    2680:	00 e8       	ldi	r16, 0x80	; 128
    2682:	14 e0       	ldi	r17, 0x04	; 4
    2684:	81 e0       	ldi	r24, 0x01	; 1
    2686:	f8 01       	movw	r30, r16
    2688:	83 83       	std	Z+3, r24	; 0x03
	SENSORS_I2C.MASTER.ADDR = 0x3B;
    268a:	8b e3       	ldi	r24, 0x3B	; 59
    268c:	86 83       	std	Z+6, r24	; 0x06
	dane->raw_mag_x = I2C_ReadEnd(false);				//0x08
    268e:	80 e0       	ldi	r24, 0x00	; 0
    2690:	ea d9       	rcall	.-3116   	; 0x1a66 <I2C_ReadEnd>
    2692:	90 e0       	ldi	r25, 0x00	; 0
    2694:	8e 87       	std	Y+14, r24	; 0x0e
    2696:	9f 87       	std	Y+15, r25	; 0x0f
	dane->raw_mag_x |= I2C_ReadEnd(false) << 8;			//0x09
    2698:	80 e0       	ldi	r24, 0x00	; 0
    269a:	e5 d9       	rcall	.-3126   	; 0x1a66 <I2C_ReadEnd>
    269c:	2e 85       	ldd	r18, Y+14	; 0x0e
    269e:	3f 85       	ldd	r19, Y+15	; 0x0f
    26a0:	38 2b       	or	r19, r24
    26a2:	2e 87       	std	Y+14, r18	; 0x0e
    26a4:	3f 87       	std	Y+15, r19	; 0x0f
	dane->raw_mag_y = I2C_ReadEnd(false);				//0x0A
    26a6:	80 e0       	ldi	r24, 0x00	; 0
    26a8:	de d9       	rcall	.-3140   	; 0x1a66 <I2C_ReadEnd>
    26aa:	90 e0       	ldi	r25, 0x00	; 0
    26ac:	88 8b       	std	Y+16, r24	; 0x10
    26ae:	99 8b       	std	Y+17, r25	; 0x11
	dane->raw_mag_y |= I2C_ReadEnd(false) << 8;			//0x0B
    26b0:	80 e0       	ldi	r24, 0x00	; 0
    26b2:	d9 d9       	rcall	.-3150   	; 0x1a66 <I2C_ReadEnd>
    26b4:	28 89       	ldd	r18, Y+16	; 0x10
    26b6:	39 89       	ldd	r19, Y+17	; 0x11
    26b8:	38 2b       	or	r19, r24
    26ba:	28 8b       	std	Y+16, r18	; 0x10
    26bc:	39 8b       	std	Y+17, r19	; 0x11
	dane->raw_mag_z = I2C_ReadEnd(false);				//0x0C
    26be:	80 e0       	ldi	r24, 0x00	; 0
    26c0:	d2 d9       	rcall	.-3164   	; 0x1a66 <I2C_ReadEnd>
    26c2:	90 e0       	ldi	r25, 0x00	; 0
    26c4:	8a 8b       	std	Y+18, r24	; 0x12
    26c6:	9b 8b       	std	Y+19, r25	; 0x13
	dane->raw_mag_z |= I2C_ReadEnd(true) << 8;			//0x0D
    26c8:	81 e0       	ldi	r24, 0x01	; 1
    26ca:	cd d9       	rcall	.-3174   	; 0x1a66 <I2C_ReadEnd>
    26cc:	2a 89       	ldd	r18, Y+18	; 0x12
    26ce:	3b 89       	ldd	r19, Y+19	; 0x13
    26d0:	38 2b       	or	r19, r24
    26d2:	2a 8b       	std	Y+18, r18	; 0x12
    26d4:	3b 8b       	std	Y+19, r19	; 0x13
	
	//ACCEL update
	SENSORS_I2C.MASTER.ADDR = 0x3A;
    26d6:	8a e3       	ldi	r24, 0x3A	; 58
    26d8:	f8 01       	movw	r30, r16
    26da:	86 83       	std	Z+6, r24	; 0x06
	while(!(SENSORS_I2C.MASTER.STATUS & TWI_MASTER_WIF_bm)) {}
    26dc:	84 81       	ldd	r24, Z+4	; 0x04
    26de:	86 ff       	sbrs	r24, 6
    26e0:	fd cf       	rjmp	.-6      	; 0x26dc <LSM9DS0_Update+0xf8>
	SENSORS_I2C.MASTER.DATA = (0x28 | 0x80);
    26e2:	88 ea       	ldi	r24, 0xA8	; 168
    26e4:	80 93 87 04 	sts	0x0487, r24
	while(!(SENSORS_I2C.MASTER.STATUS & TWI_MASTER_WIF_bm)) {}
    26e8:	e0 e8       	ldi	r30, 0x80	; 128
    26ea:	f4 e0       	ldi	r31, 0x04	; 4
    26ec:	84 81       	ldd	r24, Z+4	; 0x04
    26ee:	86 ff       	sbrs	r24, 6
    26f0:	fd cf       	rjmp	.-6      	; 0x26ec <LSM9DS0_Update+0x108>
	//_delay_us(40);
	
	SENSORS_I2C.MASTER.CTRLC = TWI_MASTER_CMD_REPSTART_gc;
    26f2:	00 e8       	ldi	r16, 0x80	; 128
    26f4:	14 e0       	ldi	r17, 0x04	; 4
    26f6:	81 e0       	ldi	r24, 0x01	; 1
    26f8:	f8 01       	movw	r30, r16
    26fa:	83 83       	std	Z+3, r24	; 0x03
	SENSORS_I2C.MASTER.ADDR = 0x3B;
    26fc:	8b e3       	ldi	r24, 0x3B	; 59
    26fe:	86 83       	std	Z+6, r24	; 0x06
	dane->raw_accel_x = I2C_ReadEnd(false);				//0x3B
    2700:	80 e0       	ldi	r24, 0x00	; 0
    2702:	b1 d9       	rcall	.-3230   	; 0x1a66 <I2C_ReadEnd>
    2704:	90 e0       	ldi	r25, 0x00	; 0
    2706:	88 83       	st	Y, r24
    2708:	99 83       	std	Y+1, r25	; 0x01
	dane->raw_accel_x |= I2C_ReadEnd(false) << 8;		//0x3C
    270a:	80 e0       	ldi	r24, 0x00	; 0
    270c:	ac d9       	rcall	.-3240   	; 0x1a66 <I2C_ReadEnd>
    270e:	28 81       	ld	r18, Y
    2710:	39 81       	ldd	r19, Y+1	; 0x01
    2712:	38 2b       	or	r19, r24
    2714:	28 83       	st	Y, r18
    2716:	39 83       	std	Y+1, r19	; 0x01
	dane->raw_accel_y = I2C_ReadEnd(false);				//0x3D
    2718:	80 e0       	ldi	r24, 0x00	; 0
    271a:	a5 d9       	rcall	.-3254   	; 0x1a66 <I2C_ReadEnd>
    271c:	90 e0       	ldi	r25, 0x00	; 0
    271e:	8a 83       	std	Y+2, r24	; 0x02
    2720:	9b 83       	std	Y+3, r25	; 0x03
	dane->raw_accel_y |= I2C_ReadEnd(false) << 8;		//0x3E
    2722:	80 e0       	ldi	r24, 0x00	; 0
    2724:	a0 d9       	rcall	.-3264   	; 0x1a66 <I2C_ReadEnd>
    2726:	2a 81       	ldd	r18, Y+2	; 0x02
    2728:	3b 81       	ldd	r19, Y+3	; 0x03
    272a:	38 2b       	or	r19, r24
    272c:	2a 83       	std	Y+2, r18	; 0x02
    272e:	3b 83       	std	Y+3, r19	; 0x03
	dane->raw_accel_z = I2C_ReadEnd(false);				//0x3F
    2730:	80 e0       	ldi	r24, 0x00	; 0
    2732:	99 d9       	rcall	.-3278   	; 0x1a66 <I2C_ReadEnd>
    2734:	90 e0       	ldi	r25, 0x00	; 0
    2736:	8c 83       	std	Y+4, r24	; 0x04
    2738:	9d 83       	std	Y+5, r25	; 0x05
	dane->raw_accel_z |= I2C_ReadEnd(true) << 8;		//0x40
    273a:	81 e0       	ldi	r24, 0x01	; 1
    273c:	94 d9       	rcall	.-3288   	; 0x1a66 <I2C_ReadEnd>
    273e:	2c 81       	ldd	r18, Y+4	; 0x04
    2740:	3d 81       	ldd	r19, Y+5	; 0x05
    2742:	38 2b       	or	r19, r24
    2744:	2c 83       	std	Y+4, r18	; 0x04
    2746:	3d 83       	std	Y+5, r19	; 0x05
	
	//TEMP update
	SENSORS_I2C.MASTER.ADDR = 0x3A;
    2748:	8a e3       	ldi	r24, 0x3A	; 58
    274a:	f8 01       	movw	r30, r16
    274c:	86 83       	std	Z+6, r24	; 0x06
	while(!(SENSORS_I2C.MASTER.STATUS & TWI_MASTER_WIF_bm)) {}
    274e:	84 81       	ldd	r24, Z+4	; 0x04
    2750:	86 ff       	sbrs	r24, 6
    2752:	fd cf       	rjmp	.-6      	; 0x274e <LSM9DS0_Update+0x16a>
	SENSORS_I2C.MASTER.DATA = (0x05 | 0x80);
    2754:	85 e8       	ldi	r24, 0x85	; 133
    2756:	80 93 87 04 	sts	0x0487, r24
	while(!(SENSORS_I2C.MASTER.STATUS & TWI_MASTER_WIF_bm)) {}
    275a:	e0 e8       	ldi	r30, 0x80	; 128
    275c:	f4 e0       	ldi	r31, 0x04	; 4
    275e:	84 81       	ldd	r24, Z+4	; 0x04
    2760:	86 ff       	sbrs	r24, 6
    2762:	fd cf       	rjmp	.-6      	; 0x275e <LSM9DS0_Update+0x17a>
	//_delay_us(40);
	
	SENSORS_I2C.MASTER.CTRLC = TWI_MASTER_CMD_REPSTART_gc;
    2764:	e0 e8       	ldi	r30, 0x80	; 128
    2766:	f4 e0       	ldi	r31, 0x04	; 4
    2768:	81 e0       	ldi	r24, 0x01	; 1
    276a:	83 83       	std	Z+3, r24	; 0x03
	SENSORS_I2C.MASTER.ADDR = 0x3B;
    276c:	8b e3       	ldi	r24, 0x3B	; 59
    276e:	86 83       	std	Z+6, r24	; 0x06
	dane->raw_temp = I2C_ReadEnd(false);			//0x3F
    2770:	80 e0       	ldi	r24, 0x00	; 0
    2772:	79 d9       	rcall	.-3342   	; 0x1a66 <I2C_ReadEnd>
    2774:	90 e0       	ldi	r25, 0x00	; 0
    2776:	8c 87       	std	Y+12, r24	; 0x0c
    2778:	9d 87       	std	Y+13, r25	; 0x0d
	dane->raw_temp |= I2C_ReadEnd(true) << 8;		//0x40
    277a:	81 e0       	ldi	r24, 0x01	; 1
    277c:	74 d9       	rcall	.-3352   	; 0x1a66 <I2C_ReadEnd>
    277e:	0c 85       	ldd	r16, Y+12	; 0x0c
    2780:	1d 85       	ldd	r17, Y+13	; 0x0d
    2782:	18 2b       	or	r17, r24
    2784:	0c 87       	std	Y+12, r16	; 0x0c
    2786:	1d 87       	std	Y+13, r17	; 0x0d
	
	//calculate values
	dane->accel_x = ((dane->raw_accel_x - dane->offset_accel_x) * 0.732)/1000.0;
    2788:	fe 01       	movw	r30, r28
    278a:	ec 5b       	subi	r30, 0xBC	; 188
    278c:	ff 4f       	sbci	r31, 0xFF	; 255
    278e:	68 81       	ld	r22, Y
    2790:	79 81       	ldd	r23, Y+1	; 0x01
    2792:	80 81       	ld	r24, Z
    2794:	91 81       	ldd	r25, Z+1	; 0x01
    2796:	68 1b       	sub	r22, r24
    2798:	79 0b       	sbc	r23, r25
    279a:	07 2e       	mov	r0, r23
    279c:	00 0c       	add	r0, r0
    279e:	88 0b       	sbc	r24, r24
    27a0:	99 0b       	sbc	r25, r25
    27a2:	0e 94 40 2a 	call	0x5480	; 0x5480 <__floatsisf>
    27a6:	2a e5       	ldi	r18, 0x5A	; 90
    27a8:	34 e6       	ldi	r19, 0x64	; 100
    27aa:	4b e3       	ldi	r20, 0x3B	; 59
    27ac:	5f e3       	ldi	r21, 0x3F	; 63
    27ae:	0e 94 34 2b 	call	0x5668	; 0x5668 <__mulsf3>
    27b2:	20 e0       	ldi	r18, 0x00	; 0
    27b4:	30 e0       	ldi	r19, 0x00	; 0
    27b6:	4a e7       	ldi	r20, 0x7A	; 122
    27b8:	54 e4       	ldi	r21, 0x44	; 68
    27ba:	0e 94 a5 29 	call	0x534a	; 0x534a <__divsf3>
    27be:	6c 8b       	std	Y+20, r22	; 0x14
    27c0:	7d 8b       	std	Y+21, r23	; 0x15
    27c2:	8e 8b       	std	Y+22, r24	; 0x16
    27c4:	9f 8b       	std	Y+23, r25	; 0x17
	dane->accel_y = ((dane->raw_accel_y - dane->offset_accel_y) * 0.732)/1000.0;
    27c6:	fe 01       	movw	r30, r28
    27c8:	ea 5b       	subi	r30, 0xBA	; 186
    27ca:	ff 4f       	sbci	r31, 0xFF	; 255
    27cc:	6a 81       	ldd	r22, Y+2	; 0x02
    27ce:	7b 81       	ldd	r23, Y+3	; 0x03
    27d0:	80 81       	ld	r24, Z
    27d2:	91 81       	ldd	r25, Z+1	; 0x01
    27d4:	68 1b       	sub	r22, r24
    27d6:	79 0b       	sbc	r23, r25
    27d8:	07 2e       	mov	r0, r23
    27da:	00 0c       	add	r0, r0
    27dc:	88 0b       	sbc	r24, r24
    27de:	99 0b       	sbc	r25, r25
    27e0:	0e 94 40 2a 	call	0x5480	; 0x5480 <__floatsisf>
    27e4:	2a e5       	ldi	r18, 0x5A	; 90
    27e6:	34 e6       	ldi	r19, 0x64	; 100
    27e8:	4b e3       	ldi	r20, 0x3B	; 59
    27ea:	5f e3       	ldi	r21, 0x3F	; 63
    27ec:	0e 94 34 2b 	call	0x5668	; 0x5668 <__mulsf3>
    27f0:	20 e0       	ldi	r18, 0x00	; 0
    27f2:	30 e0       	ldi	r19, 0x00	; 0
    27f4:	4a e7       	ldi	r20, 0x7A	; 122
    27f6:	54 e4       	ldi	r21, 0x44	; 68
    27f8:	0e 94 a5 29 	call	0x534a	; 0x534a <__divsf3>
    27fc:	68 8f       	std	Y+24, r22	; 0x18
    27fe:	79 8f       	std	Y+25, r23	; 0x19
    2800:	8a 8f       	std	Y+26, r24	; 0x1a
    2802:	9b 8f       	std	Y+27, r25	; 0x1b
	dane->accel_z = ((dane->raw_accel_z - dane->offset_accel_z) * 0.732)/1000.0;
    2804:	fe 01       	movw	r30, r28
    2806:	e8 5b       	subi	r30, 0xB8	; 184
    2808:	ff 4f       	sbci	r31, 0xFF	; 255
    280a:	6c 81       	ldd	r22, Y+4	; 0x04
    280c:	7d 81       	ldd	r23, Y+5	; 0x05
    280e:	80 81       	ld	r24, Z
    2810:	91 81       	ldd	r25, Z+1	; 0x01
    2812:	68 1b       	sub	r22, r24
    2814:	79 0b       	sbc	r23, r25
    2816:	07 2e       	mov	r0, r23
    2818:	00 0c       	add	r0, r0
    281a:	88 0b       	sbc	r24, r24
    281c:	99 0b       	sbc	r25, r25
    281e:	0e 94 40 2a 	call	0x5480	; 0x5480 <__floatsisf>
    2822:	2a e5       	ldi	r18, 0x5A	; 90
    2824:	34 e6       	ldi	r19, 0x64	; 100
    2826:	4b e3       	ldi	r20, 0x3B	; 59
    2828:	5f e3       	ldi	r21, 0x3F	; 63
    282a:	0e 94 34 2b 	call	0x5668	; 0x5668 <__mulsf3>
    282e:	20 e0       	ldi	r18, 0x00	; 0
    2830:	30 e0       	ldi	r19, 0x00	; 0
    2832:	4a e7       	ldi	r20, 0x7A	; 122
    2834:	54 e4       	ldi	r21, 0x44	; 68
    2836:	0e 94 a5 29 	call	0x534a	; 0x534a <__divsf3>
    283a:	6c 8f       	std	Y+28, r22	; 0x1c
    283c:	7d 8f       	std	Y+29, r23	; 0x1d
    283e:	8e 8f       	std	Y+30, r24	; 0x1e
    2840:	9f 8f       	std	Y+31, r25	; 0x1f
	dane->gyro_x = ((dane->raw_gyro_x - dane->offset_gyro_x) * 4000.0)/65536.0;
    2842:	fe 01       	movw	r30, r28
    2844:	e6 5b       	subi	r30, 0xB6	; 182
    2846:	ff 4f       	sbci	r31, 0xFF	; 255
    2848:	6e 81       	ldd	r22, Y+6	; 0x06
    284a:	7f 81       	ldd	r23, Y+7	; 0x07
    284c:	80 81       	ld	r24, Z
    284e:	91 81       	ldd	r25, Z+1	; 0x01
    2850:	68 1b       	sub	r22, r24
    2852:	79 0b       	sbc	r23, r25
    2854:	07 2e       	mov	r0, r23
    2856:	00 0c       	add	r0, r0
    2858:	88 0b       	sbc	r24, r24
    285a:	99 0b       	sbc	r25, r25
    285c:	0e 94 40 2a 	call	0x5480	; 0x5480 <__floatsisf>
    2860:	20 e0       	ldi	r18, 0x00	; 0
    2862:	30 e0       	ldi	r19, 0x00	; 0
    2864:	4a e7       	ldi	r20, 0x7A	; 122
    2866:	55 e4       	ldi	r21, 0x45	; 69
    2868:	0e 94 34 2b 	call	0x5668	; 0x5668 <__mulsf3>
    286c:	20 e0       	ldi	r18, 0x00	; 0
    286e:	30 e0       	ldi	r19, 0x00	; 0
    2870:	40 e8       	ldi	r20, 0x80	; 128
    2872:	57 e3       	ldi	r21, 0x37	; 55
    2874:	0e 94 34 2b 	call	0x5668	; 0x5668 <__mulsf3>
    2878:	6c a3       	std	Y+36, r22	; 0x24
    287a:	7d a3       	std	Y+37, r23	; 0x25
    287c:	8e a3       	std	Y+38, r24	; 0x26
    287e:	9f a3       	std	Y+39, r25	; 0x27
	dane->gyro_y = ((dane->raw_gyro_y - dane->offset_gyro_y) * 4000.0)/65536.0;
    2880:	fe 01       	movw	r30, r28
    2882:	e4 5b       	subi	r30, 0xB4	; 180
    2884:	ff 4f       	sbci	r31, 0xFF	; 255
    2886:	68 85       	ldd	r22, Y+8	; 0x08
    2888:	79 85       	ldd	r23, Y+9	; 0x09
    288a:	80 81       	ld	r24, Z
    288c:	91 81       	ldd	r25, Z+1	; 0x01
    288e:	68 1b       	sub	r22, r24
    2890:	79 0b       	sbc	r23, r25
    2892:	07 2e       	mov	r0, r23
    2894:	00 0c       	add	r0, r0
    2896:	88 0b       	sbc	r24, r24
    2898:	99 0b       	sbc	r25, r25
    289a:	0e 94 40 2a 	call	0x5480	; 0x5480 <__floatsisf>
    289e:	20 e0       	ldi	r18, 0x00	; 0
    28a0:	30 e0       	ldi	r19, 0x00	; 0
    28a2:	4a e7       	ldi	r20, 0x7A	; 122
    28a4:	55 e4       	ldi	r21, 0x45	; 69
    28a6:	0e 94 34 2b 	call	0x5668	; 0x5668 <__mulsf3>
    28aa:	20 e0       	ldi	r18, 0x00	; 0
    28ac:	30 e0       	ldi	r19, 0x00	; 0
    28ae:	40 e8       	ldi	r20, 0x80	; 128
    28b0:	57 e3       	ldi	r21, 0x37	; 55
    28b2:	0e 94 34 2b 	call	0x5668	; 0x5668 <__mulsf3>
    28b6:	68 a7       	std	Y+40, r22	; 0x28
    28b8:	79 a7       	std	Y+41, r23	; 0x29
    28ba:	8a a7       	std	Y+42, r24	; 0x2a
    28bc:	9b a7       	std	Y+43, r25	; 0x2b
	dane->gyro_z = ((dane->raw_gyro_z - dane->offset_gyro_z) * 4000.0)/65536.0;
    28be:	fe 01       	movw	r30, r28
    28c0:	e2 5b       	subi	r30, 0xB2	; 178
    28c2:	ff 4f       	sbci	r31, 0xFF	; 255
    28c4:	6a 85       	ldd	r22, Y+10	; 0x0a
    28c6:	7b 85       	ldd	r23, Y+11	; 0x0b
    28c8:	80 81       	ld	r24, Z
    28ca:	91 81       	ldd	r25, Z+1	; 0x01
    28cc:	68 1b       	sub	r22, r24
    28ce:	79 0b       	sbc	r23, r25
    28d0:	07 2e       	mov	r0, r23
    28d2:	00 0c       	add	r0, r0
    28d4:	88 0b       	sbc	r24, r24
    28d6:	99 0b       	sbc	r25, r25
    28d8:	0e 94 40 2a 	call	0x5480	; 0x5480 <__floatsisf>
    28dc:	20 e0       	ldi	r18, 0x00	; 0
    28de:	30 e0       	ldi	r19, 0x00	; 0
    28e0:	4a e7       	ldi	r20, 0x7A	; 122
    28e2:	55 e4       	ldi	r21, 0x45	; 69
    28e4:	0e 94 34 2b 	call	0x5668	; 0x5668 <__mulsf3>
    28e8:	20 e0       	ldi	r18, 0x00	; 0
    28ea:	30 e0       	ldi	r19, 0x00	; 0
    28ec:	40 e8       	ldi	r20, 0x80	; 128
    28ee:	57 e3       	ldi	r21, 0x37	; 55
    28f0:	0e 94 34 2b 	call	0x5668	; 0x5668 <__mulsf3>
    28f4:	6c a7       	std	Y+44, r22	; 0x2c
    28f6:	7d a7       	std	Y+45, r23	; 0x2d
    28f8:	8e a7       	std	Y+46, r24	; 0x2e
    28fa:	9f a7       	std	Y+47, r25	; 0x2f
	dane->mag_x = ((dane->raw_mag_x - dane->offset_mag_x) * 4.0)/655.360;
    28fc:	fe 01       	movw	r30, r28
    28fe:	e0 5b       	subi	r30, 0xB0	; 176
    2900:	ff 4f       	sbci	r31, 0xFF	; 255
    2902:	6e 85       	ldd	r22, Y+14	; 0x0e
    2904:	7f 85       	ldd	r23, Y+15	; 0x0f
    2906:	80 81       	ld	r24, Z
    2908:	91 81       	ldd	r25, Z+1	; 0x01
    290a:	68 1b       	sub	r22, r24
    290c:	79 0b       	sbc	r23, r25
    290e:	07 2e       	mov	r0, r23
    2910:	00 0c       	add	r0, r0
    2912:	88 0b       	sbc	r24, r24
    2914:	99 0b       	sbc	r25, r25
    2916:	0e 94 40 2a 	call	0x5480	; 0x5480 <__floatsisf>
    291a:	20 e0       	ldi	r18, 0x00	; 0
    291c:	30 e0       	ldi	r19, 0x00	; 0
    291e:	40 e8       	ldi	r20, 0x80	; 128
    2920:	50 e4       	ldi	r21, 0x40	; 64
    2922:	0e 94 34 2b 	call	0x5668	; 0x5668 <__mulsf3>
    2926:	2a e0       	ldi	r18, 0x0A	; 10
    2928:	37 ed       	ldi	r19, 0xD7	; 215
    292a:	43 e2       	ldi	r20, 0x23	; 35
    292c:	54 e4       	ldi	r21, 0x44	; 68
    292e:	0e 94 a5 29 	call	0x534a	; 0x534a <__divsf3>
    2932:	6c ab       	std	Y+52, r22	; 0x34
    2934:	7d ab       	std	Y+53, r23	; 0x35
    2936:	8e ab       	std	Y+54, r24	; 0x36
    2938:	9f ab       	std	Y+55, r25	; 0x37
	dane->mag_y = ((dane->raw_mag_y - dane->offset_mag_y) * 4.0)/655.360;
    293a:	fe 01       	movw	r30, r28
    293c:	ee 5a       	subi	r30, 0xAE	; 174
    293e:	ff 4f       	sbci	r31, 0xFF	; 255
    2940:	68 89       	ldd	r22, Y+16	; 0x10
    2942:	79 89       	ldd	r23, Y+17	; 0x11
    2944:	80 81       	ld	r24, Z
    2946:	91 81       	ldd	r25, Z+1	; 0x01
    2948:	68 1b       	sub	r22, r24
    294a:	79 0b       	sbc	r23, r25
    294c:	07 2e       	mov	r0, r23
    294e:	00 0c       	add	r0, r0
    2950:	88 0b       	sbc	r24, r24
    2952:	99 0b       	sbc	r25, r25
    2954:	0e 94 40 2a 	call	0x5480	; 0x5480 <__floatsisf>
    2958:	20 e0       	ldi	r18, 0x00	; 0
    295a:	30 e0       	ldi	r19, 0x00	; 0
    295c:	40 e8       	ldi	r20, 0x80	; 128
    295e:	50 e4       	ldi	r21, 0x40	; 64
    2960:	0e 94 34 2b 	call	0x5668	; 0x5668 <__mulsf3>
    2964:	2a e0       	ldi	r18, 0x0A	; 10
    2966:	37 ed       	ldi	r19, 0xD7	; 215
    2968:	43 e2       	ldi	r20, 0x23	; 35
    296a:	54 e4       	ldi	r21, 0x44	; 68
    296c:	0e 94 a5 29 	call	0x534a	; 0x534a <__divsf3>
    2970:	68 af       	std	Y+56, r22	; 0x38
    2972:	79 af       	std	Y+57, r23	; 0x39
    2974:	8a af       	std	Y+58, r24	; 0x3a
    2976:	9b af       	std	Y+59, r25	; 0x3b
	dane->mag_z = ((dane->raw_mag_z - dane->offset_mag_z) * 4.0)/655.360;
    2978:	fe 01       	movw	r30, r28
    297a:	ec 5a       	subi	r30, 0xAC	; 172
    297c:	ff 4f       	sbci	r31, 0xFF	; 255
    297e:	6a 89       	ldd	r22, Y+18	; 0x12
    2980:	7b 89       	ldd	r23, Y+19	; 0x13
    2982:	80 81       	ld	r24, Z
    2984:	91 81       	ldd	r25, Z+1	; 0x01
    2986:	68 1b       	sub	r22, r24
    2988:	79 0b       	sbc	r23, r25
    298a:	07 2e       	mov	r0, r23
    298c:	00 0c       	add	r0, r0
    298e:	88 0b       	sbc	r24, r24
    2990:	99 0b       	sbc	r25, r25
    2992:	0e 94 40 2a 	call	0x5480	; 0x5480 <__floatsisf>
    2996:	20 e0       	ldi	r18, 0x00	; 0
    2998:	30 e0       	ldi	r19, 0x00	; 0
    299a:	40 e8       	ldi	r20, 0x80	; 128
    299c:	50 e4       	ldi	r21, 0x40	; 64
    299e:	0e 94 34 2b 	call	0x5668	; 0x5668 <__mulsf3>
    29a2:	2a e0       	ldi	r18, 0x0A	; 10
    29a4:	37 ed       	ldi	r19, 0xD7	; 215
    29a6:	43 e2       	ldi	r20, 0x23	; 35
    29a8:	54 e4       	ldi	r21, 0x44	; 68
    29aa:	0e 94 a5 29 	call	0x534a	; 0x534a <__divsf3>
    29ae:	6c af       	std	Y+60, r22	; 0x3c
    29b0:	7d af       	std	Y+61, r23	; 0x3d
    29b2:	8e af       	std	Y+62, r24	; 0x3e
    29b4:	9f af       	std	Y+63, r25	; 0x3f
	dane->temp = 21.0 + dane->raw_temp / 8.0;
    29b6:	b8 01       	movw	r22, r16
    29b8:	11 0f       	add	r17, r17
    29ba:	88 0b       	sbc	r24, r24
    29bc:	99 0b       	sbc	r25, r25
    29be:	0e 94 40 2a 	call	0x5480	; 0x5480 <__floatsisf>
    29c2:	20 e0       	ldi	r18, 0x00	; 0
    29c4:	30 e0       	ldi	r19, 0x00	; 0
    29c6:	40 e0       	ldi	r20, 0x00	; 0
    29c8:	5e e3       	ldi	r21, 0x3E	; 62
    29ca:	0e 94 34 2b 	call	0x5668	; 0x5668 <__mulsf3>
    29ce:	20 e0       	ldi	r18, 0x00	; 0
    29d0:	30 e0       	ldi	r19, 0x00	; 0
    29d2:	48 ea       	ldi	r20, 0xA8	; 168
    29d4:	51 e4       	ldi	r21, 0x41	; 65
    29d6:	0e 94 3d 29 	call	0x527a	; 0x527a <__addsf3>
    29da:	68 ab       	std	Y+48, r22	; 0x30
    29dc:	79 ab       	std	Y+49, r23	; 0x31
    29de:	8a ab       	std	Y+50, r24	; 0x32
    29e0:	9b ab       	std	Y+51, r25	; 0x33
    29e2:	df 91       	pop	r29
    29e4:	cf 91       	pop	r28
    29e6:	1f 91       	pop	r17
    29e8:	0f 91       	pop	r16
    29ea:	08 95       	ret

000029ec <MPU9150_WakeUp>:
	z = (z-128);
	
	(*data).sens_mag_x = x;
	(*data).sens_mag_y = y;
	(*data).sens_mag_z = z;
}
    29ec:	42 e0       	ldi	r20, 0x02	; 2
    29ee:	6b e6       	ldi	r22, 0x6B	; 107
    29f0:	80 ed       	ldi	r24, 0xD0	; 208
    29f2:	46 d8       	rcall	.-3956   	; 0x1a80 <I2C_WriteReg>
    29f4:	42 e0       	ldi	r20, 0x02	; 2
    29f6:	6a e1       	ldi	r22, 0x1A	; 26
    29f8:	80 ed       	ldi	r24, 0xD0	; 208
    29fa:	42 d8       	rcall	.-3964   	; 0x1a80 <I2C_WriteReg>
    29fc:	48 e1       	ldi	r20, 0x18	; 24
    29fe:	6b e1       	ldi	r22, 0x1B	; 27
    2a00:	80 ed       	ldi	r24, 0xD0	; 208
    2a02:	3e d8       	rcall	.-3972   	; 0x1a80 <I2C_WriteReg>
    2a04:	48 e1       	ldi	r20, 0x18	; 24
    2a06:	6c e1       	ldi	r22, 0x1C	; 28
    2a08:	80 ed       	ldi	r24, 0xD0	; 208
    2a0a:	3a c8       	rjmp	.-3980   	; 0x1a80 <I2C_WriteReg>
    2a0c:	08 95       	ret

00002a0e <MPU9150_RawUpdate>:
    2a0e:	0f 93       	push	r16
    2a10:	1f 93       	push	r17
    2a12:	cf 93       	push	r28
    2a14:	df 93       	push	r29
    2a16:	cd b7       	in	r28, 0x3d	; 61
    2a18:	de b7       	in	r29, 0x3e	; 62
    2a1a:	64 97       	sbiw	r28, 0x14	; 20
    2a1c:	cd bf       	out	0x3d, r28	; 61
    2a1e:	de bf       	out	0x3e, r29	; 62
    2a20:	8c 01       	movw	r16, r24
    2a22:	9e 01       	movw	r18, r28
    2a24:	2f 5f       	subi	r18, 0xFF	; 255
    2a26:	3f 4f       	sbci	r19, 0xFF	; 255
    2a28:	4e e0       	ldi	r20, 0x0E	; 14
    2a2a:	6b e3       	ldi	r22, 0x3B	; 59
    2a2c:	80 ed       	ldi	r24, 0xD0	; 208
    2a2e:	41 d8       	rcall	.-3966   	; 0x1ab2 <I2C_ReadRegister>
    2a30:	89 81       	ldd	r24, Y+1	; 0x01
    2a32:	90 e0       	ldi	r25, 0x00	; 0
    2a34:	98 2f       	mov	r25, r24
    2a36:	88 27       	eor	r24, r24
    2a38:	2a 81       	ldd	r18, Y+2	; 0x02
    2a3a:	82 2b       	or	r24, r18
    2a3c:	f8 01       	movw	r30, r16
    2a3e:	80 83       	st	Z, r24
    2a40:	91 83       	std	Z+1, r25	; 0x01
    2a42:	8b 81       	ldd	r24, Y+3	; 0x03
    2a44:	90 e0       	ldi	r25, 0x00	; 0
    2a46:	98 2f       	mov	r25, r24
    2a48:	88 27       	eor	r24, r24
    2a4a:	2c 81       	ldd	r18, Y+4	; 0x04
    2a4c:	82 2b       	or	r24, r18
    2a4e:	82 83       	std	Z+2, r24	; 0x02
    2a50:	93 83       	std	Z+3, r25	; 0x03
    2a52:	8d 81       	ldd	r24, Y+5	; 0x05
    2a54:	90 e0       	ldi	r25, 0x00	; 0
    2a56:	98 2f       	mov	r25, r24
    2a58:	88 27       	eor	r24, r24
    2a5a:	2e 81       	ldd	r18, Y+6	; 0x06
    2a5c:	82 2b       	or	r24, r18
    2a5e:	84 83       	std	Z+4, r24	; 0x04
    2a60:	95 83       	std	Z+5, r25	; 0x05
    2a62:	8f 81       	ldd	r24, Y+7	; 0x07
    2a64:	90 e0       	ldi	r25, 0x00	; 0
    2a66:	98 2f       	mov	r25, r24
    2a68:	88 27       	eor	r24, r24
    2a6a:	28 85       	ldd	r18, Y+8	; 0x08
    2a6c:	82 2b       	or	r24, r18
    2a6e:	84 87       	std	Z+12, r24	; 0x0c
    2a70:	95 87       	std	Z+13, r25	; 0x0d
    2a72:	89 85       	ldd	r24, Y+9	; 0x09
    2a74:	90 e0       	ldi	r25, 0x00	; 0
    2a76:	98 2f       	mov	r25, r24
    2a78:	88 27       	eor	r24, r24
    2a7a:	2a 85       	ldd	r18, Y+10	; 0x0a
    2a7c:	82 2b       	or	r24, r18
    2a7e:	86 83       	std	Z+6, r24	; 0x06
    2a80:	97 83       	std	Z+7, r25	; 0x07
    2a82:	8b 85       	ldd	r24, Y+11	; 0x0b
    2a84:	90 e0       	ldi	r25, 0x00	; 0
    2a86:	98 2f       	mov	r25, r24
    2a88:	88 27       	eor	r24, r24
    2a8a:	2c 85       	ldd	r18, Y+12	; 0x0c
    2a8c:	82 2b       	or	r24, r18
    2a8e:	80 87       	std	Z+8, r24	; 0x08
    2a90:	91 87       	std	Z+9, r25	; 0x09
    2a92:	8d 85       	ldd	r24, Y+13	; 0x0d
    2a94:	90 e0       	ldi	r25, 0x00	; 0
    2a96:	98 2f       	mov	r25, r24
    2a98:	88 27       	eor	r24, r24
    2a9a:	2e 85       	ldd	r18, Y+14	; 0x0e
    2a9c:	82 2b       	or	r24, r18
    2a9e:	82 87       	std	Z+10, r24	; 0x0a
    2aa0:	93 87       	std	Z+11, r25	; 0x0b
    2aa2:	64 96       	adiw	r28, 0x14	; 20
    2aa4:	cd bf       	out	0x3d, r28	; 61
    2aa6:	de bf       	out	0x3e, r29	; 62
    2aa8:	df 91       	pop	r29
    2aaa:	cf 91       	pop	r28
    2aac:	1f 91       	pop	r17
    2aae:	0f 91       	pop	r16
    2ab0:	08 95       	ret

00002ab2 <MPU9150_Conv>:

void MPU9150_Conv(allData_t * allData){
    2ab2:	cf 93       	push	r28
    2ab4:	df 93       	push	r29
	MPU9150_t * MPU9150 = allData->MPU9150;
    2ab6:	fc 01       	movw	r30, r24
    2ab8:	c0 81       	ld	r28, Z
    2aba:	d1 81       	ldd	r29, Z+1	; 0x01
	MPU9150->mag_x = (MPU9150->raw_mag_x + ((MPU9150->raw_mag_x * MPU9150->sens_mag_x) >> 8)) * 0.3;
    2abc:	2e 85       	ldd	r18, Y+14	; 0x0e
    2abe:	3f 85       	ldd	r19, Y+15	; 0x0f
    2ac0:	fe 01       	movw	r30, r28
    2ac2:	ec 5a       	subi	r30, 0xAC	; 172
    2ac4:	ff 4f       	sbci	r31, 0xFF	; 255
    2ac6:	40 81       	ld	r20, Z
    2ac8:	42 03       	mulsu	r20, r18
    2aca:	b0 01       	movw	r22, r0
    2acc:	43 9f       	mul	r20, r19
    2ace:	70 0d       	add	r23, r0
    2ad0:	11 24       	eor	r1, r1
    2ad2:	67 2f       	mov	r22, r23
    2ad4:	77 0f       	add	r23, r23
    2ad6:	77 0b       	sbc	r23, r23
    2ad8:	62 0f       	add	r22, r18
    2ada:	73 1f       	adc	r23, r19
    2adc:	07 2e       	mov	r0, r23
    2ade:	00 0c       	add	r0, r0
    2ae0:	88 0b       	sbc	r24, r24
    2ae2:	99 0b       	sbc	r25, r25
    2ae4:	0e 94 40 2a 	call	0x5480	; 0x5480 <__floatsisf>
    2ae8:	2a e9       	ldi	r18, 0x9A	; 154
    2aea:	39 e9       	ldi	r19, 0x99	; 153
    2aec:	49 e9       	ldi	r20, 0x99	; 153
    2aee:	5e e3       	ldi	r21, 0x3E	; 62
    2af0:	0e 94 34 2b 	call	0x5668	; 0x5668 <__mulsf3>
    2af4:	6a ab       	std	Y+50, r22	; 0x32
    2af6:	7b ab       	std	Y+51, r23	; 0x33
    2af8:	8c ab       	std	Y+52, r24	; 0x34
    2afa:	9d ab       	std	Y+53, r25	; 0x35
	MPU9150->mag_y = (MPU9150->raw_mag_y + ((MPU9150->raw_mag_y * MPU9150->sens_mag_y) >> 8)) * 0.3;
    2afc:	28 89       	ldd	r18, Y+16	; 0x10
    2afe:	39 89       	ldd	r19, Y+17	; 0x11
    2b00:	fe 01       	movw	r30, r28
    2b02:	eb 5a       	subi	r30, 0xAB	; 171
    2b04:	ff 4f       	sbci	r31, 0xFF	; 255
    2b06:	40 81       	ld	r20, Z
    2b08:	42 03       	mulsu	r20, r18
    2b0a:	b0 01       	movw	r22, r0
    2b0c:	43 9f       	mul	r20, r19
    2b0e:	70 0d       	add	r23, r0
    2b10:	11 24       	eor	r1, r1
    2b12:	67 2f       	mov	r22, r23
    2b14:	77 0f       	add	r23, r23
    2b16:	77 0b       	sbc	r23, r23
    2b18:	62 0f       	add	r22, r18
    2b1a:	73 1f       	adc	r23, r19
    2b1c:	07 2e       	mov	r0, r23
    2b1e:	00 0c       	add	r0, r0
    2b20:	88 0b       	sbc	r24, r24
    2b22:	99 0b       	sbc	r25, r25
    2b24:	0e 94 40 2a 	call	0x5480	; 0x5480 <__floatsisf>
    2b28:	2a e9       	ldi	r18, 0x9A	; 154
    2b2a:	39 e9       	ldi	r19, 0x99	; 153
    2b2c:	49 e9       	ldi	r20, 0x99	; 153
    2b2e:	5e e3       	ldi	r21, 0x3E	; 62
    2b30:	0e 94 34 2b 	call	0x5668	; 0x5668 <__mulsf3>
    2b34:	6e ab       	std	Y+54, r22	; 0x36
    2b36:	7f ab       	std	Y+55, r23	; 0x37
    2b38:	88 af       	std	Y+56, r24	; 0x38
    2b3a:	99 af       	std	Y+57, r25	; 0x39
	MPU9150->mag_z = (MPU9150->raw_mag_z + ((MPU9150->raw_mag_z * MPU9150->sens_mag_z) >> 8)) * 0.3;
    2b3c:	2a 89       	ldd	r18, Y+18	; 0x12
    2b3e:	3b 89       	ldd	r19, Y+19	; 0x13
    2b40:	fe 01       	movw	r30, r28
    2b42:	ea 5a       	subi	r30, 0xAA	; 170
    2b44:	ff 4f       	sbci	r31, 0xFF	; 255
    2b46:	40 81       	ld	r20, Z
    2b48:	42 03       	mulsu	r20, r18
    2b4a:	b0 01       	movw	r22, r0
    2b4c:	43 9f       	mul	r20, r19
    2b4e:	70 0d       	add	r23, r0
    2b50:	11 24       	eor	r1, r1
    2b52:	67 2f       	mov	r22, r23
    2b54:	77 0f       	add	r23, r23
    2b56:	77 0b       	sbc	r23, r23
    2b58:	62 0f       	add	r22, r18
    2b5a:	73 1f       	adc	r23, r19
    2b5c:	07 2e       	mov	r0, r23
    2b5e:	00 0c       	add	r0, r0
    2b60:	88 0b       	sbc	r24, r24
    2b62:	99 0b       	sbc	r25, r25
    2b64:	0e 94 40 2a 	call	0x5480	; 0x5480 <__floatsisf>
    2b68:	2a e9       	ldi	r18, 0x9A	; 154
    2b6a:	39 e9       	ldi	r19, 0x99	; 153
    2b6c:	49 e9       	ldi	r20, 0x99	; 153
    2b6e:	5e e3       	ldi	r21, 0x3E	; 62
    2b70:	0e 94 34 2b 	call	0x5668	; 0x5668 <__mulsf3>
    2b74:	6a af       	std	Y+58, r22	; 0x3a
    2b76:	7b af       	std	Y+59, r23	; 0x3b
    2b78:	8c af       	std	Y+60, r24	; 0x3c
    2b7a:	9d af       	std	Y+61, r25	; 0x3d
	
	MPU9150->accel_x = (MPU9150->raw_accel_x - MPU9150->offset_accel_x) / 2048.0;	//16384.0; -2g
    2b7c:	fe 01       	movw	r30, r28
    2b7e:	ee 5b       	subi	r30, 0xBE	; 190
    2b80:	ff 4f       	sbci	r31, 0xFF	; 255
    2b82:	68 81       	ld	r22, Y
    2b84:	79 81       	ldd	r23, Y+1	; 0x01
    2b86:	80 81       	ld	r24, Z
    2b88:	91 81       	ldd	r25, Z+1	; 0x01
    2b8a:	68 1b       	sub	r22, r24
    2b8c:	79 0b       	sbc	r23, r25
    2b8e:	07 2e       	mov	r0, r23
    2b90:	00 0c       	add	r0, r0
    2b92:	88 0b       	sbc	r24, r24
    2b94:	99 0b       	sbc	r25, r25
    2b96:	0e 94 40 2a 	call	0x5480	; 0x5480 <__floatsisf>
    2b9a:	20 e0       	ldi	r18, 0x00	; 0
    2b9c:	30 e0       	ldi	r19, 0x00	; 0
    2b9e:	40 e0       	ldi	r20, 0x00	; 0
    2ba0:	5a e3       	ldi	r21, 0x3A	; 58
    2ba2:	0e 94 34 2b 	call	0x5668	; 0x5668 <__mulsf3>
    2ba6:	6c 8b       	std	Y+20, r22	; 0x14
    2ba8:	7d 8b       	std	Y+21, r23	; 0x15
    2baa:	8e 8b       	std	Y+22, r24	; 0x16
    2bac:	9f 8b       	std	Y+23, r25	; 0x17
	MPU9150->accel_y = (MPU9150->raw_accel_y - MPU9150->offset_accel_y) / 2048.0; //16384.0;
    2bae:	fe 01       	movw	r30, r28
    2bb0:	ec 5b       	subi	r30, 0xBC	; 188
    2bb2:	ff 4f       	sbci	r31, 0xFF	; 255
    2bb4:	6a 81       	ldd	r22, Y+2	; 0x02
    2bb6:	7b 81       	ldd	r23, Y+3	; 0x03
    2bb8:	80 81       	ld	r24, Z
    2bba:	91 81       	ldd	r25, Z+1	; 0x01
    2bbc:	68 1b       	sub	r22, r24
    2bbe:	79 0b       	sbc	r23, r25
    2bc0:	07 2e       	mov	r0, r23
    2bc2:	00 0c       	add	r0, r0
    2bc4:	88 0b       	sbc	r24, r24
    2bc6:	99 0b       	sbc	r25, r25
    2bc8:	0e 94 40 2a 	call	0x5480	; 0x5480 <__floatsisf>
    2bcc:	20 e0       	ldi	r18, 0x00	; 0
    2bce:	30 e0       	ldi	r19, 0x00	; 0
    2bd0:	40 e0       	ldi	r20, 0x00	; 0
    2bd2:	5a e3       	ldi	r21, 0x3A	; 58
    2bd4:	0e 94 34 2b 	call	0x5668	; 0x5668 <__mulsf3>
    2bd8:	68 8f       	std	Y+24, r22	; 0x18
    2bda:	79 8f       	std	Y+25, r23	; 0x19
    2bdc:	8a 8f       	std	Y+26, r24	; 0x1a
    2bde:	9b 8f       	std	Y+27, r25	; 0x1b
	MPU9150->accel_z = (MPU9150->raw_accel_z - MPU9150->offset_accel_z) / 2048.0; //16384.0;
    2be0:	fe 01       	movw	r30, r28
    2be2:	ea 5b       	subi	r30, 0xBA	; 186
    2be4:	ff 4f       	sbci	r31, 0xFF	; 255
    2be6:	6c 81       	ldd	r22, Y+4	; 0x04
    2be8:	7d 81       	ldd	r23, Y+5	; 0x05
    2bea:	80 81       	ld	r24, Z
    2bec:	91 81       	ldd	r25, Z+1	; 0x01
    2bee:	68 1b       	sub	r22, r24
    2bf0:	79 0b       	sbc	r23, r25
    2bf2:	07 2e       	mov	r0, r23
    2bf4:	00 0c       	add	r0, r0
    2bf6:	88 0b       	sbc	r24, r24
    2bf8:	99 0b       	sbc	r25, r25
    2bfa:	0e 94 40 2a 	call	0x5480	; 0x5480 <__floatsisf>
    2bfe:	20 e0       	ldi	r18, 0x00	; 0
    2c00:	30 e0       	ldi	r19, 0x00	; 0
    2c02:	40 e0       	ldi	r20, 0x00	; 0
    2c04:	5a e3       	ldi	r21, 0x3A	; 58
    2c06:	0e 94 34 2b 	call	0x5668	; 0x5668 <__mulsf3>
    2c0a:	6c 8f       	std	Y+28, r22	; 0x1c
    2c0c:	7d 8f       	std	Y+29, r23	; 0x1d
    2c0e:	8e 8f       	std	Y+30, r24	; 0x1e
    2c10:	9f 8f       	std	Y+31, r25	; 0x1f
	
	MPU9150->gyro_x = (MPU9150->raw_gyro_x - MPU9150->offset_gyro_x) / 16.4;	//131 - 250deg/s, 62.5 - 500deg/s,32.8 - 1000deg/s,16.4 - 2000deg/s
    2c12:	fe 01       	movw	r30, r28
    2c14:	e8 5b       	subi	r30, 0xB8	; 184
    2c16:	ff 4f       	sbci	r31, 0xFF	; 255
    2c18:	6e 81       	ldd	r22, Y+6	; 0x06
    2c1a:	7f 81       	ldd	r23, Y+7	; 0x07
    2c1c:	80 81       	ld	r24, Z
    2c1e:	91 81       	ldd	r25, Z+1	; 0x01
    2c20:	68 1b       	sub	r22, r24
    2c22:	79 0b       	sbc	r23, r25
    2c24:	07 2e       	mov	r0, r23
    2c26:	00 0c       	add	r0, r0
    2c28:	88 0b       	sbc	r24, r24
    2c2a:	99 0b       	sbc	r25, r25
    2c2c:	0e 94 40 2a 	call	0x5480	; 0x5480 <__floatsisf>
    2c30:	23 e3       	ldi	r18, 0x33	; 51
    2c32:	33 e3       	ldi	r19, 0x33	; 51
    2c34:	43 e8       	ldi	r20, 0x83	; 131
    2c36:	51 e4       	ldi	r21, 0x41	; 65
    2c38:	0e 94 a5 29 	call	0x534a	; 0x534a <__divsf3>
    2c3c:	6c a3       	std	Y+36, r22	; 0x24
    2c3e:	7d a3       	std	Y+37, r23	; 0x25
    2c40:	8e a3       	std	Y+38, r24	; 0x26
    2c42:	9f a3       	std	Y+39, r25	; 0x27
	MPU9150->gyro_y = (MPU9150->raw_gyro_y - MPU9150->offset_gyro_y) / 16.4;
    2c44:	fe 01       	movw	r30, r28
    2c46:	e6 5b       	subi	r30, 0xB6	; 182
    2c48:	ff 4f       	sbci	r31, 0xFF	; 255
    2c4a:	68 85       	ldd	r22, Y+8	; 0x08
    2c4c:	79 85       	ldd	r23, Y+9	; 0x09
    2c4e:	80 81       	ld	r24, Z
    2c50:	91 81       	ldd	r25, Z+1	; 0x01
    2c52:	68 1b       	sub	r22, r24
    2c54:	79 0b       	sbc	r23, r25
    2c56:	07 2e       	mov	r0, r23
    2c58:	00 0c       	add	r0, r0
    2c5a:	88 0b       	sbc	r24, r24
    2c5c:	99 0b       	sbc	r25, r25
    2c5e:	0e 94 40 2a 	call	0x5480	; 0x5480 <__floatsisf>
    2c62:	23 e3       	ldi	r18, 0x33	; 51
    2c64:	33 e3       	ldi	r19, 0x33	; 51
    2c66:	43 e8       	ldi	r20, 0x83	; 131
    2c68:	51 e4       	ldi	r21, 0x41	; 65
    2c6a:	0e 94 a5 29 	call	0x534a	; 0x534a <__divsf3>
    2c6e:	68 a7       	std	Y+40, r22	; 0x28
    2c70:	79 a7       	std	Y+41, r23	; 0x29
    2c72:	8a a7       	std	Y+42, r24	; 0x2a
    2c74:	9b a7       	std	Y+43, r25	; 0x2b
	MPU9150->gyro_z = (MPU9150->raw_gyro_z - MPU9150->offset_gyro_z) / 16.4;
    2c76:	fe 01       	movw	r30, r28
    2c78:	e4 5b       	subi	r30, 0xB4	; 180
    2c7a:	ff 4f       	sbci	r31, 0xFF	; 255
    2c7c:	6a 85       	ldd	r22, Y+10	; 0x0a
    2c7e:	7b 85       	ldd	r23, Y+11	; 0x0b
    2c80:	80 81       	ld	r24, Z
    2c82:	91 81       	ldd	r25, Z+1	; 0x01
    2c84:	68 1b       	sub	r22, r24
    2c86:	79 0b       	sbc	r23, r25
    2c88:	07 2e       	mov	r0, r23
    2c8a:	00 0c       	add	r0, r0
    2c8c:	88 0b       	sbc	r24, r24
    2c8e:	99 0b       	sbc	r25, r25
    2c90:	0e 94 40 2a 	call	0x5480	; 0x5480 <__floatsisf>
    2c94:	23 e3       	ldi	r18, 0x33	; 51
    2c96:	33 e3       	ldi	r19, 0x33	; 51
    2c98:	43 e8       	ldi	r20, 0x83	; 131
    2c9a:	51 e4       	ldi	r21, 0x41	; 65
    2c9c:	0e 94 a5 29 	call	0x534a	; 0x534a <__divsf3>
    2ca0:	6c a7       	std	Y+44, r22	; 0x2c
    2ca2:	7d a7       	std	Y+45, r23	; 0x2d
    2ca4:	8e a7       	std	Y+46, r24	; 0x2e
    2ca6:	9f a7       	std	Y+47, r25	; 0x2f
	
	MPU9150->temp  = (MPU9150->raw_temp + 11900.0) / 34.0;	//chyba *10
    2ca8:	6c 85       	ldd	r22, Y+12	; 0x0c
    2caa:	7d 85       	ldd	r23, Y+13	; 0x0d
    2cac:	07 2e       	mov	r0, r23
    2cae:	00 0c       	add	r0, r0
    2cb0:	88 0b       	sbc	r24, r24
    2cb2:	99 0b       	sbc	r25, r25
    2cb4:	0e 94 40 2a 	call	0x5480	; 0x5480 <__floatsisf>
    2cb8:	20 e0       	ldi	r18, 0x00	; 0
    2cba:	30 ef       	ldi	r19, 0xF0	; 240
    2cbc:	49 e3       	ldi	r20, 0x39	; 57
    2cbe:	56 e4       	ldi	r21, 0x46	; 70
    2cc0:	0e 94 3d 29 	call	0x527a	; 0x527a <__addsf3>
    2cc4:	20 e0       	ldi	r18, 0x00	; 0
    2cc6:	30 e0       	ldi	r19, 0x00	; 0
    2cc8:	48 e0       	ldi	r20, 0x08	; 8
    2cca:	52 e4       	ldi	r21, 0x42	; 66
    2ccc:	0e 94 a5 29 	call	0x534a	; 0x534a <__divsf3>
    2cd0:	0e 94 0d 2a 	call	0x541a	; 0x541a <__fixsfsi>
    2cd4:	68 ab       	std	Y+48, r22	; 0x30
    2cd6:	79 ab       	std	Y+49, r23	; 0x31
    2cd8:	df 91       	pop	r29
    2cda:	cf 91       	pop	r28
    2cdc:	08 95       	ret

00002cde <prepareFrame>:
	while((*s) && ((*s) != '*'))
	c ^= *s++;
	return c;
}

void decodeNMEA(GPS_t * GPS, ringBuffer_t * GPSbuf){
    2cde:	2f 92       	push	r2
    2ce0:	3f 92       	push	r3
    2ce2:	4f 92       	push	r4
    2ce4:	5f 92       	push	r5
    2ce6:	6f 92       	push	r6
    2ce8:	7f 92       	push	r7
    2cea:	8f 92       	push	r8
    2cec:	9f 92       	push	r9
    2cee:	af 92       	push	r10
    2cf0:	bf 92       	push	r11
    2cf2:	cf 92       	push	r12
    2cf4:	df 92       	push	r13
    2cf6:	ef 92       	push	r14
    2cf8:	ff 92       	push	r15
    2cfa:	0f 93       	push	r16
    2cfc:	1f 93       	push	r17
    2cfe:	cf 93       	push	r28
    2d00:	df 93       	push	r29
    2d02:	cd b7       	in	r28, 0x3d	; 61
    2d04:	de b7       	in	r29, 0x3e	; 62
    2d06:	2a 97       	sbiw	r28, 0x0a	; 10
    2d08:	cd bf       	out	0x3d, r28	; 61
    2d0a:	de bf       	out	0x3e, r29	; 62
    2d0c:	8c 01       	movw	r16, r24
    2d0e:	19 82       	std	Y+1, r1	; 0x01
    2d10:	1a 82       	std	Y+2, r1	; 0x02
    2d12:	dc 01       	movw	r26, r24
    2d14:	52 96       	adiw	r26, 0x12	; 18
    2d16:	2d 91       	ld	r18, X+
    2d18:	3c 91       	ld	r19, X
    2d1a:	53 97       	sbiw	r26, 0x13	; 19
    2d1c:	89 81       	ldd	r24, Y+1	; 0x01
    2d1e:	9a 81       	ldd	r25, Y+2	; 0x02
    2d20:	ac 01       	movw	r20, r24
    2d22:	4f 5f       	subi	r20, 0xFF	; 255
    2d24:	5f 4f       	sbci	r21, 0xFF	; 255
    2d26:	49 83       	std	Y+1, r20	; 0x01
    2d28:	5a 83       	std	Y+2, r21	; 0x02
    2d2a:	f9 01       	movw	r30, r18
    2d2c:	e8 0f       	add	r30, r24
    2d2e:	f9 1f       	adc	r31, r25
    2d30:	23 e3       	ldi	r18, 0x33	; 51
    2d32:	20 83       	st	Z, r18
    2d34:	52 96       	adiw	r26, 0x12	; 18
    2d36:	2d 91       	ld	r18, X+
    2d38:	3c 91       	ld	r19, X
    2d3a:	53 97       	sbiw	r26, 0x13	; 19
    2d3c:	89 81       	ldd	r24, Y+1	; 0x01
    2d3e:	9a 81       	ldd	r25, Y+2	; 0x02
    2d40:	ac 01       	movw	r20, r24
    2d42:	4f 5f       	subi	r20, 0xFF	; 255
    2d44:	5f 4f       	sbci	r21, 0xFF	; 255
    2d46:	49 83       	std	Y+1, r20	; 0x01
    2d48:	5a 83       	std	Y+2, r21	; 0x02
    2d4a:	f9 01       	movw	r30, r18
    2d4c:	e8 0f       	add	r30, r24
    2d4e:	f9 1f       	adc	r31, r25
    2d50:	22 e3       	ldi	r18, 0x32	; 50
    2d52:	20 83       	st	Z, r18
    2d54:	52 96       	adiw	r26, 0x12	; 18
    2d56:	2d 91       	ld	r18, X+
    2d58:	3c 91       	ld	r19, X
    2d5a:	53 97       	sbiw	r26, 0x13	; 19
    2d5c:	89 81       	ldd	r24, Y+1	; 0x01
    2d5e:	9a 81       	ldd	r25, Y+2	; 0x02
    2d60:	ac 01       	movw	r20, r24
    2d62:	4f 5f       	subi	r20, 0xFF	; 255
    2d64:	5f 4f       	sbci	r21, 0xFF	; 255
    2d66:	49 83       	std	Y+1, r20	; 0x01
    2d68:	5a 83       	std	Y+2, r21	; 0x02
    2d6a:	f9 01       	movw	r30, r18
    2d6c:	e8 0f       	add	r30, r24
    2d6e:	f9 1f       	adc	r31, r25
    2d70:	29 e3       	ldi	r18, 0x39	; 57
    2d72:	20 83       	st	Z, r18
    2d74:	52 96       	adiw	r26, 0x12	; 18
    2d76:	2d 91       	ld	r18, X+
    2d78:	3c 91       	ld	r19, X
    2d7a:	53 97       	sbiw	r26, 0x13	; 19
    2d7c:	89 81       	ldd	r24, Y+1	; 0x01
    2d7e:	9a 81       	ldd	r25, Y+2	; 0x02
    2d80:	ac 01       	movw	r20, r24
    2d82:	4f 5f       	subi	r20, 0xFF	; 255
    2d84:	5f 4f       	sbci	r21, 0xFF	; 255
    2d86:	49 83       	std	Y+1, r20	; 0x01
    2d88:	5a 83       	std	Y+2, r21	; 0x02
    2d8a:	f9 01       	movw	r30, r18
    2d8c:	e8 0f       	add	r30, r24
    2d8e:	f9 1f       	adc	r31, r25
    2d90:	26 e3       	ldi	r18, 0x36	; 54
    2d92:	20 83       	st	Z, r18
    2d94:	52 96       	adiw	r26, 0x12	; 18
    2d96:	2d 91       	ld	r18, X+
    2d98:	3c 91       	ld	r19, X
    2d9a:	53 97       	sbiw	r26, 0x13	; 19
    2d9c:	89 81       	ldd	r24, Y+1	; 0x01
    2d9e:	9a 81       	ldd	r25, Y+2	; 0x02
    2da0:	ac 01       	movw	r20, r24
    2da2:	4f 5f       	subi	r20, 0xFF	; 255
    2da4:	5f 4f       	sbci	r21, 0xFF	; 255
    2da6:	49 83       	std	Y+1, r20	; 0x01
    2da8:	5a 83       	std	Y+2, r21	; 0x02
    2daa:	f9 01       	movw	r30, r18
    2dac:	e8 0f       	add	r30, r24
    2dae:	f9 1f       	adc	r31, r25
    2db0:	0f 2e       	mov	r0, r31
    2db2:	fc e2       	ldi	r31, 0x2C	; 44
    2db4:	df 2e       	mov	r13, r31
    2db6:	f0 2d       	mov	r31, r0
    2db8:	d0 82       	st	Z, r13
    2dba:	56 96       	adiw	r26, 0x16	; 22
    2dbc:	ed 91       	ld	r30, X+
    2dbe:	fc 91       	ld	r31, X
    2dc0:	57 97       	sbiw	r26, 0x17	; 23
    2dc2:	84 81       	ldd	r24, Z+4	; 0x04
    2dc4:	95 81       	ldd	r25, Z+5	; 0x05
    2dc6:	8b 83       	std	Y+3, r24	; 0x03
    2dc8:	9c 83       	std	Y+4, r25	; 0x04
    2dca:	52 96       	adiw	r26, 0x12	; 18
    2dcc:	4d 91       	ld	r20, X+
    2dce:	5c 91       	ld	r21, X
    2dd0:	53 97       	sbiw	r26, 0x13	; 19
    2dd2:	29 81       	ldd	r18, Y+1	; 0x01
    2dd4:	3a 81       	ldd	r19, Y+2	; 0x02
    2dd6:	c9 01       	movw	r24, r18
    2dd8:	01 96       	adiw	r24, 0x01	; 1
    2dda:	89 83       	std	Y+1, r24	; 0x01
    2ddc:	9a 83       	std	Y+2, r25	; 0x02
    2dde:	8b 81       	ldd	r24, Y+3	; 0x03
    2de0:	9c 81       	ldd	r25, Y+4	; 0x04
    2de2:	fa 01       	movw	r30, r20
    2de4:	e2 0f       	add	r30, r18
    2de6:	f3 1f       	adc	r31, r19
    2de8:	60 e1       	ldi	r22, 0x10	; 16
    2dea:	77 e2       	ldi	r23, 0x27	; 39
    2dec:	0e 94 59 2d 	call	0x5ab2	; 0x5ab2 <__divmodhi4>
    2df0:	cb 01       	movw	r24, r22
    2df2:	0f 2e       	mov	r0, r31
    2df4:	fa e0       	ldi	r31, 0x0A	; 10
    2df6:	ef 2e       	mov	r14, r31
    2df8:	f1 2c       	mov	r15, r1
    2dfa:	f0 2d       	mov	r31, r0
    2dfc:	b7 01       	movw	r22, r14
    2dfe:	0e 94 59 2d 	call	0x5ab2	; 0x5ab2 <__divmodhi4>
    2e02:	80 5d       	subi	r24, 0xD0	; 208
    2e04:	80 83       	st	Z, r24
    2e06:	f8 01       	movw	r30, r16
    2e08:	42 89       	ldd	r20, Z+18	; 0x12
    2e0a:	53 89       	ldd	r21, Z+19	; 0x13
    2e0c:	29 81       	ldd	r18, Y+1	; 0x01
    2e0e:	3a 81       	ldd	r19, Y+2	; 0x02
    2e10:	c9 01       	movw	r24, r18
    2e12:	01 96       	adiw	r24, 0x01	; 1
    2e14:	89 83       	std	Y+1, r24	; 0x01
    2e16:	9a 83       	std	Y+2, r25	; 0x02
    2e18:	8b 81       	ldd	r24, Y+3	; 0x03
    2e1a:	9c 81       	ldd	r25, Y+4	; 0x04
    2e1c:	fa 01       	movw	r30, r20
    2e1e:	e2 0f       	add	r30, r18
    2e20:	f3 1f       	adc	r31, r19
    2e22:	0f 2e       	mov	r0, r31
    2e24:	f8 ee       	ldi	r31, 0xE8	; 232
    2e26:	8f 2e       	mov	r8, r31
    2e28:	f3 e0       	ldi	r31, 0x03	; 3
    2e2a:	9f 2e       	mov	r9, r31
    2e2c:	f0 2d       	mov	r31, r0
    2e2e:	b4 01       	movw	r22, r8
    2e30:	0e 94 59 2d 	call	0x5ab2	; 0x5ab2 <__divmodhi4>
    2e34:	cb 01       	movw	r24, r22
    2e36:	b7 01       	movw	r22, r14
    2e38:	0e 94 59 2d 	call	0x5ab2	; 0x5ab2 <__divmodhi4>
    2e3c:	80 5d       	subi	r24, 0xD0	; 208
    2e3e:	80 83       	st	Z, r24
    2e40:	d8 01       	movw	r26, r16
    2e42:	52 96       	adiw	r26, 0x12	; 18
    2e44:	4d 91       	ld	r20, X+
    2e46:	5c 91       	ld	r21, X
    2e48:	53 97       	sbiw	r26, 0x13	; 19
    2e4a:	29 81       	ldd	r18, Y+1	; 0x01
    2e4c:	3a 81       	ldd	r19, Y+2	; 0x02
    2e4e:	c9 01       	movw	r24, r18
    2e50:	01 96       	adiw	r24, 0x01	; 1
    2e52:	89 83       	std	Y+1, r24	; 0x01
    2e54:	9a 83       	std	Y+2, r25	; 0x02
    2e56:	8b 81       	ldd	r24, Y+3	; 0x03
    2e58:	9c 81       	ldd	r25, Y+4	; 0x04
    2e5a:	fa 01       	movw	r30, r20
    2e5c:	e2 0f       	add	r30, r18
    2e5e:	f3 1f       	adc	r31, r19
    2e60:	0f 2e       	mov	r0, r31
    2e62:	f4 e6       	ldi	r31, 0x64	; 100
    2e64:	af 2e       	mov	r10, r31
    2e66:	b1 2c       	mov	r11, r1
    2e68:	f0 2d       	mov	r31, r0
    2e6a:	b5 01       	movw	r22, r10
    2e6c:	0e 94 59 2d 	call	0x5ab2	; 0x5ab2 <__divmodhi4>
    2e70:	cb 01       	movw	r24, r22
    2e72:	b7 01       	movw	r22, r14
    2e74:	0e 94 59 2d 	call	0x5ab2	; 0x5ab2 <__divmodhi4>
    2e78:	80 5d       	subi	r24, 0xD0	; 208
    2e7a:	80 83       	st	Z, r24
    2e7c:	f8 01       	movw	r30, r16
    2e7e:	42 89       	ldd	r20, Z+18	; 0x12
    2e80:	53 89       	ldd	r21, Z+19	; 0x13
    2e82:	29 81       	ldd	r18, Y+1	; 0x01
    2e84:	3a 81       	ldd	r19, Y+2	; 0x02
    2e86:	c9 01       	movw	r24, r18
    2e88:	01 96       	adiw	r24, 0x01	; 1
    2e8a:	89 83       	std	Y+1, r24	; 0x01
    2e8c:	9a 83       	std	Y+2, r25	; 0x02
    2e8e:	8b 81       	ldd	r24, Y+3	; 0x03
    2e90:	9c 81       	ldd	r25, Y+4	; 0x04
    2e92:	fa 01       	movw	r30, r20
    2e94:	e2 0f       	add	r30, r18
    2e96:	f3 1f       	adc	r31, r19
    2e98:	b7 01       	movw	r22, r14
    2e9a:	0e 94 59 2d 	call	0x5ab2	; 0x5ab2 <__divmodhi4>
    2e9e:	cb 01       	movw	r24, r22
    2ea0:	b7 01       	movw	r22, r14
    2ea2:	0e 94 59 2d 	call	0x5ab2	; 0x5ab2 <__divmodhi4>
    2ea6:	80 5d       	subi	r24, 0xD0	; 208
    2ea8:	80 83       	st	Z, r24
    2eaa:	d8 01       	movw	r26, r16
    2eac:	52 96       	adiw	r26, 0x12	; 18
    2eae:	4d 91       	ld	r20, X+
    2eb0:	5c 91       	ld	r21, X
    2eb2:	53 97       	sbiw	r26, 0x13	; 19
    2eb4:	29 81       	ldd	r18, Y+1	; 0x01
    2eb6:	3a 81       	ldd	r19, Y+2	; 0x02
    2eb8:	c9 01       	movw	r24, r18
    2eba:	01 96       	adiw	r24, 0x01	; 1
    2ebc:	89 83       	std	Y+1, r24	; 0x01
    2ebe:	9a 83       	std	Y+2, r25	; 0x02
    2ec0:	8b 81       	ldd	r24, Y+3	; 0x03
    2ec2:	9c 81       	ldd	r25, Y+4	; 0x04
    2ec4:	fa 01       	movw	r30, r20
    2ec6:	e2 0f       	add	r30, r18
    2ec8:	f3 1f       	adc	r31, r19
    2eca:	b7 01       	movw	r22, r14
    2ecc:	0e 94 59 2d 	call	0x5ab2	; 0x5ab2 <__divmodhi4>
    2ed0:	80 5d       	subi	r24, 0xD0	; 208
    2ed2:	80 83       	st	Z, r24
    2ed4:	f8 01       	movw	r30, r16
    2ed6:	22 89       	ldd	r18, Z+18	; 0x12
    2ed8:	33 89       	ldd	r19, Z+19	; 0x13
    2eda:	89 81       	ldd	r24, Y+1	; 0x01
    2edc:	9a 81       	ldd	r25, Y+2	; 0x02
    2ede:	ac 01       	movw	r20, r24
    2ee0:	4f 5f       	subi	r20, 0xFF	; 255
    2ee2:	5f 4f       	sbci	r21, 0xFF	; 255
    2ee4:	49 83       	std	Y+1, r20	; 0x01
    2ee6:	5a 83       	std	Y+2, r21	; 0x02
    2ee8:	f9 01       	movw	r30, r18
    2eea:	e8 0f       	add	r30, r24
    2eec:	f9 1f       	adc	r31, r25
    2eee:	d0 82       	st	Z, r13
    2ef0:	d8 01       	movw	r26, r16
    2ef2:	18 96       	adiw	r26, 0x08	; 8
    2ef4:	ed 91       	ld	r30, X+
    2ef6:	fc 91       	ld	r31, X
    2ef8:	19 97       	sbiw	r26, 0x09	; 9
    2efa:	20 e0       	ldi	r18, 0x00	; 0
    2efc:	30 e0       	ldi	r19, 0x00	; 0
    2efe:	4a e7       	ldi	r20, 0x7A	; 122
    2f00:	54 e4       	ldi	r21, 0x44	; 68
    2f02:	64 81       	ldd	r22, Z+4	; 0x04
    2f04:	75 81       	ldd	r23, Z+5	; 0x05
    2f06:	86 81       	ldd	r24, Z+6	; 0x06
    2f08:	97 81       	ldd	r25, Z+7	; 0x07
    2f0a:	0e 94 34 2b 	call	0x5668	; 0x5668 <__mulsf3>
    2f0e:	0e 94 0d 2a 	call	0x541a	; 0x541a <__fixsfsi>
    2f12:	6b 83       	std	Y+3, r22	; 0x03
    2f14:	7c 83       	std	Y+4, r23	; 0x04
    2f16:	f8 01       	movw	r30, r16
    2f18:	42 89       	ldd	r20, Z+18	; 0x12
    2f1a:	53 89       	ldd	r21, Z+19	; 0x13
    2f1c:	29 81       	ldd	r18, Y+1	; 0x01
    2f1e:	3a 81       	ldd	r19, Y+2	; 0x02
    2f20:	c9 01       	movw	r24, r18
    2f22:	01 96       	adiw	r24, 0x01	; 1
    2f24:	89 83       	std	Y+1, r24	; 0x01
    2f26:	9a 83       	std	Y+2, r25	; 0x02
    2f28:	8b 81       	ldd	r24, Y+3	; 0x03
    2f2a:	9c 81       	ldd	r25, Y+4	; 0x04
    2f2c:	fa 01       	movw	r30, r20
    2f2e:	e2 0f       	add	r30, r18
    2f30:	f3 1f       	adc	r31, r19
    2f32:	b4 01       	movw	r22, r8
    2f34:	0e 94 59 2d 	call	0x5ab2	; 0x5ab2 <__divmodhi4>
    2f38:	cb 01       	movw	r24, r22
    2f3a:	b7 01       	movw	r22, r14
    2f3c:	0e 94 59 2d 	call	0x5ab2	; 0x5ab2 <__divmodhi4>
    2f40:	80 5d       	subi	r24, 0xD0	; 208
    2f42:	80 83       	st	Z, r24
    2f44:	d8 01       	movw	r26, r16
    2f46:	52 96       	adiw	r26, 0x12	; 18
    2f48:	2d 91       	ld	r18, X+
    2f4a:	3c 91       	ld	r19, X
    2f4c:	53 97       	sbiw	r26, 0x13	; 19
    2f4e:	89 81       	ldd	r24, Y+1	; 0x01
    2f50:	9a 81       	ldd	r25, Y+2	; 0x02
    2f52:	ac 01       	movw	r20, r24
    2f54:	4f 5f       	subi	r20, 0xFF	; 255
    2f56:	5f 4f       	sbci	r21, 0xFF	; 255
    2f58:	49 83       	std	Y+1, r20	; 0x01
    2f5a:	5a 83       	std	Y+2, r21	; 0x02
    2f5c:	f9 01       	movw	r30, r18
    2f5e:	e8 0f       	add	r30, r24
    2f60:	f9 1f       	adc	r31, r25
    2f62:	2e e2       	ldi	r18, 0x2E	; 46
    2f64:	20 83       	st	Z, r18
    2f66:	52 96       	adiw	r26, 0x12	; 18
    2f68:	4d 91       	ld	r20, X+
    2f6a:	5c 91       	ld	r21, X
    2f6c:	53 97       	sbiw	r26, 0x13	; 19
    2f6e:	29 81       	ldd	r18, Y+1	; 0x01
    2f70:	3a 81       	ldd	r19, Y+2	; 0x02
    2f72:	c9 01       	movw	r24, r18
    2f74:	01 96       	adiw	r24, 0x01	; 1
    2f76:	89 83       	std	Y+1, r24	; 0x01
    2f78:	9a 83       	std	Y+2, r25	; 0x02
    2f7a:	8b 81       	ldd	r24, Y+3	; 0x03
    2f7c:	9c 81       	ldd	r25, Y+4	; 0x04
    2f7e:	fa 01       	movw	r30, r20
    2f80:	e2 0f       	add	r30, r18
    2f82:	f3 1f       	adc	r31, r19
    2f84:	b5 01       	movw	r22, r10
    2f86:	0e 94 59 2d 	call	0x5ab2	; 0x5ab2 <__divmodhi4>
    2f8a:	cb 01       	movw	r24, r22
    2f8c:	b7 01       	movw	r22, r14
    2f8e:	0e 94 59 2d 	call	0x5ab2	; 0x5ab2 <__divmodhi4>
    2f92:	80 5d       	subi	r24, 0xD0	; 208
    2f94:	80 83       	st	Z, r24
    2f96:	f8 01       	movw	r30, r16
    2f98:	42 89       	ldd	r20, Z+18	; 0x12
    2f9a:	53 89       	ldd	r21, Z+19	; 0x13
    2f9c:	29 81       	ldd	r18, Y+1	; 0x01
    2f9e:	3a 81       	ldd	r19, Y+2	; 0x02
    2fa0:	c9 01       	movw	r24, r18
    2fa2:	01 96       	adiw	r24, 0x01	; 1
    2fa4:	89 83       	std	Y+1, r24	; 0x01
    2fa6:	9a 83       	std	Y+2, r25	; 0x02
    2fa8:	8b 81       	ldd	r24, Y+3	; 0x03
    2faa:	9c 81       	ldd	r25, Y+4	; 0x04
    2fac:	fa 01       	movw	r30, r20
    2fae:	e2 0f       	add	r30, r18
    2fb0:	f3 1f       	adc	r31, r19
    2fb2:	b7 01       	movw	r22, r14
    2fb4:	0e 94 59 2d 	call	0x5ab2	; 0x5ab2 <__divmodhi4>
    2fb8:	cb 01       	movw	r24, r22
    2fba:	b7 01       	movw	r22, r14
    2fbc:	0e 94 59 2d 	call	0x5ab2	; 0x5ab2 <__divmodhi4>
    2fc0:	80 5d       	subi	r24, 0xD0	; 208
    2fc2:	80 83       	st	Z, r24
    2fc4:	d8 01       	movw	r26, r16
    2fc6:	52 96       	adiw	r26, 0x12	; 18
    2fc8:	4d 91       	ld	r20, X+
    2fca:	5c 91       	ld	r21, X
    2fcc:	53 97       	sbiw	r26, 0x13	; 19
    2fce:	29 81       	ldd	r18, Y+1	; 0x01
    2fd0:	3a 81       	ldd	r19, Y+2	; 0x02
    2fd2:	c9 01       	movw	r24, r18
    2fd4:	01 96       	adiw	r24, 0x01	; 1
    2fd6:	89 83       	std	Y+1, r24	; 0x01
    2fd8:	9a 83       	std	Y+2, r25	; 0x02
    2fda:	8b 81       	ldd	r24, Y+3	; 0x03
    2fdc:	9c 81       	ldd	r25, Y+4	; 0x04
    2fde:	fa 01       	movw	r30, r20
    2fe0:	e2 0f       	add	r30, r18
    2fe2:	f3 1f       	adc	r31, r19
    2fe4:	b7 01       	movw	r22, r14
    2fe6:	0e 94 59 2d 	call	0x5ab2	; 0x5ab2 <__divmodhi4>
    2fea:	80 5d       	subi	r24, 0xD0	; 208
    2fec:	80 83       	st	Z, r24
    2fee:	f8 01       	movw	r30, r16
    2ff0:	22 89       	ldd	r18, Z+18	; 0x12
    2ff2:	33 89       	ldd	r19, Z+19	; 0x13
    2ff4:	89 81       	ldd	r24, Y+1	; 0x01
    2ff6:	9a 81       	ldd	r25, Y+2	; 0x02
    2ff8:	ac 01       	movw	r20, r24
    2ffa:	4f 5f       	subi	r20, 0xFF	; 255
    2ffc:	5f 4f       	sbci	r21, 0xFF	; 255
    2ffe:	49 83       	std	Y+1, r20	; 0x01
    3000:	5a 83       	std	Y+2, r21	; 0x02
    3002:	f9 01       	movw	r30, r18
    3004:	e8 0f       	add	r30, r24
    3006:	f9 1f       	adc	r31, r25
    3008:	d0 82       	st	Z, r13
    300a:	d8 01       	movw	r26, r16
    300c:	1a 96       	adiw	r26, 0x0a	; 10
    300e:	ed 91       	ld	r30, X+
    3010:	fc 91       	ld	r31, X
    3012:	1b 97       	sbiw	r26, 0x0b	; 11
    3014:	87 81       	ldd	r24, Z+7	; 0x07
    3016:	90 e0       	ldi	r25, 0x00	; 0
    3018:	8b 83       	std	Y+3, r24	; 0x03
    301a:	9c 83       	std	Y+4, r25	; 0x04
    301c:	52 96       	adiw	r26, 0x12	; 18
    301e:	4d 91       	ld	r20, X+
    3020:	5c 91       	ld	r21, X
    3022:	53 97       	sbiw	r26, 0x13	; 19
    3024:	89 81       	ldd	r24, Y+1	; 0x01
    3026:	9a 81       	ldd	r25, Y+2	; 0x02
    3028:	9c 01       	movw	r18, r24
    302a:	2f 5f       	subi	r18, 0xFF	; 255
    302c:	3f 4f       	sbci	r19, 0xFF	; 255
    302e:	29 83       	std	Y+1, r18	; 0x01
    3030:	3a 83       	std	Y+2, r19	; 0x02
    3032:	2b 81       	ldd	r18, Y+3	; 0x03
    3034:	3c 81       	ldd	r19, Y+4	; 0x04
    3036:	fa 01       	movw	r30, r20
    3038:	e8 0f       	add	r30, r24
    303a:	f9 1f       	adc	r31, r25
    303c:	20 5d       	subi	r18, 0xD0	; 208
    303e:	20 83       	st	Z, r18
    3040:	52 96       	adiw	r26, 0x12	; 18
    3042:	2d 91       	ld	r18, X+
    3044:	3c 91       	ld	r19, X
    3046:	53 97       	sbiw	r26, 0x13	; 19
    3048:	89 81       	ldd	r24, Y+1	; 0x01
    304a:	9a 81       	ldd	r25, Y+2	; 0x02
    304c:	ac 01       	movw	r20, r24
    304e:	4f 5f       	subi	r20, 0xFF	; 255
    3050:	5f 4f       	sbci	r21, 0xFF	; 255
    3052:	49 83       	std	Y+1, r20	; 0x01
    3054:	5a 83       	std	Y+2, r21	; 0x02
    3056:	f9 01       	movw	r30, r18
    3058:	e8 0f       	add	r30, r24
    305a:	f9 1f       	adc	r31, r25
    305c:	d0 82       	st	Z, r13
    305e:	52 96       	adiw	r26, 0x12	; 18
    3060:	2d 91       	ld	r18, X+
    3062:	3c 91       	ld	r19, X
    3064:	53 97       	sbiw	r26, 0x13	; 19
    3066:	89 81       	ldd	r24, Y+1	; 0x01
    3068:	9a 81       	ldd	r25, Y+2	; 0x02
    306a:	ac 01       	movw	r20, r24
    306c:	4f 5f       	subi	r20, 0xFF	; 255
    306e:	5f 4f       	sbci	r21, 0xFF	; 255
    3070:	49 83       	std	Y+1, r20	; 0x01
    3072:	5a 83       	std	Y+2, r21	; 0x02
    3074:	f9 01       	movw	r30, r18
    3076:	e8 0f       	add	r30, r24
    3078:	f9 1f       	adc	r31, r25
    307a:	23 e5       	ldi	r18, 0x53	; 83
    307c:	20 83       	st	Z, r18
    307e:	52 96       	adiw	r26, 0x12	; 18
    3080:	2d 91       	ld	r18, X+
    3082:	3c 91       	ld	r19, X
    3084:	53 97       	sbiw	r26, 0x13	; 19
    3086:	89 81       	ldd	r24, Y+1	; 0x01
    3088:	9a 81       	ldd	r25, Y+2	; 0x02
    308a:	ac 01       	movw	r20, r24
    308c:	4f 5f       	subi	r20, 0xFF	; 255
    308e:	5f 4f       	sbci	r21, 0xFF	; 255
    3090:	49 83       	std	Y+1, r20	; 0x01
    3092:	5a 83       	std	Y+2, r21	; 0x02
    3094:	d9 01       	movw	r26, r18
    3096:	a8 0f       	add	r26, r24
    3098:	b9 1f       	adc	r27, r25
    309a:	f8 01       	movw	r30, r16
    309c:	82 85       	ldd	r24, Z+10	; 0x0a
    309e:	93 85       	ldd	r25, Z+11	; 0x0b
    30a0:	fc 01       	movw	r30, r24
    30a2:	26 81       	ldd	r18, Z+6	; 0x06
    30a4:	20 5d       	subi	r18, 0xD0	; 208
    30a6:	2c 93       	st	X, r18
    30a8:	d8 01       	movw	r26, r16
    30aa:	52 96       	adiw	r26, 0x12	; 18
    30ac:	2d 91       	ld	r18, X+
    30ae:	3c 91       	ld	r19, X
    30b0:	53 97       	sbiw	r26, 0x13	; 19
    30b2:	89 81       	ldd	r24, Y+1	; 0x01
    30b4:	9a 81       	ldd	r25, Y+2	; 0x02
    30b6:	ac 01       	movw	r20, r24
    30b8:	4f 5f       	subi	r20, 0xFF	; 255
    30ba:	5f 4f       	sbci	r21, 0xFF	; 255
    30bc:	49 83       	std	Y+1, r20	; 0x01
    30be:	5a 83       	std	Y+2, r21	; 0x02
    30c0:	d9 01       	movw	r26, r18
    30c2:	a8 0f       	add	r26, r24
    30c4:	b9 1f       	adc	r27, r25
    30c6:	f8 01       	movw	r30, r16
    30c8:	82 85       	ldd	r24, Z+10	; 0x0a
    30ca:	93 85       	ldd	r25, Z+11	; 0x0b
    30cc:	fc 01       	movw	r30, r24
    30ce:	24 81       	ldd	r18, Z+4	; 0x04
    30d0:	20 5d       	subi	r18, 0xD0	; 208
    30d2:	2c 93       	st	X, r18
    30d4:	d8 01       	movw	r26, r16
    30d6:	52 96       	adiw	r26, 0x12	; 18
    30d8:	2d 91       	ld	r18, X+
    30da:	3c 91       	ld	r19, X
    30dc:	53 97       	sbiw	r26, 0x13	; 19
    30de:	89 81       	ldd	r24, Y+1	; 0x01
    30e0:	9a 81       	ldd	r25, Y+2	; 0x02
    30e2:	ac 01       	movw	r20, r24
    30e4:	4f 5f       	subi	r20, 0xFF	; 255
    30e6:	5f 4f       	sbci	r21, 0xFF	; 255
    30e8:	49 83       	std	Y+1, r20	; 0x01
    30ea:	5a 83       	std	Y+2, r21	; 0x02
    30ec:	d9 01       	movw	r26, r18
    30ee:	a8 0f       	add	r26, r24
    30f0:	b9 1f       	adc	r27, r25
    30f2:	f8 01       	movw	r30, r16
    30f4:	82 85       	ldd	r24, Z+10	; 0x0a
    30f6:	93 85       	ldd	r25, Z+11	; 0x0b
    30f8:	fc 01       	movw	r30, r24
    30fa:	25 81       	ldd	r18, Z+5	; 0x05
    30fc:	20 5d       	subi	r18, 0xD0	; 208
    30fe:	2c 93       	st	X, r18
    3100:	d8 01       	movw	r26, r16
    3102:	52 96       	adiw	r26, 0x12	; 18
    3104:	2d 91       	ld	r18, X+
    3106:	3c 91       	ld	r19, X
    3108:	53 97       	sbiw	r26, 0x13	; 19
    310a:	89 81       	ldd	r24, Y+1	; 0x01
    310c:	9a 81       	ldd	r25, Y+2	; 0x02
    310e:	ac 01       	movw	r20, r24
    3110:	4f 5f       	subi	r20, 0xFF	; 255
    3112:	5f 4f       	sbci	r21, 0xFF	; 255
    3114:	49 83       	std	Y+1, r20	; 0x01
    3116:	5a 83       	std	Y+2, r21	; 0x02
    3118:	d9 01       	movw	r26, r18
    311a:	a8 0f       	add	r26, r24
    311c:	b9 1f       	adc	r27, r25
    311e:	f8 01       	movw	r30, r16
    3120:	82 85       	ldd	r24, Z+10	; 0x0a
    3122:	93 85       	ldd	r25, Z+11	; 0x0b
    3124:	fc 01       	movw	r30, r24
    3126:	23 81       	ldd	r18, Z+3	; 0x03
    3128:	20 5d       	subi	r18, 0xD0	; 208
    312a:	2c 93       	st	X, r18
    312c:	d8 01       	movw	r26, r16
    312e:	52 96       	adiw	r26, 0x12	; 18
    3130:	2d 91       	ld	r18, X+
    3132:	3c 91       	ld	r19, X
    3134:	53 97       	sbiw	r26, 0x13	; 19
    3136:	89 81       	ldd	r24, Y+1	; 0x01
    3138:	9a 81       	ldd	r25, Y+2	; 0x02
    313a:	ac 01       	movw	r20, r24
    313c:	4f 5f       	subi	r20, 0xFF	; 255
    313e:	5f 4f       	sbci	r21, 0xFF	; 255
    3140:	49 83       	std	Y+1, r20	; 0x01
    3142:	5a 83       	std	Y+2, r21	; 0x02
    3144:	f9 01       	movw	r30, r18
    3146:	e8 0f       	add	r30, r24
    3148:	f9 1f       	adc	r31, r25
    314a:	d0 82       	st	Z, r13
    314c:	1e 96       	adiw	r26, 0x0e	; 14
    314e:	ed 91       	ld	r30, X+
    3150:	fc 91       	ld	r31, X
    3152:	1f 97       	sbiw	r26, 0x0f	; 15
    3154:	c4 88       	ldd	r12, Z+20	; 0x14
    3156:	d5 88       	ldd	r13, Z+21	; 0x15
    3158:	e6 88       	ldd	r14, Z+22	; 0x16
    315a:	f7 88       	ldd	r15, Z+23	; 0x17
    315c:	c7 01       	movw	r24, r14
    315e:	b6 01       	movw	r22, r12
    3160:	0e 94 0d 2a 	call	0x541a	; 0x541a <__fixsfsi>
    3164:	6b 83       	std	Y+3, r22	; 0x03
    3166:	7c 83       	std	Y+4, r23	; 0x04
    3168:	c7 01       	movw	r24, r14
    316a:	b6 01       	movw	r22, r12
    316c:	0e 94 25 2c 	call	0x584a	; 0x584a <trunc>
    3170:	9b 01       	movw	r18, r22
    3172:	ac 01       	movw	r20, r24
    3174:	c7 01       	movw	r24, r14
    3176:	b6 01       	movw	r22, r12
    3178:	0e 94 3c 29 	call	0x5278	; 0x5278 <__subsf3>
    317c:	20 e0       	ldi	r18, 0x00	; 0
    317e:	30 e0       	ldi	r19, 0x00	; 0
    3180:	48 ec       	ldi	r20, 0xC8	; 200
    3182:	52 e4       	ldi	r21, 0x42	; 66
    3184:	0e 94 34 2b 	call	0x5668	; 0x5668 <__mulsf3>
    3188:	0e 94 0d 2a 	call	0x541a	; 0x541a <__fixsfsi>
    318c:	6d 83       	std	Y+5, r22	; 0x05
    318e:	7e 83       	std	Y+6, r23	; 0x06
    3190:	8b 81       	ldd	r24, Y+3	; 0x03
    3192:	9c 81       	ldd	r25, Y+4	; 0x04
    3194:	99 23       	and	r25, r25
    3196:	24 f0       	brlt	.+8      	; 0x31a0 <prepareFrame+0x4c2>
    3198:	8d 81       	ldd	r24, Y+5	; 0x05
    319a:	9e 81       	ldd	r25, Y+6	; 0x06
    319c:	99 23       	and	r25, r25
    319e:	f4 f4       	brge	.+60     	; 0x31dc <prepareFrame+0x4fe>
    31a0:	8b 81       	ldd	r24, Y+3	; 0x03
    31a2:	9c 81       	ldd	r25, Y+4	; 0x04
    31a4:	91 95       	neg	r25
    31a6:	81 95       	neg	r24
    31a8:	91 09       	sbc	r25, r1
    31aa:	8b 83       	std	Y+3, r24	; 0x03
    31ac:	9c 83       	std	Y+4, r25	; 0x04
    31ae:	8d 81       	ldd	r24, Y+5	; 0x05
    31b0:	9e 81       	ldd	r25, Y+6	; 0x06
    31b2:	91 95       	neg	r25
    31b4:	81 95       	neg	r24
    31b6:	91 09       	sbc	r25, r1
    31b8:	8d 83       	std	Y+5, r24	; 0x05
    31ba:	9e 83       	std	Y+6, r25	; 0x06
    31bc:	f8 01       	movw	r30, r16
    31be:	22 89       	ldd	r18, Z+18	; 0x12
    31c0:	33 89       	ldd	r19, Z+19	; 0x13
    31c2:	89 81       	ldd	r24, Y+1	; 0x01
    31c4:	9a 81       	ldd	r25, Y+2	; 0x02
    31c6:	ac 01       	movw	r20, r24
    31c8:	4f 5f       	subi	r20, 0xFF	; 255
    31ca:	5f 4f       	sbci	r21, 0xFF	; 255
    31cc:	49 83       	std	Y+1, r20	; 0x01
    31ce:	5a 83       	std	Y+2, r21	; 0x02
    31d0:	f9 01       	movw	r30, r18
    31d2:	e8 0f       	add	r30, r24
    31d4:	f9 1f       	adc	r31, r25
    31d6:	2d e2       	ldi	r18, 0x2D	; 45
    31d8:	20 83       	st	Z, r18
    31da:	11 c0       	rjmp	.+34     	; 0x31fe <prepareFrame+0x520>
    31dc:	d8 01       	movw	r26, r16
    31de:	52 96       	adiw	r26, 0x12	; 18
    31e0:	2d 91       	ld	r18, X+
    31e2:	3c 91       	ld	r19, X
    31e4:	53 97       	sbiw	r26, 0x13	; 19
    31e6:	89 81       	ldd	r24, Y+1	; 0x01
    31e8:	9a 81       	ldd	r25, Y+2	; 0x02
    31ea:	ac 01       	movw	r20, r24
    31ec:	4f 5f       	subi	r20, 0xFF	; 255
    31ee:	5f 4f       	sbci	r21, 0xFF	; 255
    31f0:	49 83       	std	Y+1, r20	; 0x01
    31f2:	5a 83       	std	Y+2, r21	; 0x02
    31f4:	f9 01       	movw	r30, r18
    31f6:	e8 0f       	add	r30, r24
    31f8:	f9 1f       	adc	r31, r25
    31fa:	2b e2       	ldi	r18, 0x2B	; 43
    31fc:	20 83       	st	Z, r18
    31fe:	d8 01       	movw	r26, r16
    3200:	52 96       	adiw	r26, 0x12	; 18
    3202:	ed 91       	ld	r30, X+
    3204:	fc 91       	ld	r31, X
    3206:	53 97       	sbiw	r26, 0x13	; 19
    3208:	29 81       	ldd	r18, Y+1	; 0x01
    320a:	3a 81       	ldd	r19, Y+2	; 0x02
    320c:	c9 01       	movw	r24, r18
    320e:	01 96       	adiw	r24, 0x01	; 1
    3210:	89 83       	std	Y+1, r24	; 0x01
    3212:	9a 83       	std	Y+2, r25	; 0x02
    3214:	8b 81       	ldd	r24, Y+3	; 0x03
    3216:	9c 81       	ldd	r25, Y+4	; 0x04
    3218:	e2 0f       	add	r30, r18
    321a:	f3 1f       	adc	r31, r19
    321c:	60 e1       	ldi	r22, 0x10	; 16
    321e:	77 e2       	ldi	r23, 0x27	; 39
    3220:	0e 94 59 2d 	call	0x5ab2	; 0x5ab2 <__divmodhi4>
    3224:	cb 01       	movw	r24, r22
    3226:	2a e0       	ldi	r18, 0x0A	; 10
    3228:	30 e0       	ldi	r19, 0x00	; 0
    322a:	b9 01       	movw	r22, r18
    322c:	0e 94 59 2d 	call	0x5ab2	; 0x5ab2 <__divmodhi4>
    3230:	80 5d       	subi	r24, 0xD0	; 208
    3232:	80 83       	st	Z, r24
    3234:	d8 01       	movw	r26, r16
    3236:	52 96       	adiw	r26, 0x12	; 18
    3238:	ed 91       	ld	r30, X+
    323a:	fc 91       	ld	r31, X
    323c:	53 97       	sbiw	r26, 0x13	; 19
    323e:	49 81       	ldd	r20, Y+1	; 0x01
    3240:	5a 81       	ldd	r21, Y+2	; 0x02
    3242:	ca 01       	movw	r24, r20
    3244:	01 96       	adiw	r24, 0x01	; 1
    3246:	89 83       	std	Y+1, r24	; 0x01
    3248:	9a 83       	std	Y+2, r25	; 0x02
    324a:	8b 81       	ldd	r24, Y+3	; 0x03
    324c:	9c 81       	ldd	r25, Y+4	; 0x04
    324e:	e4 0f       	add	r30, r20
    3250:	f5 1f       	adc	r31, r21
    3252:	68 ee       	ldi	r22, 0xE8	; 232
    3254:	73 e0       	ldi	r23, 0x03	; 3
    3256:	0e 94 59 2d 	call	0x5ab2	; 0x5ab2 <__divmodhi4>
    325a:	cb 01       	movw	r24, r22
    325c:	b9 01       	movw	r22, r18
    325e:	0e 94 59 2d 	call	0x5ab2	; 0x5ab2 <__divmodhi4>
    3262:	80 5d       	subi	r24, 0xD0	; 208
    3264:	80 83       	st	Z, r24
    3266:	d8 01       	movw	r26, r16
    3268:	52 96       	adiw	r26, 0x12	; 18
    326a:	ed 91       	ld	r30, X+
    326c:	fc 91       	ld	r31, X
    326e:	53 97       	sbiw	r26, 0x13	; 19
    3270:	49 81       	ldd	r20, Y+1	; 0x01
    3272:	5a 81       	ldd	r21, Y+2	; 0x02
    3274:	ca 01       	movw	r24, r20
    3276:	01 96       	adiw	r24, 0x01	; 1
    3278:	89 83       	std	Y+1, r24	; 0x01
    327a:	9a 83       	std	Y+2, r25	; 0x02
    327c:	8b 81       	ldd	r24, Y+3	; 0x03
    327e:	9c 81       	ldd	r25, Y+4	; 0x04
    3280:	e4 0f       	add	r30, r20
    3282:	f5 1f       	adc	r31, r21
    3284:	64 e6       	ldi	r22, 0x64	; 100
    3286:	70 e0       	ldi	r23, 0x00	; 0
    3288:	0e 94 59 2d 	call	0x5ab2	; 0x5ab2 <__divmodhi4>
    328c:	cb 01       	movw	r24, r22
    328e:	b9 01       	movw	r22, r18
    3290:	0e 94 59 2d 	call	0x5ab2	; 0x5ab2 <__divmodhi4>
    3294:	80 5d       	subi	r24, 0xD0	; 208
    3296:	80 83       	st	Z, r24
    3298:	d8 01       	movw	r26, r16
    329a:	52 96       	adiw	r26, 0x12	; 18
    329c:	ed 91       	ld	r30, X+
    329e:	fc 91       	ld	r31, X
    32a0:	53 97       	sbiw	r26, 0x13	; 19
    32a2:	49 81       	ldd	r20, Y+1	; 0x01
    32a4:	5a 81       	ldd	r21, Y+2	; 0x02
    32a6:	ca 01       	movw	r24, r20
    32a8:	01 96       	adiw	r24, 0x01	; 1
    32aa:	89 83       	std	Y+1, r24	; 0x01
    32ac:	9a 83       	std	Y+2, r25	; 0x02
    32ae:	8b 81       	ldd	r24, Y+3	; 0x03
    32b0:	9c 81       	ldd	r25, Y+4	; 0x04
    32b2:	e4 0f       	add	r30, r20
    32b4:	f5 1f       	adc	r31, r21
    32b6:	b9 01       	movw	r22, r18
    32b8:	0e 94 59 2d 	call	0x5ab2	; 0x5ab2 <__divmodhi4>
    32bc:	cb 01       	movw	r24, r22
    32be:	b9 01       	movw	r22, r18
    32c0:	0e 94 59 2d 	call	0x5ab2	; 0x5ab2 <__divmodhi4>
    32c4:	80 5d       	subi	r24, 0xD0	; 208
    32c6:	80 83       	st	Z, r24
    32c8:	d8 01       	movw	r26, r16
    32ca:	52 96       	adiw	r26, 0x12	; 18
    32cc:	ed 91       	ld	r30, X+
    32ce:	fc 91       	ld	r31, X
    32d0:	53 97       	sbiw	r26, 0x13	; 19
    32d2:	49 81       	ldd	r20, Y+1	; 0x01
    32d4:	5a 81       	ldd	r21, Y+2	; 0x02
    32d6:	ca 01       	movw	r24, r20
    32d8:	01 96       	adiw	r24, 0x01	; 1
    32da:	89 83       	std	Y+1, r24	; 0x01
    32dc:	9a 83       	std	Y+2, r25	; 0x02
    32de:	8b 81       	ldd	r24, Y+3	; 0x03
    32e0:	9c 81       	ldd	r25, Y+4	; 0x04
    32e2:	e4 0f       	add	r30, r20
    32e4:	f5 1f       	adc	r31, r21
    32e6:	b9 01       	movw	r22, r18
    32e8:	0e 94 59 2d 	call	0x5ab2	; 0x5ab2 <__divmodhi4>
    32ec:	80 5d       	subi	r24, 0xD0	; 208
    32ee:	80 83       	st	Z, r24
    32f0:	f8 01       	movw	r30, r16
    32f2:	42 89       	ldd	r20, Z+18	; 0x12
    32f4:	53 89       	ldd	r21, Z+19	; 0x13
    32f6:	89 81       	ldd	r24, Y+1	; 0x01
    32f8:	9a 81       	ldd	r25, Y+2	; 0x02
    32fa:	bc 01       	movw	r22, r24
    32fc:	6f 5f       	subi	r22, 0xFF	; 255
    32fe:	7f 4f       	sbci	r23, 0xFF	; 255
    3300:	69 83       	std	Y+1, r22	; 0x01
    3302:	7a 83       	std	Y+2, r23	; 0x02
    3304:	fa 01       	movw	r30, r20
    3306:	e8 0f       	add	r30, r24
    3308:	f9 1f       	adc	r31, r25
    330a:	4e e2       	ldi	r20, 0x2E	; 46
    330c:	40 83       	st	Z, r20
    330e:	d8 01       	movw	r26, r16
    3310:	52 96       	adiw	r26, 0x12	; 18
    3312:	ed 91       	ld	r30, X+
    3314:	fc 91       	ld	r31, X
    3316:	53 97       	sbiw	r26, 0x13	; 19
    3318:	49 81       	ldd	r20, Y+1	; 0x01
    331a:	5a 81       	ldd	r21, Y+2	; 0x02
    331c:	ca 01       	movw	r24, r20
    331e:	01 96       	adiw	r24, 0x01	; 1
    3320:	89 83       	std	Y+1, r24	; 0x01
    3322:	9a 83       	std	Y+2, r25	; 0x02
    3324:	8d 81       	ldd	r24, Y+5	; 0x05
    3326:	9e 81       	ldd	r25, Y+6	; 0x06
    3328:	e4 0f       	add	r30, r20
    332a:	f5 1f       	adc	r31, r21
    332c:	b9 01       	movw	r22, r18
    332e:	0e 94 59 2d 	call	0x5ab2	; 0x5ab2 <__divmodhi4>
    3332:	cb 01       	movw	r24, r22
    3334:	b9 01       	movw	r22, r18
    3336:	0e 94 59 2d 	call	0x5ab2	; 0x5ab2 <__divmodhi4>
    333a:	80 5d       	subi	r24, 0xD0	; 208
    333c:	80 83       	st	Z, r24
    333e:	d8 01       	movw	r26, r16
    3340:	52 96       	adiw	r26, 0x12	; 18
    3342:	ed 91       	ld	r30, X+
    3344:	fc 91       	ld	r31, X
    3346:	53 97       	sbiw	r26, 0x13	; 19
    3348:	49 81       	ldd	r20, Y+1	; 0x01
    334a:	5a 81       	ldd	r21, Y+2	; 0x02
    334c:	ca 01       	movw	r24, r20
    334e:	01 96       	adiw	r24, 0x01	; 1
    3350:	89 83       	std	Y+1, r24	; 0x01
    3352:	9a 83       	std	Y+2, r25	; 0x02
    3354:	8d 81       	ldd	r24, Y+5	; 0x05
    3356:	9e 81       	ldd	r25, Y+6	; 0x06
    3358:	e4 0f       	add	r30, r20
    335a:	f5 1f       	adc	r31, r21
    335c:	b9 01       	movw	r22, r18
    335e:	0e 94 59 2d 	call	0x5ab2	; 0x5ab2 <__divmodhi4>
    3362:	80 5d       	subi	r24, 0xD0	; 208
    3364:	80 83       	st	Z, r24
    3366:	f8 01       	movw	r30, r16
    3368:	22 89       	ldd	r18, Z+18	; 0x12
    336a:	33 89       	ldd	r19, Z+19	; 0x13
    336c:	89 81       	ldd	r24, Y+1	; 0x01
    336e:	9a 81       	ldd	r25, Y+2	; 0x02
    3370:	ac 01       	movw	r20, r24
    3372:	4f 5f       	subi	r20, 0xFF	; 255
    3374:	5f 4f       	sbci	r21, 0xFF	; 255
    3376:	49 83       	std	Y+1, r20	; 0x01
    3378:	5a 83       	std	Y+2, r21	; 0x02
    337a:	f9 01       	movw	r30, r18
    337c:	e8 0f       	add	r30, r24
    337e:	f9 1f       	adc	r31, r25
    3380:	2c e2       	ldi	r18, 0x2C	; 44
    3382:	20 83       	st	Z, r18
    3384:	d8 01       	movw	r26, r16
    3386:	1e 96       	adiw	r26, 0x0e	; 14
    3388:	ed 91       	ld	r30, X+
    338a:	fc 91       	ld	r31, X
    338c:	1f 97       	sbiw	r26, 0x0f	; 15
    338e:	20 e0       	ldi	r18, 0x00	; 0
    3390:	30 e0       	ldi	r19, 0x00	; 0
    3392:	40 e2       	ldi	r20, 0x20	; 32
    3394:	51 e4       	ldi	r21, 0x41	; 65
    3396:	60 89       	ldd	r22, Z+16	; 0x10
    3398:	71 89       	ldd	r23, Z+17	; 0x11
    339a:	82 89       	ldd	r24, Z+18	; 0x12
    339c:	93 89       	ldd	r25, Z+19	; 0x13
    339e:	0e 94 34 2b 	call	0x5668	; 0x5668 <__mulsf3>
    33a2:	0e 94 0d 2a 	call	0x541a	; 0x541a <__fixsfsi>
    33a6:	6b 83       	std	Y+3, r22	; 0x03
    33a8:	7c 83       	std	Y+4, r23	; 0x04
    33aa:	8b 81       	ldd	r24, Y+3	; 0x03
    33ac:	9c 81       	ldd	r25, Y+4	; 0x04
    33ae:	99 23       	and	r25, r25
    33b0:	bc f4       	brge	.+46     	; 0x33e0 <prepareFrame+0x702>
    33b2:	8b 81       	ldd	r24, Y+3	; 0x03
    33b4:	9c 81       	ldd	r25, Y+4	; 0x04
    33b6:	91 95       	neg	r25
    33b8:	81 95       	neg	r24
    33ba:	91 09       	sbc	r25, r1
    33bc:	8b 83       	std	Y+3, r24	; 0x03
    33be:	9c 83       	std	Y+4, r25	; 0x04
    33c0:	f8 01       	movw	r30, r16
    33c2:	22 89       	ldd	r18, Z+18	; 0x12
    33c4:	33 89       	ldd	r19, Z+19	; 0x13
    33c6:	89 81       	ldd	r24, Y+1	; 0x01
    33c8:	9a 81       	ldd	r25, Y+2	; 0x02
    33ca:	ac 01       	movw	r20, r24
    33cc:	4f 5f       	subi	r20, 0xFF	; 255
    33ce:	5f 4f       	sbci	r21, 0xFF	; 255
    33d0:	49 83       	std	Y+1, r20	; 0x01
    33d2:	5a 83       	std	Y+2, r21	; 0x02
    33d4:	f9 01       	movw	r30, r18
    33d6:	e8 0f       	add	r30, r24
    33d8:	f9 1f       	adc	r31, r25
    33da:	2d e2       	ldi	r18, 0x2D	; 45
    33dc:	20 83       	st	Z, r18
    33de:	11 c0       	rjmp	.+34     	; 0x3402 <prepareFrame+0x724>
    33e0:	d8 01       	movw	r26, r16
    33e2:	52 96       	adiw	r26, 0x12	; 18
    33e4:	2d 91       	ld	r18, X+
    33e6:	3c 91       	ld	r19, X
    33e8:	53 97       	sbiw	r26, 0x13	; 19
    33ea:	89 81       	ldd	r24, Y+1	; 0x01
    33ec:	9a 81       	ldd	r25, Y+2	; 0x02
    33ee:	ac 01       	movw	r20, r24
    33f0:	4f 5f       	subi	r20, 0xFF	; 255
    33f2:	5f 4f       	sbci	r21, 0xFF	; 255
    33f4:	49 83       	std	Y+1, r20	; 0x01
    33f6:	5a 83       	std	Y+2, r21	; 0x02
    33f8:	f9 01       	movw	r30, r18
    33fa:	e8 0f       	add	r30, r24
    33fc:	f9 1f       	adc	r31, r25
    33fe:	2b e2       	ldi	r18, 0x2B	; 43
    3400:	20 83       	st	Z, r18
    3402:	d8 01       	movw	r26, r16
    3404:	52 96       	adiw	r26, 0x12	; 18
    3406:	ed 91       	ld	r30, X+
    3408:	fc 91       	ld	r31, X
    340a:	53 97       	sbiw	r26, 0x13	; 19
    340c:	29 81       	ldd	r18, Y+1	; 0x01
    340e:	3a 81       	ldd	r19, Y+2	; 0x02
    3410:	c9 01       	movw	r24, r18
    3412:	01 96       	adiw	r24, 0x01	; 1
    3414:	89 83       	std	Y+1, r24	; 0x01
    3416:	9a 83       	std	Y+2, r25	; 0x02
    3418:	8b 81       	ldd	r24, Y+3	; 0x03
    341a:	9c 81       	ldd	r25, Y+4	; 0x04
    341c:	e2 0f       	add	r30, r18
    341e:	f3 1f       	adc	r31, r19
    3420:	60 e1       	ldi	r22, 0x10	; 16
    3422:	77 e2       	ldi	r23, 0x27	; 39
    3424:	0e 94 59 2d 	call	0x5ab2	; 0x5ab2 <__divmodhi4>
    3428:	cb 01       	movw	r24, r22
    342a:	2a e0       	ldi	r18, 0x0A	; 10
    342c:	30 e0       	ldi	r19, 0x00	; 0
    342e:	b9 01       	movw	r22, r18
    3430:	0e 94 59 2d 	call	0x5ab2	; 0x5ab2 <__divmodhi4>
    3434:	80 5d       	subi	r24, 0xD0	; 208
    3436:	80 83       	st	Z, r24
    3438:	d8 01       	movw	r26, r16
    343a:	52 96       	adiw	r26, 0x12	; 18
    343c:	ed 91       	ld	r30, X+
    343e:	fc 91       	ld	r31, X
    3440:	53 97       	sbiw	r26, 0x13	; 19
    3442:	49 81       	ldd	r20, Y+1	; 0x01
    3444:	5a 81       	ldd	r21, Y+2	; 0x02
    3446:	ca 01       	movw	r24, r20
    3448:	01 96       	adiw	r24, 0x01	; 1
    344a:	89 83       	std	Y+1, r24	; 0x01
    344c:	9a 83       	std	Y+2, r25	; 0x02
    344e:	8b 81       	ldd	r24, Y+3	; 0x03
    3450:	9c 81       	ldd	r25, Y+4	; 0x04
    3452:	e4 0f       	add	r30, r20
    3454:	f5 1f       	adc	r31, r21
    3456:	68 ee       	ldi	r22, 0xE8	; 232
    3458:	73 e0       	ldi	r23, 0x03	; 3
    345a:	0e 94 59 2d 	call	0x5ab2	; 0x5ab2 <__divmodhi4>
    345e:	cb 01       	movw	r24, r22
    3460:	b9 01       	movw	r22, r18
    3462:	0e 94 59 2d 	call	0x5ab2	; 0x5ab2 <__divmodhi4>
    3466:	80 5d       	subi	r24, 0xD0	; 208
    3468:	80 83       	st	Z, r24
    346a:	d8 01       	movw	r26, r16
    346c:	52 96       	adiw	r26, 0x12	; 18
    346e:	ed 91       	ld	r30, X+
    3470:	fc 91       	ld	r31, X
    3472:	53 97       	sbiw	r26, 0x13	; 19
    3474:	49 81       	ldd	r20, Y+1	; 0x01
    3476:	5a 81       	ldd	r21, Y+2	; 0x02
    3478:	ca 01       	movw	r24, r20
    347a:	01 96       	adiw	r24, 0x01	; 1
    347c:	89 83       	std	Y+1, r24	; 0x01
    347e:	9a 83       	std	Y+2, r25	; 0x02
    3480:	8b 81       	ldd	r24, Y+3	; 0x03
    3482:	9c 81       	ldd	r25, Y+4	; 0x04
    3484:	e4 0f       	add	r30, r20
    3486:	f5 1f       	adc	r31, r21
    3488:	64 e6       	ldi	r22, 0x64	; 100
    348a:	70 e0       	ldi	r23, 0x00	; 0
    348c:	0e 94 59 2d 	call	0x5ab2	; 0x5ab2 <__divmodhi4>
    3490:	cb 01       	movw	r24, r22
    3492:	b9 01       	movw	r22, r18
    3494:	0e 94 59 2d 	call	0x5ab2	; 0x5ab2 <__divmodhi4>
    3498:	80 5d       	subi	r24, 0xD0	; 208
    349a:	80 83       	st	Z, r24
    349c:	d8 01       	movw	r26, r16
    349e:	52 96       	adiw	r26, 0x12	; 18
    34a0:	ed 91       	ld	r30, X+
    34a2:	fc 91       	ld	r31, X
    34a4:	53 97       	sbiw	r26, 0x13	; 19
    34a6:	49 81       	ldd	r20, Y+1	; 0x01
    34a8:	5a 81       	ldd	r21, Y+2	; 0x02
    34aa:	ca 01       	movw	r24, r20
    34ac:	01 96       	adiw	r24, 0x01	; 1
    34ae:	89 83       	std	Y+1, r24	; 0x01
    34b0:	9a 83       	std	Y+2, r25	; 0x02
    34b2:	8b 81       	ldd	r24, Y+3	; 0x03
    34b4:	9c 81       	ldd	r25, Y+4	; 0x04
    34b6:	e4 0f       	add	r30, r20
    34b8:	f5 1f       	adc	r31, r21
    34ba:	b9 01       	movw	r22, r18
    34bc:	0e 94 59 2d 	call	0x5ab2	; 0x5ab2 <__divmodhi4>
    34c0:	cb 01       	movw	r24, r22
    34c2:	b9 01       	movw	r22, r18
    34c4:	0e 94 59 2d 	call	0x5ab2	; 0x5ab2 <__divmodhi4>
    34c8:	80 5d       	subi	r24, 0xD0	; 208
    34ca:	80 83       	st	Z, r24
    34cc:	f8 01       	movw	r30, r16
    34ce:	42 89       	ldd	r20, Z+18	; 0x12
    34d0:	53 89       	ldd	r21, Z+19	; 0x13
    34d2:	89 81       	ldd	r24, Y+1	; 0x01
    34d4:	9a 81       	ldd	r25, Y+2	; 0x02
    34d6:	bc 01       	movw	r22, r24
    34d8:	6f 5f       	subi	r22, 0xFF	; 255
    34da:	7f 4f       	sbci	r23, 0xFF	; 255
    34dc:	69 83       	std	Y+1, r22	; 0x01
    34de:	7a 83       	std	Y+2, r23	; 0x02
    34e0:	fa 01       	movw	r30, r20
    34e2:	e8 0f       	add	r30, r24
    34e4:	f9 1f       	adc	r31, r25
    34e6:	4e e2       	ldi	r20, 0x2E	; 46
    34e8:	40 83       	st	Z, r20
    34ea:	d8 01       	movw	r26, r16
    34ec:	52 96       	adiw	r26, 0x12	; 18
    34ee:	ed 91       	ld	r30, X+
    34f0:	fc 91       	ld	r31, X
    34f2:	53 97       	sbiw	r26, 0x13	; 19
    34f4:	49 81       	ldd	r20, Y+1	; 0x01
    34f6:	5a 81       	ldd	r21, Y+2	; 0x02
    34f8:	ca 01       	movw	r24, r20
    34fa:	01 96       	adiw	r24, 0x01	; 1
    34fc:	89 83       	std	Y+1, r24	; 0x01
    34fe:	9a 83       	std	Y+2, r25	; 0x02
    3500:	8b 81       	ldd	r24, Y+3	; 0x03
    3502:	9c 81       	ldd	r25, Y+4	; 0x04
    3504:	e4 0f       	add	r30, r20
    3506:	f5 1f       	adc	r31, r21
    3508:	b9 01       	movw	r22, r18
    350a:	0e 94 59 2d 	call	0x5ab2	; 0x5ab2 <__divmodhi4>
    350e:	80 5d       	subi	r24, 0xD0	; 208
    3510:	80 83       	st	Z, r24
    3512:	f8 01       	movw	r30, r16
    3514:	22 89       	ldd	r18, Z+18	; 0x12
    3516:	33 89       	ldd	r19, Z+19	; 0x13
    3518:	89 81       	ldd	r24, Y+1	; 0x01
    351a:	9a 81       	ldd	r25, Y+2	; 0x02
    351c:	ac 01       	movw	r20, r24
    351e:	4f 5f       	subi	r20, 0xFF	; 255
    3520:	5f 4f       	sbci	r21, 0xFF	; 255
    3522:	49 83       	std	Y+1, r20	; 0x01
    3524:	5a 83       	std	Y+2, r21	; 0x02
    3526:	f9 01       	movw	r30, r18
    3528:	e8 0f       	add	r30, r24
    352a:	f9 1f       	adc	r31, r25
    352c:	2c e2       	ldi	r18, 0x2C	; 44
    352e:	20 83       	st	Z, r18
    3530:	d8 01       	movw	r26, r16
    3532:	1e 96       	adiw	r26, 0x0e	; 14
    3534:	ed 91       	ld	r30, X+
    3536:	fc 91       	ld	r31, X
    3538:	1f 97       	sbiw	r26, 0x0f	; 15
    353a:	20 e0       	ldi	r18, 0x00	; 0
    353c:	30 e0       	ldi	r19, 0x00	; 0
    353e:	4a e7       	ldi	r20, 0x7A	; 122
    3540:	54 e4       	ldi	r21, 0x44	; 68
    3542:	60 81       	ld	r22, Z
    3544:	71 81       	ldd	r23, Z+1	; 0x01
    3546:	82 81       	ldd	r24, Z+2	; 0x02
    3548:	93 81       	ldd	r25, Z+3	; 0x03
    354a:	0e 94 34 2b 	call	0x5668	; 0x5668 <__mulsf3>
    354e:	0e 94 0d 2a 	call	0x541a	; 0x541a <__fixsfsi>
    3552:	6b 83       	std	Y+3, r22	; 0x03
    3554:	7c 83       	std	Y+4, r23	; 0x04
    3556:	8b 81       	ldd	r24, Y+3	; 0x03
    3558:	9c 81       	ldd	r25, Y+4	; 0x04
    355a:	99 23       	and	r25, r25
    355c:	bc f4       	brge	.+46     	; 0x358c <prepareFrame+0x8ae>
    355e:	8b 81       	ldd	r24, Y+3	; 0x03
    3560:	9c 81       	ldd	r25, Y+4	; 0x04
    3562:	91 95       	neg	r25
    3564:	81 95       	neg	r24
    3566:	91 09       	sbc	r25, r1
    3568:	8b 83       	std	Y+3, r24	; 0x03
    356a:	9c 83       	std	Y+4, r25	; 0x04
    356c:	f8 01       	movw	r30, r16
    356e:	22 89       	ldd	r18, Z+18	; 0x12
    3570:	33 89       	ldd	r19, Z+19	; 0x13
    3572:	89 81       	ldd	r24, Y+1	; 0x01
    3574:	9a 81       	ldd	r25, Y+2	; 0x02
    3576:	ac 01       	movw	r20, r24
    3578:	4f 5f       	subi	r20, 0xFF	; 255
    357a:	5f 4f       	sbci	r21, 0xFF	; 255
    357c:	49 83       	std	Y+1, r20	; 0x01
    357e:	5a 83       	std	Y+2, r21	; 0x02
    3580:	f9 01       	movw	r30, r18
    3582:	e8 0f       	add	r30, r24
    3584:	f9 1f       	adc	r31, r25
    3586:	2d e2       	ldi	r18, 0x2D	; 45
    3588:	20 83       	st	Z, r18
    358a:	11 c0       	rjmp	.+34     	; 0x35ae <prepareFrame+0x8d0>
    358c:	d8 01       	movw	r26, r16
    358e:	52 96       	adiw	r26, 0x12	; 18
    3590:	2d 91       	ld	r18, X+
    3592:	3c 91       	ld	r19, X
    3594:	53 97       	sbiw	r26, 0x13	; 19
    3596:	89 81       	ldd	r24, Y+1	; 0x01
    3598:	9a 81       	ldd	r25, Y+2	; 0x02
    359a:	ac 01       	movw	r20, r24
    359c:	4f 5f       	subi	r20, 0xFF	; 255
    359e:	5f 4f       	sbci	r21, 0xFF	; 255
    35a0:	49 83       	std	Y+1, r20	; 0x01
    35a2:	5a 83       	std	Y+2, r21	; 0x02
    35a4:	f9 01       	movw	r30, r18
    35a6:	e8 0f       	add	r30, r24
    35a8:	f9 1f       	adc	r31, r25
    35aa:	2b e2       	ldi	r18, 0x2B	; 43
    35ac:	20 83       	st	Z, r18
    35ae:	d8 01       	movw	r26, r16
    35b0:	52 96       	adiw	r26, 0x12	; 18
    35b2:	ed 91       	ld	r30, X+
    35b4:	fc 91       	ld	r31, X
    35b6:	53 97       	sbiw	r26, 0x13	; 19
    35b8:	29 81       	ldd	r18, Y+1	; 0x01
    35ba:	3a 81       	ldd	r19, Y+2	; 0x02
    35bc:	c9 01       	movw	r24, r18
    35be:	01 96       	adiw	r24, 0x01	; 1
    35c0:	89 83       	std	Y+1, r24	; 0x01
    35c2:	9a 83       	std	Y+2, r25	; 0x02
    35c4:	8b 81       	ldd	r24, Y+3	; 0x03
    35c6:	9c 81       	ldd	r25, Y+4	; 0x04
    35c8:	e2 0f       	add	r30, r18
    35ca:	f3 1f       	adc	r31, r19
    35cc:	60 e1       	ldi	r22, 0x10	; 16
    35ce:	77 e2       	ldi	r23, 0x27	; 39
    35d0:	0e 94 59 2d 	call	0x5ab2	; 0x5ab2 <__divmodhi4>
    35d4:	cb 01       	movw	r24, r22
    35d6:	2a e0       	ldi	r18, 0x0A	; 10
    35d8:	30 e0       	ldi	r19, 0x00	; 0
    35da:	b9 01       	movw	r22, r18
    35dc:	0e 94 59 2d 	call	0x5ab2	; 0x5ab2 <__divmodhi4>
    35e0:	80 5d       	subi	r24, 0xD0	; 208
    35e2:	80 83       	st	Z, r24
    35e4:	d8 01       	movw	r26, r16
    35e6:	52 96       	adiw	r26, 0x12	; 18
    35e8:	ed 91       	ld	r30, X+
    35ea:	fc 91       	ld	r31, X
    35ec:	53 97       	sbiw	r26, 0x13	; 19
    35ee:	49 81       	ldd	r20, Y+1	; 0x01
    35f0:	5a 81       	ldd	r21, Y+2	; 0x02
    35f2:	ca 01       	movw	r24, r20
    35f4:	01 96       	adiw	r24, 0x01	; 1
    35f6:	89 83       	std	Y+1, r24	; 0x01
    35f8:	9a 83       	std	Y+2, r25	; 0x02
    35fa:	8b 81       	ldd	r24, Y+3	; 0x03
    35fc:	9c 81       	ldd	r25, Y+4	; 0x04
    35fe:	e4 0f       	add	r30, r20
    3600:	f5 1f       	adc	r31, r21
    3602:	68 ee       	ldi	r22, 0xE8	; 232
    3604:	73 e0       	ldi	r23, 0x03	; 3
    3606:	0e 94 59 2d 	call	0x5ab2	; 0x5ab2 <__divmodhi4>
    360a:	cb 01       	movw	r24, r22
    360c:	b9 01       	movw	r22, r18
    360e:	0e 94 59 2d 	call	0x5ab2	; 0x5ab2 <__divmodhi4>
    3612:	80 5d       	subi	r24, 0xD0	; 208
    3614:	80 83       	st	Z, r24
    3616:	f8 01       	movw	r30, r16
    3618:	42 89       	ldd	r20, Z+18	; 0x12
    361a:	53 89       	ldd	r21, Z+19	; 0x13
    361c:	89 81       	ldd	r24, Y+1	; 0x01
    361e:	9a 81       	ldd	r25, Y+2	; 0x02
    3620:	bc 01       	movw	r22, r24
    3622:	6f 5f       	subi	r22, 0xFF	; 255
    3624:	7f 4f       	sbci	r23, 0xFF	; 255
    3626:	69 83       	std	Y+1, r22	; 0x01
    3628:	7a 83       	std	Y+2, r23	; 0x02
    362a:	fa 01       	movw	r30, r20
    362c:	e8 0f       	add	r30, r24
    362e:	f9 1f       	adc	r31, r25
    3630:	4e e2       	ldi	r20, 0x2E	; 46
    3632:	40 83       	st	Z, r20
    3634:	d8 01       	movw	r26, r16
    3636:	52 96       	adiw	r26, 0x12	; 18
    3638:	ed 91       	ld	r30, X+
    363a:	fc 91       	ld	r31, X
    363c:	53 97       	sbiw	r26, 0x13	; 19
    363e:	49 81       	ldd	r20, Y+1	; 0x01
    3640:	5a 81       	ldd	r21, Y+2	; 0x02
    3642:	ca 01       	movw	r24, r20
    3644:	01 96       	adiw	r24, 0x01	; 1
    3646:	89 83       	std	Y+1, r24	; 0x01
    3648:	9a 83       	std	Y+2, r25	; 0x02
    364a:	8b 81       	ldd	r24, Y+3	; 0x03
    364c:	9c 81       	ldd	r25, Y+4	; 0x04
    364e:	e4 0f       	add	r30, r20
    3650:	f5 1f       	adc	r31, r21
    3652:	64 e6       	ldi	r22, 0x64	; 100
    3654:	70 e0       	ldi	r23, 0x00	; 0
    3656:	0e 94 59 2d 	call	0x5ab2	; 0x5ab2 <__divmodhi4>
    365a:	cb 01       	movw	r24, r22
    365c:	b9 01       	movw	r22, r18
    365e:	0e 94 59 2d 	call	0x5ab2	; 0x5ab2 <__divmodhi4>
    3662:	80 5d       	subi	r24, 0xD0	; 208
    3664:	80 83       	st	Z, r24
    3666:	d8 01       	movw	r26, r16
    3668:	52 96       	adiw	r26, 0x12	; 18
    366a:	ed 91       	ld	r30, X+
    366c:	fc 91       	ld	r31, X
    366e:	53 97       	sbiw	r26, 0x13	; 19
    3670:	49 81       	ldd	r20, Y+1	; 0x01
    3672:	5a 81       	ldd	r21, Y+2	; 0x02
    3674:	ca 01       	movw	r24, r20
    3676:	01 96       	adiw	r24, 0x01	; 1
    3678:	89 83       	std	Y+1, r24	; 0x01
    367a:	9a 83       	std	Y+2, r25	; 0x02
    367c:	8b 81       	ldd	r24, Y+3	; 0x03
    367e:	9c 81       	ldd	r25, Y+4	; 0x04
    3680:	e4 0f       	add	r30, r20
    3682:	f5 1f       	adc	r31, r21
    3684:	b9 01       	movw	r22, r18
    3686:	0e 94 59 2d 	call	0x5ab2	; 0x5ab2 <__divmodhi4>
    368a:	cb 01       	movw	r24, r22
    368c:	b9 01       	movw	r22, r18
    368e:	0e 94 59 2d 	call	0x5ab2	; 0x5ab2 <__divmodhi4>
    3692:	80 5d       	subi	r24, 0xD0	; 208
    3694:	80 83       	st	Z, r24
    3696:	d8 01       	movw	r26, r16
    3698:	52 96       	adiw	r26, 0x12	; 18
    369a:	ed 91       	ld	r30, X+
    369c:	fc 91       	ld	r31, X
    369e:	53 97       	sbiw	r26, 0x13	; 19
    36a0:	49 81       	ldd	r20, Y+1	; 0x01
    36a2:	5a 81       	ldd	r21, Y+2	; 0x02
    36a4:	ca 01       	movw	r24, r20
    36a6:	01 96       	adiw	r24, 0x01	; 1
    36a8:	89 83       	std	Y+1, r24	; 0x01
    36aa:	9a 83       	std	Y+2, r25	; 0x02
    36ac:	8b 81       	ldd	r24, Y+3	; 0x03
    36ae:	9c 81       	ldd	r25, Y+4	; 0x04
    36b0:	e4 0f       	add	r30, r20
    36b2:	f5 1f       	adc	r31, r21
    36b4:	b9 01       	movw	r22, r18
    36b6:	0e 94 59 2d 	call	0x5ab2	; 0x5ab2 <__divmodhi4>
    36ba:	80 5d       	subi	r24, 0xD0	; 208
    36bc:	80 83       	st	Z, r24
    36be:	f8 01       	movw	r30, r16
    36c0:	22 89       	ldd	r18, Z+18	; 0x12
    36c2:	33 89       	ldd	r19, Z+19	; 0x13
    36c4:	89 81       	ldd	r24, Y+1	; 0x01
    36c6:	9a 81       	ldd	r25, Y+2	; 0x02
    36c8:	ac 01       	movw	r20, r24
    36ca:	4f 5f       	subi	r20, 0xFF	; 255
    36cc:	5f 4f       	sbci	r21, 0xFF	; 255
    36ce:	49 83       	std	Y+1, r20	; 0x01
    36d0:	5a 83       	std	Y+2, r21	; 0x02
    36d2:	f9 01       	movw	r30, r18
    36d4:	e8 0f       	add	r30, r24
    36d6:	f9 1f       	adc	r31, r25
    36d8:	2c e2       	ldi	r18, 0x2C	; 44
    36da:	20 83       	st	Z, r18
    36dc:	d8 01       	movw	r26, r16
    36de:	1e 96       	adiw	r26, 0x0e	; 14
    36e0:	ed 91       	ld	r30, X+
    36e2:	fc 91       	ld	r31, X
    36e4:	1f 97       	sbiw	r26, 0x0f	; 15
    36e6:	20 e0       	ldi	r18, 0x00	; 0
    36e8:	30 e0       	ldi	r19, 0x00	; 0
    36ea:	40 e2       	ldi	r20, 0x20	; 32
    36ec:	51 e4       	ldi	r21, 0x41	; 65
    36ee:	60 8d       	ldd	r22, Z+24	; 0x18
    36f0:	71 8d       	ldd	r23, Z+25	; 0x19
    36f2:	82 8d       	ldd	r24, Z+26	; 0x1a
    36f4:	93 8d       	ldd	r25, Z+27	; 0x1b
    36f6:	0e 94 34 2b 	call	0x5668	; 0x5668 <__mulsf3>
    36fa:	0e 94 0d 2a 	call	0x541a	; 0x541a <__fixsfsi>
    36fe:	6b 83       	std	Y+3, r22	; 0x03
    3700:	7c 83       	std	Y+4, r23	; 0x04
    3702:	8b 81       	ldd	r24, Y+3	; 0x03
    3704:	9c 81       	ldd	r25, Y+4	; 0x04
    3706:	99 23       	and	r25, r25
    3708:	bc f4       	brge	.+46     	; 0x3738 <prepareFrame+0xa5a>
    370a:	8b 81       	ldd	r24, Y+3	; 0x03
    370c:	9c 81       	ldd	r25, Y+4	; 0x04
    370e:	91 95       	neg	r25
    3710:	81 95       	neg	r24
    3712:	91 09       	sbc	r25, r1
    3714:	8b 83       	std	Y+3, r24	; 0x03
    3716:	9c 83       	std	Y+4, r25	; 0x04
    3718:	f8 01       	movw	r30, r16
    371a:	22 89       	ldd	r18, Z+18	; 0x12
    371c:	33 89       	ldd	r19, Z+19	; 0x13
    371e:	89 81       	ldd	r24, Y+1	; 0x01
    3720:	9a 81       	ldd	r25, Y+2	; 0x02
    3722:	ac 01       	movw	r20, r24
    3724:	4f 5f       	subi	r20, 0xFF	; 255
    3726:	5f 4f       	sbci	r21, 0xFF	; 255
    3728:	49 83       	std	Y+1, r20	; 0x01
    372a:	5a 83       	std	Y+2, r21	; 0x02
    372c:	f9 01       	movw	r30, r18
    372e:	e8 0f       	add	r30, r24
    3730:	f9 1f       	adc	r31, r25
    3732:	2d e2       	ldi	r18, 0x2D	; 45
    3734:	20 83       	st	Z, r18
    3736:	11 c0       	rjmp	.+34     	; 0x375a <prepareFrame+0xa7c>
    3738:	d8 01       	movw	r26, r16
    373a:	52 96       	adiw	r26, 0x12	; 18
    373c:	2d 91       	ld	r18, X+
    373e:	3c 91       	ld	r19, X
    3740:	53 97       	sbiw	r26, 0x13	; 19
    3742:	89 81       	ldd	r24, Y+1	; 0x01
    3744:	9a 81       	ldd	r25, Y+2	; 0x02
    3746:	ac 01       	movw	r20, r24
    3748:	4f 5f       	subi	r20, 0xFF	; 255
    374a:	5f 4f       	sbci	r21, 0xFF	; 255
    374c:	49 83       	std	Y+1, r20	; 0x01
    374e:	5a 83       	std	Y+2, r21	; 0x02
    3750:	f9 01       	movw	r30, r18
    3752:	e8 0f       	add	r30, r24
    3754:	f9 1f       	adc	r31, r25
    3756:	2b e2       	ldi	r18, 0x2B	; 43
    3758:	20 83       	st	Z, r18
    375a:	f8 01       	movw	r30, r16
    375c:	42 89       	ldd	r20, Z+18	; 0x12
    375e:	53 89       	ldd	r21, Z+19	; 0x13
    3760:	29 81       	ldd	r18, Y+1	; 0x01
    3762:	3a 81       	ldd	r19, Y+2	; 0x02
    3764:	c9 01       	movw	r24, r18
    3766:	01 96       	adiw	r24, 0x01	; 1
    3768:	89 83       	std	Y+1, r24	; 0x01
    376a:	9a 83       	std	Y+2, r25	; 0x02
    376c:	8b 81       	ldd	r24, Y+3	; 0x03
    376e:	9c 81       	ldd	r25, Y+4	; 0x04
    3770:	fa 01       	movw	r30, r20
    3772:	e2 0f       	add	r30, r18
    3774:	f3 1f       	adc	r31, r19
    3776:	60 e1       	ldi	r22, 0x10	; 16
    3778:	77 e2       	ldi	r23, 0x27	; 39
    377a:	0e 94 59 2d 	call	0x5ab2	; 0x5ab2 <__divmodhi4>
    377e:	cb 01       	movw	r24, r22
    3780:	0f 2e       	mov	r0, r31
    3782:	fa e0       	ldi	r31, 0x0A	; 10
    3784:	2f 2e       	mov	r2, r31
    3786:	31 2c       	mov	r3, r1
    3788:	f0 2d       	mov	r31, r0
    378a:	b1 01       	movw	r22, r2
    378c:	0e 94 59 2d 	call	0x5ab2	; 0x5ab2 <__divmodhi4>
    3790:	80 5d       	subi	r24, 0xD0	; 208
    3792:	80 83       	st	Z, r24
    3794:	d8 01       	movw	r26, r16
    3796:	52 96       	adiw	r26, 0x12	; 18
    3798:	4d 91       	ld	r20, X+
    379a:	5c 91       	ld	r21, X
    379c:	53 97       	sbiw	r26, 0x13	; 19
    379e:	29 81       	ldd	r18, Y+1	; 0x01
    37a0:	3a 81       	ldd	r19, Y+2	; 0x02
    37a2:	c9 01       	movw	r24, r18
    37a4:	01 96       	adiw	r24, 0x01	; 1
    37a6:	89 83       	std	Y+1, r24	; 0x01
    37a8:	9a 83       	std	Y+2, r25	; 0x02
    37aa:	8b 81       	ldd	r24, Y+3	; 0x03
    37ac:	9c 81       	ldd	r25, Y+4	; 0x04
    37ae:	fa 01       	movw	r30, r20
    37b0:	e2 0f       	add	r30, r18
    37b2:	f3 1f       	adc	r31, r19
    37b4:	68 ee       	ldi	r22, 0xE8	; 232
    37b6:	73 e0       	ldi	r23, 0x03	; 3
    37b8:	0e 94 59 2d 	call	0x5ab2	; 0x5ab2 <__divmodhi4>
    37bc:	cb 01       	movw	r24, r22
    37be:	b1 01       	movw	r22, r2
    37c0:	0e 94 59 2d 	call	0x5ab2	; 0x5ab2 <__divmodhi4>
    37c4:	80 5d       	subi	r24, 0xD0	; 208
    37c6:	80 83       	st	Z, r24
    37c8:	f8 01       	movw	r30, r16
    37ca:	42 89       	ldd	r20, Z+18	; 0x12
    37cc:	53 89       	ldd	r21, Z+19	; 0x13
    37ce:	29 81       	ldd	r18, Y+1	; 0x01
    37d0:	3a 81       	ldd	r19, Y+2	; 0x02
    37d2:	c9 01       	movw	r24, r18
    37d4:	01 96       	adiw	r24, 0x01	; 1
    37d6:	89 83       	std	Y+1, r24	; 0x01
    37d8:	9a 83       	std	Y+2, r25	; 0x02
    37da:	8b 81       	ldd	r24, Y+3	; 0x03
    37dc:	9c 81       	ldd	r25, Y+4	; 0x04
    37de:	fa 01       	movw	r30, r20
    37e0:	e2 0f       	add	r30, r18
    37e2:	f3 1f       	adc	r31, r19
    37e4:	64 e6       	ldi	r22, 0x64	; 100
    37e6:	70 e0       	ldi	r23, 0x00	; 0
    37e8:	0e 94 59 2d 	call	0x5ab2	; 0x5ab2 <__divmodhi4>
    37ec:	cb 01       	movw	r24, r22
    37ee:	b1 01       	movw	r22, r2
    37f0:	0e 94 59 2d 	call	0x5ab2	; 0x5ab2 <__divmodhi4>
    37f4:	80 5d       	subi	r24, 0xD0	; 208
    37f6:	80 83       	st	Z, r24
    37f8:	d8 01       	movw	r26, r16
    37fa:	52 96       	adiw	r26, 0x12	; 18
    37fc:	4d 91       	ld	r20, X+
    37fe:	5c 91       	ld	r21, X
    3800:	53 97       	sbiw	r26, 0x13	; 19
    3802:	29 81       	ldd	r18, Y+1	; 0x01
    3804:	3a 81       	ldd	r19, Y+2	; 0x02
    3806:	c9 01       	movw	r24, r18
    3808:	01 96       	adiw	r24, 0x01	; 1
    380a:	89 83       	std	Y+1, r24	; 0x01
    380c:	9a 83       	std	Y+2, r25	; 0x02
    380e:	8b 81       	ldd	r24, Y+3	; 0x03
    3810:	9c 81       	ldd	r25, Y+4	; 0x04
    3812:	fa 01       	movw	r30, r20
    3814:	e2 0f       	add	r30, r18
    3816:	f3 1f       	adc	r31, r19
    3818:	b1 01       	movw	r22, r2
    381a:	0e 94 59 2d 	call	0x5ab2	; 0x5ab2 <__divmodhi4>
    381e:	cb 01       	movw	r24, r22
    3820:	b1 01       	movw	r22, r2
    3822:	0e 94 59 2d 	call	0x5ab2	; 0x5ab2 <__divmodhi4>
    3826:	80 5d       	subi	r24, 0xD0	; 208
    3828:	80 83       	st	Z, r24
    382a:	f8 01       	movw	r30, r16
    382c:	22 89       	ldd	r18, Z+18	; 0x12
    382e:	33 89       	ldd	r19, Z+19	; 0x13
    3830:	89 81       	ldd	r24, Y+1	; 0x01
    3832:	9a 81       	ldd	r25, Y+2	; 0x02
    3834:	ac 01       	movw	r20, r24
    3836:	4f 5f       	subi	r20, 0xFF	; 255
    3838:	5f 4f       	sbci	r21, 0xFF	; 255
    383a:	49 83       	std	Y+1, r20	; 0x01
    383c:	5a 83       	std	Y+2, r21	; 0x02
    383e:	f9 01       	movw	r30, r18
    3840:	e8 0f       	add	r30, r24
    3842:	f9 1f       	adc	r31, r25
    3844:	0f 2e       	mov	r0, r31
    3846:	fe e2       	ldi	r31, 0x2E	; 46
    3848:	8f 2e       	mov	r8, r31
    384a:	f0 2d       	mov	r31, r0
    384c:	80 82       	st	Z, r8
    384e:	d8 01       	movw	r26, r16
    3850:	52 96       	adiw	r26, 0x12	; 18
    3852:	4d 91       	ld	r20, X+
    3854:	5c 91       	ld	r21, X
    3856:	53 97       	sbiw	r26, 0x13	; 19
    3858:	29 81       	ldd	r18, Y+1	; 0x01
    385a:	3a 81       	ldd	r19, Y+2	; 0x02
    385c:	c9 01       	movw	r24, r18
    385e:	01 96       	adiw	r24, 0x01	; 1
    3860:	89 83       	std	Y+1, r24	; 0x01
    3862:	9a 83       	std	Y+2, r25	; 0x02
    3864:	8b 81       	ldd	r24, Y+3	; 0x03
    3866:	9c 81       	ldd	r25, Y+4	; 0x04
    3868:	fa 01       	movw	r30, r20
    386a:	e2 0f       	add	r30, r18
    386c:	f3 1f       	adc	r31, r19
    386e:	b1 01       	movw	r22, r2
    3870:	0e 94 59 2d 	call	0x5ab2	; 0x5ab2 <__divmodhi4>
    3874:	80 5d       	subi	r24, 0xD0	; 208
    3876:	80 83       	st	Z, r24
    3878:	f8 01       	movw	r30, r16
    387a:	22 89       	ldd	r18, Z+18	; 0x12
    387c:	33 89       	ldd	r19, Z+19	; 0x13
    387e:	89 81       	ldd	r24, Y+1	; 0x01
    3880:	9a 81       	ldd	r25, Y+2	; 0x02
    3882:	ac 01       	movw	r20, r24
    3884:	4f 5f       	subi	r20, 0xFF	; 255
    3886:	5f 4f       	sbci	r21, 0xFF	; 255
    3888:	49 83       	std	Y+1, r20	; 0x01
    388a:	5a 83       	std	Y+2, r21	; 0x02
    388c:	f9 01       	movw	r30, r18
    388e:	e8 0f       	add	r30, r24
    3890:	f9 1f       	adc	r31, r25
    3892:	0f 2e       	mov	r0, r31
    3894:	fc e2       	ldi	r31, 0x2C	; 44
    3896:	9f 2e       	mov	r9, r31
    3898:	f0 2d       	mov	r31, r0
    389a:	90 82       	st	Z, r9
    389c:	d8 01       	movw	r26, r16
    389e:	52 96       	adiw	r26, 0x12	; 18
    38a0:	4d 91       	ld	r20, X+
    38a2:	5c 91       	ld	r21, X
    38a4:	53 97       	sbiw	r26, 0x13	; 19
    38a6:	89 81       	ldd	r24, Y+1	; 0x01
    38a8:	9a 81       	ldd	r25, Y+2	; 0x02
    38aa:	9c 01       	movw	r18, r24
    38ac:	2f 5f       	subi	r18, 0xFF	; 255
    38ae:	3f 4f       	sbci	r19, 0xFF	; 255
    38b0:	29 83       	std	Y+1, r18	; 0x01
    38b2:	3a 83       	std	Y+2, r19	; 0x02
    38b4:	16 96       	adiw	r26, 0x06	; 6
    38b6:	ed 91       	ld	r30, X+
    38b8:	fc 91       	ld	r31, X
    38ba:	17 97       	sbiw	r26, 0x07	; 7
    38bc:	24 81       	ldd	r18, Z+4	; 0x04
    38be:	fa 01       	movw	r30, r20
    38c0:	e8 0f       	add	r30, r24
    38c2:	f9 1f       	adc	r31, r25
    38c4:	20 83       	st	Z, r18
    38c6:	52 96       	adiw	r26, 0x12	; 18
    38c8:	4d 91       	ld	r20, X+
    38ca:	5c 91       	ld	r21, X
    38cc:	53 97       	sbiw	r26, 0x13	; 19
    38ce:	89 81       	ldd	r24, Y+1	; 0x01
    38d0:	9a 81       	ldd	r25, Y+2	; 0x02
    38d2:	9c 01       	movw	r18, r24
    38d4:	2f 5f       	subi	r18, 0xFF	; 255
    38d6:	3f 4f       	sbci	r19, 0xFF	; 255
    38d8:	29 83       	std	Y+1, r18	; 0x01
    38da:	3a 83       	std	Y+2, r19	; 0x02
    38dc:	16 96       	adiw	r26, 0x06	; 6
    38de:	ed 91       	ld	r30, X+
    38e0:	fc 91       	ld	r31, X
    38e2:	17 97       	sbiw	r26, 0x07	; 7
    38e4:	25 81       	ldd	r18, Z+5	; 0x05
    38e6:	fa 01       	movw	r30, r20
    38e8:	e8 0f       	add	r30, r24
    38ea:	f9 1f       	adc	r31, r25
    38ec:	20 83       	st	Z, r18
    38ee:	52 96       	adiw	r26, 0x12	; 18
    38f0:	4d 91       	ld	r20, X+
    38f2:	5c 91       	ld	r21, X
    38f4:	53 97       	sbiw	r26, 0x13	; 19
    38f6:	89 81       	ldd	r24, Y+1	; 0x01
    38f8:	9a 81       	ldd	r25, Y+2	; 0x02
    38fa:	9c 01       	movw	r18, r24
    38fc:	2f 5f       	subi	r18, 0xFF	; 255
    38fe:	3f 4f       	sbci	r19, 0xFF	; 255
    3900:	29 83       	std	Y+1, r18	; 0x01
    3902:	3a 83       	std	Y+2, r19	; 0x02
    3904:	16 96       	adiw	r26, 0x06	; 6
    3906:	ed 91       	ld	r30, X+
    3908:	fc 91       	ld	r31, X
    390a:	17 97       	sbiw	r26, 0x07	; 7
    390c:	26 81       	ldd	r18, Z+6	; 0x06
    390e:	fa 01       	movw	r30, r20
    3910:	e8 0f       	add	r30, r24
    3912:	f9 1f       	adc	r31, r25
    3914:	20 83       	st	Z, r18
    3916:	52 96       	adiw	r26, 0x12	; 18
    3918:	4d 91       	ld	r20, X+
    391a:	5c 91       	ld	r21, X
    391c:	53 97       	sbiw	r26, 0x13	; 19
    391e:	89 81       	ldd	r24, Y+1	; 0x01
    3920:	9a 81       	ldd	r25, Y+2	; 0x02
    3922:	9c 01       	movw	r18, r24
    3924:	2f 5f       	subi	r18, 0xFF	; 255
    3926:	3f 4f       	sbci	r19, 0xFF	; 255
    3928:	29 83       	std	Y+1, r18	; 0x01
    392a:	3a 83       	std	Y+2, r19	; 0x02
    392c:	16 96       	adiw	r26, 0x06	; 6
    392e:	ed 91       	ld	r30, X+
    3930:	fc 91       	ld	r31, X
    3932:	17 97       	sbiw	r26, 0x07	; 7
    3934:	27 81       	ldd	r18, Z+7	; 0x07
    3936:	fa 01       	movw	r30, r20
    3938:	e8 0f       	add	r30, r24
    393a:	f9 1f       	adc	r31, r25
    393c:	20 83       	st	Z, r18
    393e:	52 96       	adiw	r26, 0x12	; 18
    3940:	4d 91       	ld	r20, X+
    3942:	5c 91       	ld	r21, X
    3944:	53 97       	sbiw	r26, 0x13	; 19
    3946:	89 81       	ldd	r24, Y+1	; 0x01
    3948:	9a 81       	ldd	r25, Y+2	; 0x02
    394a:	9c 01       	movw	r18, r24
    394c:	2f 5f       	subi	r18, 0xFF	; 255
    394e:	3f 4f       	sbci	r19, 0xFF	; 255
    3950:	29 83       	std	Y+1, r18	; 0x01
    3952:	3a 83       	std	Y+2, r19	; 0x02
    3954:	16 96       	adiw	r26, 0x06	; 6
    3956:	ed 91       	ld	r30, X+
    3958:	fc 91       	ld	r31, X
    395a:	17 97       	sbiw	r26, 0x07	; 7
    395c:	20 85       	ldd	r18, Z+8	; 0x08
    395e:	fa 01       	movw	r30, r20
    3960:	e8 0f       	add	r30, r24
    3962:	f9 1f       	adc	r31, r25
    3964:	20 83       	st	Z, r18
    3966:	52 96       	adiw	r26, 0x12	; 18
    3968:	4d 91       	ld	r20, X+
    396a:	5c 91       	ld	r21, X
    396c:	53 97       	sbiw	r26, 0x13	; 19
    396e:	89 81       	ldd	r24, Y+1	; 0x01
    3970:	9a 81       	ldd	r25, Y+2	; 0x02
    3972:	9c 01       	movw	r18, r24
    3974:	2f 5f       	subi	r18, 0xFF	; 255
    3976:	3f 4f       	sbci	r19, 0xFF	; 255
    3978:	29 83       	std	Y+1, r18	; 0x01
    397a:	3a 83       	std	Y+2, r19	; 0x02
    397c:	16 96       	adiw	r26, 0x06	; 6
    397e:	ed 91       	ld	r30, X+
    3980:	fc 91       	ld	r31, X
    3982:	17 97       	sbiw	r26, 0x07	; 7
    3984:	21 85       	ldd	r18, Z+9	; 0x09
    3986:	fa 01       	movw	r30, r20
    3988:	e8 0f       	add	r30, r24
    398a:	f9 1f       	adc	r31, r25
    398c:	20 83       	st	Z, r18
    398e:	52 96       	adiw	r26, 0x12	; 18
    3990:	4d 91       	ld	r20, X+
    3992:	5c 91       	ld	r21, X
    3994:	53 97       	sbiw	r26, 0x13	; 19
    3996:	89 81       	ldd	r24, Y+1	; 0x01
    3998:	9a 81       	ldd	r25, Y+2	; 0x02
    399a:	9c 01       	movw	r18, r24
    399c:	2f 5f       	subi	r18, 0xFF	; 255
    399e:	3f 4f       	sbci	r19, 0xFF	; 255
    39a0:	29 83       	std	Y+1, r18	; 0x01
    39a2:	3a 83       	std	Y+2, r19	; 0x02
    39a4:	16 96       	adiw	r26, 0x06	; 6
    39a6:	ed 91       	ld	r30, X+
    39a8:	fc 91       	ld	r31, X
    39aa:	17 97       	sbiw	r26, 0x07	; 7
    39ac:	22 85       	ldd	r18, Z+10	; 0x0a
    39ae:	fa 01       	movw	r30, r20
    39b0:	e8 0f       	add	r30, r24
    39b2:	f9 1f       	adc	r31, r25
    39b4:	20 83       	st	Z, r18
    39b6:	52 96       	adiw	r26, 0x12	; 18
    39b8:	4d 91       	ld	r20, X+
    39ba:	5c 91       	ld	r21, X
    39bc:	53 97       	sbiw	r26, 0x13	; 19
    39be:	89 81       	ldd	r24, Y+1	; 0x01
    39c0:	9a 81       	ldd	r25, Y+2	; 0x02
    39c2:	9c 01       	movw	r18, r24
    39c4:	2f 5f       	subi	r18, 0xFF	; 255
    39c6:	3f 4f       	sbci	r19, 0xFF	; 255
    39c8:	29 83       	std	Y+1, r18	; 0x01
    39ca:	3a 83       	std	Y+2, r19	; 0x02
    39cc:	16 96       	adiw	r26, 0x06	; 6
    39ce:	ed 91       	ld	r30, X+
    39d0:	fc 91       	ld	r31, X
    39d2:	17 97       	sbiw	r26, 0x07	; 7
    39d4:	23 85       	ldd	r18, Z+11	; 0x0b
    39d6:	fa 01       	movw	r30, r20
    39d8:	e8 0f       	add	r30, r24
    39da:	f9 1f       	adc	r31, r25
    39dc:	20 83       	st	Z, r18
    39de:	52 96       	adiw	r26, 0x12	; 18
    39e0:	4d 91       	ld	r20, X+
    39e2:	5c 91       	ld	r21, X
    39e4:	53 97       	sbiw	r26, 0x13	; 19
    39e6:	89 81       	ldd	r24, Y+1	; 0x01
    39e8:	9a 81       	ldd	r25, Y+2	; 0x02
    39ea:	9c 01       	movw	r18, r24
    39ec:	2f 5f       	subi	r18, 0xFF	; 255
    39ee:	3f 4f       	sbci	r19, 0xFF	; 255
    39f0:	29 83       	std	Y+1, r18	; 0x01
    39f2:	3a 83       	std	Y+2, r19	; 0x02
    39f4:	16 96       	adiw	r26, 0x06	; 6
    39f6:	ed 91       	ld	r30, X+
    39f8:	fc 91       	ld	r31, X
    39fa:	17 97       	sbiw	r26, 0x07	; 7
    39fc:	24 85       	ldd	r18, Z+12	; 0x0c
    39fe:	fa 01       	movw	r30, r20
    3a00:	e8 0f       	add	r30, r24
    3a02:	f9 1f       	adc	r31, r25
    3a04:	20 83       	st	Z, r18
    3a06:	52 96       	adiw	r26, 0x12	; 18
    3a08:	4d 91       	ld	r20, X+
    3a0a:	5c 91       	ld	r21, X
    3a0c:	53 97       	sbiw	r26, 0x13	; 19
    3a0e:	89 81       	ldd	r24, Y+1	; 0x01
    3a10:	9a 81       	ldd	r25, Y+2	; 0x02
    3a12:	9c 01       	movw	r18, r24
    3a14:	2f 5f       	subi	r18, 0xFF	; 255
    3a16:	3f 4f       	sbci	r19, 0xFF	; 255
    3a18:	29 83       	std	Y+1, r18	; 0x01
    3a1a:	3a 83       	std	Y+2, r19	; 0x02
    3a1c:	16 96       	adiw	r26, 0x06	; 6
    3a1e:	ed 91       	ld	r30, X+
    3a20:	fc 91       	ld	r31, X
    3a22:	17 97       	sbiw	r26, 0x07	; 7
    3a24:	25 85       	ldd	r18, Z+13	; 0x0d
    3a26:	fa 01       	movw	r30, r20
    3a28:	e8 0f       	add	r30, r24
    3a2a:	f9 1f       	adc	r31, r25
    3a2c:	20 83       	st	Z, r18
    3a2e:	f8 01       	movw	r30, r16
    3a30:	42 89       	ldd	r20, Z+18	; 0x12
    3a32:	53 89       	ldd	r21, Z+19	; 0x13
    3a34:	89 81       	ldd	r24, Y+1	; 0x01
    3a36:	9a 81       	ldd	r25, Y+2	; 0x02
    3a38:	9c 01       	movw	r18, r24
    3a3a:	2f 5f       	subi	r18, 0xFF	; 255
    3a3c:	3f 4f       	sbci	r19, 0xFF	; 255
    3a3e:	29 83       	std	Y+1, r18	; 0x01
    3a40:	3a 83       	std	Y+2, r19	; 0x02
    3a42:	06 80       	ldd	r0, Z+6	; 0x06
    3a44:	f7 81       	ldd	r31, Z+7	; 0x07
    3a46:	e0 2d       	mov	r30, r0
    3a48:	26 85       	ldd	r18, Z+14	; 0x0e
    3a4a:	fa 01       	movw	r30, r20
    3a4c:	e8 0f       	add	r30, r24
    3a4e:	f9 1f       	adc	r31, r25
    3a50:	20 83       	st	Z, r18
    3a52:	52 96       	adiw	r26, 0x12	; 18
    3a54:	2d 91       	ld	r18, X+
    3a56:	3c 91       	ld	r19, X
    3a58:	53 97       	sbiw	r26, 0x13	; 19
    3a5a:	89 81       	ldd	r24, Y+1	; 0x01
    3a5c:	9a 81       	ldd	r25, Y+2	; 0x02
    3a5e:	ac 01       	movw	r20, r24
    3a60:	4f 5f       	subi	r20, 0xFF	; 255
    3a62:	5f 4f       	sbci	r21, 0xFF	; 255
    3a64:	49 83       	std	Y+1, r20	; 0x01
    3a66:	5a 83       	std	Y+2, r21	; 0x02
    3a68:	f9 01       	movw	r30, r18
    3a6a:	e8 0f       	add	r30, r24
    3a6c:	f9 1f       	adc	r31, r25
    3a6e:	90 82       	st	Z, r9
    3a70:	52 96       	adiw	r26, 0x12	; 18
    3a72:	4d 91       	ld	r20, X+
    3a74:	5c 91       	ld	r21, X
    3a76:	53 97       	sbiw	r26, 0x13	; 19
    3a78:	89 81       	ldd	r24, Y+1	; 0x01
    3a7a:	9a 81       	ldd	r25, Y+2	; 0x02
    3a7c:	9c 01       	movw	r18, r24
    3a7e:	2f 5f       	subi	r18, 0xFF	; 255
    3a80:	3f 4f       	sbci	r19, 0xFF	; 255
    3a82:	29 83       	std	Y+1, r18	; 0x01
    3a84:	3a 83       	std	Y+2, r19	; 0x02
    3a86:	16 96       	adiw	r26, 0x06	; 6
    3a88:	ed 91       	ld	r30, X+
    3a8a:	fc 91       	ld	r31, X
    3a8c:	17 97       	sbiw	r26, 0x07	; 7
    3a8e:	22 89       	ldd	r18, Z+18	; 0x12
    3a90:	fa 01       	movw	r30, r20
    3a92:	e8 0f       	add	r30, r24
    3a94:	f9 1f       	adc	r31, r25
    3a96:	20 83       	st	Z, r18
    3a98:	52 96       	adiw	r26, 0x12	; 18
    3a9a:	4d 91       	ld	r20, X+
    3a9c:	5c 91       	ld	r21, X
    3a9e:	53 97       	sbiw	r26, 0x13	; 19
    3aa0:	89 81       	ldd	r24, Y+1	; 0x01
    3aa2:	9a 81       	ldd	r25, Y+2	; 0x02
    3aa4:	9c 01       	movw	r18, r24
    3aa6:	2f 5f       	subi	r18, 0xFF	; 255
    3aa8:	3f 4f       	sbci	r19, 0xFF	; 255
    3aaa:	29 83       	std	Y+1, r18	; 0x01
    3aac:	3a 83       	std	Y+2, r19	; 0x02
    3aae:	16 96       	adiw	r26, 0x06	; 6
    3ab0:	ed 91       	ld	r30, X+
    3ab2:	fc 91       	ld	r31, X
    3ab4:	17 97       	sbiw	r26, 0x07	; 7
    3ab6:	23 89       	ldd	r18, Z+19	; 0x13
    3ab8:	fa 01       	movw	r30, r20
    3aba:	e8 0f       	add	r30, r24
    3abc:	f9 1f       	adc	r31, r25
    3abe:	20 83       	st	Z, r18
    3ac0:	52 96       	adiw	r26, 0x12	; 18
    3ac2:	4d 91       	ld	r20, X+
    3ac4:	5c 91       	ld	r21, X
    3ac6:	53 97       	sbiw	r26, 0x13	; 19
    3ac8:	89 81       	ldd	r24, Y+1	; 0x01
    3aca:	9a 81       	ldd	r25, Y+2	; 0x02
    3acc:	9c 01       	movw	r18, r24
    3ace:	2f 5f       	subi	r18, 0xFF	; 255
    3ad0:	3f 4f       	sbci	r19, 0xFF	; 255
    3ad2:	29 83       	std	Y+1, r18	; 0x01
    3ad4:	3a 83       	std	Y+2, r19	; 0x02
    3ad6:	16 96       	adiw	r26, 0x06	; 6
    3ad8:	ed 91       	ld	r30, X+
    3ada:	fc 91       	ld	r31, X
    3adc:	17 97       	sbiw	r26, 0x07	; 7
    3ade:	24 89       	ldd	r18, Z+20	; 0x14
    3ae0:	fa 01       	movw	r30, r20
    3ae2:	e8 0f       	add	r30, r24
    3ae4:	f9 1f       	adc	r31, r25
    3ae6:	20 83       	st	Z, r18
    3ae8:	52 96       	adiw	r26, 0x12	; 18
    3aea:	4d 91       	ld	r20, X+
    3aec:	5c 91       	ld	r21, X
    3aee:	53 97       	sbiw	r26, 0x13	; 19
    3af0:	89 81       	ldd	r24, Y+1	; 0x01
    3af2:	9a 81       	ldd	r25, Y+2	; 0x02
    3af4:	9c 01       	movw	r18, r24
    3af6:	2f 5f       	subi	r18, 0xFF	; 255
    3af8:	3f 4f       	sbci	r19, 0xFF	; 255
    3afa:	29 83       	std	Y+1, r18	; 0x01
    3afc:	3a 83       	std	Y+2, r19	; 0x02
    3afe:	16 96       	adiw	r26, 0x06	; 6
    3b00:	ed 91       	ld	r30, X+
    3b02:	fc 91       	ld	r31, X
    3b04:	17 97       	sbiw	r26, 0x07	; 7
    3b06:	25 89       	ldd	r18, Z+21	; 0x15
    3b08:	fa 01       	movw	r30, r20
    3b0a:	e8 0f       	add	r30, r24
    3b0c:	f9 1f       	adc	r31, r25
    3b0e:	20 83       	st	Z, r18
    3b10:	52 96       	adiw	r26, 0x12	; 18
    3b12:	4d 91       	ld	r20, X+
    3b14:	5c 91       	ld	r21, X
    3b16:	53 97       	sbiw	r26, 0x13	; 19
    3b18:	89 81       	ldd	r24, Y+1	; 0x01
    3b1a:	9a 81       	ldd	r25, Y+2	; 0x02
    3b1c:	9c 01       	movw	r18, r24
    3b1e:	2f 5f       	subi	r18, 0xFF	; 255
    3b20:	3f 4f       	sbci	r19, 0xFF	; 255
    3b22:	29 83       	std	Y+1, r18	; 0x01
    3b24:	3a 83       	std	Y+2, r19	; 0x02
    3b26:	16 96       	adiw	r26, 0x06	; 6
    3b28:	ed 91       	ld	r30, X+
    3b2a:	fc 91       	ld	r31, X
    3b2c:	17 97       	sbiw	r26, 0x07	; 7
    3b2e:	26 89       	ldd	r18, Z+22	; 0x16
    3b30:	fa 01       	movw	r30, r20
    3b32:	e8 0f       	add	r30, r24
    3b34:	f9 1f       	adc	r31, r25
    3b36:	20 83       	st	Z, r18
    3b38:	52 96       	adiw	r26, 0x12	; 18
    3b3a:	4d 91       	ld	r20, X+
    3b3c:	5c 91       	ld	r21, X
    3b3e:	53 97       	sbiw	r26, 0x13	; 19
    3b40:	89 81       	ldd	r24, Y+1	; 0x01
    3b42:	9a 81       	ldd	r25, Y+2	; 0x02
    3b44:	9c 01       	movw	r18, r24
    3b46:	2f 5f       	subi	r18, 0xFF	; 255
    3b48:	3f 4f       	sbci	r19, 0xFF	; 255
    3b4a:	29 83       	std	Y+1, r18	; 0x01
    3b4c:	3a 83       	std	Y+2, r19	; 0x02
    3b4e:	16 96       	adiw	r26, 0x06	; 6
    3b50:	ed 91       	ld	r30, X+
    3b52:	fc 91       	ld	r31, X
    3b54:	17 97       	sbiw	r26, 0x07	; 7
    3b56:	27 89       	ldd	r18, Z+23	; 0x17
    3b58:	fa 01       	movw	r30, r20
    3b5a:	e8 0f       	add	r30, r24
    3b5c:	f9 1f       	adc	r31, r25
    3b5e:	20 83       	st	Z, r18
    3b60:	52 96       	adiw	r26, 0x12	; 18
    3b62:	4d 91       	ld	r20, X+
    3b64:	5c 91       	ld	r21, X
    3b66:	53 97       	sbiw	r26, 0x13	; 19
    3b68:	89 81       	ldd	r24, Y+1	; 0x01
    3b6a:	9a 81       	ldd	r25, Y+2	; 0x02
    3b6c:	9c 01       	movw	r18, r24
    3b6e:	2f 5f       	subi	r18, 0xFF	; 255
    3b70:	3f 4f       	sbci	r19, 0xFF	; 255
    3b72:	29 83       	std	Y+1, r18	; 0x01
    3b74:	3a 83       	std	Y+2, r19	; 0x02
    3b76:	16 96       	adiw	r26, 0x06	; 6
    3b78:	ed 91       	ld	r30, X+
    3b7a:	fc 91       	ld	r31, X
    3b7c:	17 97       	sbiw	r26, 0x07	; 7
    3b7e:	20 8d       	ldd	r18, Z+24	; 0x18
    3b80:	fa 01       	movw	r30, r20
    3b82:	e8 0f       	add	r30, r24
    3b84:	f9 1f       	adc	r31, r25
    3b86:	20 83       	st	Z, r18
    3b88:	52 96       	adiw	r26, 0x12	; 18
    3b8a:	4d 91       	ld	r20, X+
    3b8c:	5c 91       	ld	r21, X
    3b8e:	53 97       	sbiw	r26, 0x13	; 19
    3b90:	89 81       	ldd	r24, Y+1	; 0x01
    3b92:	9a 81       	ldd	r25, Y+2	; 0x02
    3b94:	9c 01       	movw	r18, r24
    3b96:	2f 5f       	subi	r18, 0xFF	; 255
    3b98:	3f 4f       	sbci	r19, 0xFF	; 255
    3b9a:	29 83       	std	Y+1, r18	; 0x01
    3b9c:	3a 83       	std	Y+2, r19	; 0x02
    3b9e:	16 96       	adiw	r26, 0x06	; 6
    3ba0:	ed 91       	ld	r30, X+
    3ba2:	fc 91       	ld	r31, X
    3ba4:	17 97       	sbiw	r26, 0x07	; 7
    3ba6:	21 8d       	ldd	r18, Z+25	; 0x19
    3ba8:	fa 01       	movw	r30, r20
    3baa:	e8 0f       	add	r30, r24
    3bac:	f9 1f       	adc	r31, r25
    3bae:	20 83       	st	Z, r18
    3bb0:	52 96       	adiw	r26, 0x12	; 18
    3bb2:	4d 91       	ld	r20, X+
    3bb4:	5c 91       	ld	r21, X
    3bb6:	53 97       	sbiw	r26, 0x13	; 19
    3bb8:	89 81       	ldd	r24, Y+1	; 0x01
    3bba:	9a 81       	ldd	r25, Y+2	; 0x02
    3bbc:	9c 01       	movw	r18, r24
    3bbe:	2f 5f       	subi	r18, 0xFF	; 255
    3bc0:	3f 4f       	sbci	r19, 0xFF	; 255
    3bc2:	29 83       	std	Y+1, r18	; 0x01
    3bc4:	3a 83       	std	Y+2, r19	; 0x02
    3bc6:	16 96       	adiw	r26, 0x06	; 6
    3bc8:	ed 91       	ld	r30, X+
    3bca:	fc 91       	ld	r31, X
    3bcc:	17 97       	sbiw	r26, 0x07	; 7
    3bce:	22 8d       	ldd	r18, Z+26	; 0x1a
    3bd0:	fa 01       	movw	r30, r20
    3bd2:	e8 0f       	add	r30, r24
    3bd4:	f9 1f       	adc	r31, r25
    3bd6:	20 83       	st	Z, r18
    3bd8:	52 96       	adiw	r26, 0x12	; 18
    3bda:	4d 91       	ld	r20, X+
    3bdc:	5c 91       	ld	r21, X
    3bde:	53 97       	sbiw	r26, 0x13	; 19
    3be0:	89 81       	ldd	r24, Y+1	; 0x01
    3be2:	9a 81       	ldd	r25, Y+2	; 0x02
    3be4:	9c 01       	movw	r18, r24
    3be6:	2f 5f       	subi	r18, 0xFF	; 255
    3be8:	3f 4f       	sbci	r19, 0xFF	; 255
    3bea:	29 83       	std	Y+1, r18	; 0x01
    3bec:	3a 83       	std	Y+2, r19	; 0x02
    3bee:	16 96       	adiw	r26, 0x06	; 6
    3bf0:	ed 91       	ld	r30, X+
    3bf2:	fc 91       	ld	r31, X
    3bf4:	17 97       	sbiw	r26, 0x07	; 7
    3bf6:	23 8d       	ldd	r18, Z+27	; 0x1b
    3bf8:	fa 01       	movw	r30, r20
    3bfa:	e8 0f       	add	r30, r24
    3bfc:	f9 1f       	adc	r31, r25
    3bfe:	20 83       	st	Z, r18
    3c00:	52 96       	adiw	r26, 0x12	; 18
    3c02:	4d 91       	ld	r20, X+
    3c04:	5c 91       	ld	r21, X
    3c06:	53 97       	sbiw	r26, 0x13	; 19
    3c08:	89 81       	ldd	r24, Y+1	; 0x01
    3c0a:	9a 81       	ldd	r25, Y+2	; 0x02
    3c0c:	9c 01       	movw	r18, r24
    3c0e:	2f 5f       	subi	r18, 0xFF	; 255
    3c10:	3f 4f       	sbci	r19, 0xFF	; 255
    3c12:	29 83       	std	Y+1, r18	; 0x01
    3c14:	3a 83       	std	Y+2, r19	; 0x02
    3c16:	16 96       	adiw	r26, 0x06	; 6
    3c18:	ed 91       	ld	r30, X+
    3c1a:	fc 91       	ld	r31, X
    3c1c:	17 97       	sbiw	r26, 0x07	; 7
    3c1e:	24 8d       	ldd	r18, Z+28	; 0x1c
    3c20:	fa 01       	movw	r30, r20
    3c22:	e8 0f       	add	r30, r24
    3c24:	f9 1f       	adc	r31, r25
    3c26:	20 83       	st	Z, r18
    3c28:	52 96       	adiw	r26, 0x12	; 18
    3c2a:	2d 91       	ld	r18, X+
    3c2c:	3c 91       	ld	r19, X
    3c2e:	53 97       	sbiw	r26, 0x13	; 19
    3c30:	89 81       	ldd	r24, Y+1	; 0x01
    3c32:	9a 81       	ldd	r25, Y+2	; 0x02
    3c34:	ac 01       	movw	r20, r24
    3c36:	4f 5f       	subi	r20, 0xFF	; 255
    3c38:	5f 4f       	sbci	r21, 0xFF	; 255
    3c3a:	49 83       	std	Y+1, r20	; 0x01
    3c3c:	5a 83       	std	Y+2, r21	; 0x02
    3c3e:	f9 01       	movw	r30, r18
    3c40:	e8 0f       	add	r30, r24
    3c42:	f9 1f       	adc	r31, r25
    3c44:	90 82       	st	Z, r9
    3c46:	52 96       	adiw	r26, 0x12	; 18
    3c48:	4d 91       	ld	r20, X+
    3c4a:	5c 91       	ld	r21, X
    3c4c:	53 97       	sbiw	r26, 0x13	; 19
    3c4e:	89 81       	ldd	r24, Y+1	; 0x01
    3c50:	9a 81       	ldd	r25, Y+2	; 0x02
    3c52:	9c 01       	movw	r18, r24
    3c54:	2f 5f       	subi	r18, 0xFF	; 255
    3c56:	3f 4f       	sbci	r19, 0xFF	; 255
    3c58:	29 83       	std	Y+1, r18	; 0x01
    3c5a:	3a 83       	std	Y+2, r19	; 0x02
    3c5c:	16 96       	adiw	r26, 0x06	; 6
    3c5e:	ed 91       	ld	r30, X+
    3c60:	fc 91       	ld	r31, X
    3c62:	17 97       	sbiw	r26, 0x07	; 7
    3c64:	20 a1       	ldd	r18, Z+32	; 0x20
    3c66:	fa 01       	movw	r30, r20
    3c68:	e8 0f       	add	r30, r24
    3c6a:	f9 1f       	adc	r31, r25
    3c6c:	20 83       	st	Z, r18
    3c6e:	52 96       	adiw	r26, 0x12	; 18
    3c70:	4d 91       	ld	r20, X+
    3c72:	5c 91       	ld	r21, X
    3c74:	53 97       	sbiw	r26, 0x13	; 19
    3c76:	89 81       	ldd	r24, Y+1	; 0x01
    3c78:	9a 81       	ldd	r25, Y+2	; 0x02
    3c7a:	9c 01       	movw	r18, r24
    3c7c:	2f 5f       	subi	r18, 0xFF	; 255
    3c7e:	3f 4f       	sbci	r19, 0xFF	; 255
    3c80:	29 83       	std	Y+1, r18	; 0x01
    3c82:	3a 83       	std	Y+2, r19	; 0x02
    3c84:	16 96       	adiw	r26, 0x06	; 6
    3c86:	ed 91       	ld	r30, X+
    3c88:	fc 91       	ld	r31, X
    3c8a:	17 97       	sbiw	r26, 0x07	; 7
    3c8c:	21 a1       	ldd	r18, Z+33	; 0x21
    3c8e:	fa 01       	movw	r30, r20
    3c90:	e8 0f       	add	r30, r24
    3c92:	f9 1f       	adc	r31, r25
    3c94:	20 83       	st	Z, r18
    3c96:	52 96       	adiw	r26, 0x12	; 18
    3c98:	4d 91       	ld	r20, X+
    3c9a:	5c 91       	ld	r21, X
    3c9c:	53 97       	sbiw	r26, 0x13	; 19
    3c9e:	89 81       	ldd	r24, Y+1	; 0x01
    3ca0:	9a 81       	ldd	r25, Y+2	; 0x02
    3ca2:	9c 01       	movw	r18, r24
    3ca4:	2f 5f       	subi	r18, 0xFF	; 255
    3ca6:	3f 4f       	sbci	r19, 0xFF	; 255
    3ca8:	29 83       	std	Y+1, r18	; 0x01
    3caa:	3a 83       	std	Y+2, r19	; 0x02
    3cac:	16 96       	adiw	r26, 0x06	; 6
    3cae:	ed 91       	ld	r30, X+
    3cb0:	fc 91       	ld	r31, X
    3cb2:	17 97       	sbiw	r26, 0x07	; 7
    3cb4:	22 a1       	ldd	r18, Z+34	; 0x22
    3cb6:	fa 01       	movw	r30, r20
    3cb8:	e8 0f       	add	r30, r24
    3cba:	f9 1f       	adc	r31, r25
    3cbc:	20 83       	st	Z, r18
    3cbe:	52 96       	adiw	r26, 0x12	; 18
    3cc0:	4d 91       	ld	r20, X+
    3cc2:	5c 91       	ld	r21, X
    3cc4:	53 97       	sbiw	r26, 0x13	; 19
    3cc6:	89 81       	ldd	r24, Y+1	; 0x01
    3cc8:	9a 81       	ldd	r25, Y+2	; 0x02
    3cca:	9c 01       	movw	r18, r24
    3ccc:	2f 5f       	subi	r18, 0xFF	; 255
    3cce:	3f 4f       	sbci	r19, 0xFF	; 255
    3cd0:	29 83       	std	Y+1, r18	; 0x01
    3cd2:	3a 83       	std	Y+2, r19	; 0x02
    3cd4:	16 96       	adiw	r26, 0x06	; 6
    3cd6:	ed 91       	ld	r30, X+
    3cd8:	fc 91       	ld	r31, X
    3cda:	17 97       	sbiw	r26, 0x07	; 7
    3cdc:	23 a1       	ldd	r18, Z+35	; 0x23
    3cde:	fa 01       	movw	r30, r20
    3ce0:	e8 0f       	add	r30, r24
    3ce2:	f9 1f       	adc	r31, r25
    3ce4:	20 83       	st	Z, r18
    3ce6:	52 96       	adiw	r26, 0x12	; 18
    3ce8:	4d 91       	ld	r20, X+
    3cea:	5c 91       	ld	r21, X
    3cec:	53 97       	sbiw	r26, 0x13	; 19
    3cee:	89 81       	ldd	r24, Y+1	; 0x01
    3cf0:	9a 81       	ldd	r25, Y+2	; 0x02
    3cf2:	9c 01       	movw	r18, r24
    3cf4:	2f 5f       	subi	r18, 0xFF	; 255
    3cf6:	3f 4f       	sbci	r19, 0xFF	; 255
    3cf8:	29 83       	std	Y+1, r18	; 0x01
    3cfa:	3a 83       	std	Y+2, r19	; 0x02
    3cfc:	16 96       	adiw	r26, 0x06	; 6
    3cfe:	ed 91       	ld	r30, X+
    3d00:	fc 91       	ld	r31, X
    3d02:	17 97       	sbiw	r26, 0x07	; 7
    3d04:	24 a1       	ldd	r18, Z+36	; 0x24
    3d06:	fa 01       	movw	r30, r20
    3d08:	e8 0f       	add	r30, r24
    3d0a:	f9 1f       	adc	r31, r25
    3d0c:	20 83       	st	Z, r18
    3d0e:	52 96       	adiw	r26, 0x12	; 18
    3d10:	4d 91       	ld	r20, X+
    3d12:	5c 91       	ld	r21, X
    3d14:	53 97       	sbiw	r26, 0x13	; 19
    3d16:	89 81       	ldd	r24, Y+1	; 0x01
    3d18:	9a 81       	ldd	r25, Y+2	; 0x02
    3d1a:	9c 01       	movw	r18, r24
    3d1c:	2f 5f       	subi	r18, 0xFF	; 255
    3d1e:	3f 4f       	sbci	r19, 0xFF	; 255
    3d20:	29 83       	std	Y+1, r18	; 0x01
    3d22:	3a 83       	std	Y+2, r19	; 0x02
    3d24:	16 96       	adiw	r26, 0x06	; 6
    3d26:	ed 91       	ld	r30, X+
    3d28:	fc 91       	ld	r31, X
    3d2a:	17 97       	sbiw	r26, 0x07	; 7
    3d2c:	25 a1       	ldd	r18, Z+37	; 0x25
    3d2e:	fa 01       	movw	r30, r20
    3d30:	e8 0f       	add	r30, r24
    3d32:	f9 1f       	adc	r31, r25
    3d34:	20 83       	st	Z, r18
    3d36:	52 96       	adiw	r26, 0x12	; 18
    3d38:	4d 91       	ld	r20, X+
    3d3a:	5c 91       	ld	r21, X
    3d3c:	53 97       	sbiw	r26, 0x13	; 19
    3d3e:	89 81       	ldd	r24, Y+1	; 0x01
    3d40:	9a 81       	ldd	r25, Y+2	; 0x02
    3d42:	9c 01       	movw	r18, r24
    3d44:	2f 5f       	subi	r18, 0xFF	; 255
    3d46:	3f 4f       	sbci	r19, 0xFF	; 255
    3d48:	29 83       	std	Y+1, r18	; 0x01
    3d4a:	3a 83       	std	Y+2, r19	; 0x02
    3d4c:	16 96       	adiw	r26, 0x06	; 6
    3d4e:	ed 91       	ld	r30, X+
    3d50:	fc 91       	ld	r31, X
    3d52:	17 97       	sbiw	r26, 0x07	; 7
    3d54:	26 a1       	ldd	r18, Z+38	; 0x26
    3d56:	fa 01       	movw	r30, r20
    3d58:	e8 0f       	add	r30, r24
    3d5a:	f9 1f       	adc	r31, r25
    3d5c:	20 83       	st	Z, r18
    3d5e:	52 96       	adiw	r26, 0x12	; 18
    3d60:	4d 91       	ld	r20, X+
    3d62:	5c 91       	ld	r21, X
    3d64:	53 97       	sbiw	r26, 0x13	; 19
    3d66:	89 81       	ldd	r24, Y+1	; 0x01
    3d68:	9a 81       	ldd	r25, Y+2	; 0x02
    3d6a:	9c 01       	movw	r18, r24
    3d6c:	2f 5f       	subi	r18, 0xFF	; 255
    3d6e:	3f 4f       	sbci	r19, 0xFF	; 255
    3d70:	29 83       	std	Y+1, r18	; 0x01
    3d72:	3a 83       	std	Y+2, r19	; 0x02
    3d74:	16 96       	adiw	r26, 0x06	; 6
    3d76:	ed 91       	ld	r30, X+
    3d78:	fc 91       	ld	r31, X
    3d7a:	17 97       	sbiw	r26, 0x07	; 7
    3d7c:	27 a1       	ldd	r18, Z+39	; 0x27
    3d7e:	fa 01       	movw	r30, r20
    3d80:	e8 0f       	add	r30, r24
    3d82:	f9 1f       	adc	r31, r25
    3d84:	20 83       	st	Z, r18
    3d86:	f8 01       	movw	r30, r16
    3d88:	42 89       	ldd	r20, Z+18	; 0x12
    3d8a:	53 89       	ldd	r21, Z+19	; 0x13
    3d8c:	89 81       	ldd	r24, Y+1	; 0x01
    3d8e:	9a 81       	ldd	r25, Y+2	; 0x02
    3d90:	9c 01       	movw	r18, r24
    3d92:	2f 5f       	subi	r18, 0xFF	; 255
    3d94:	3f 4f       	sbci	r19, 0xFF	; 255
    3d96:	29 83       	std	Y+1, r18	; 0x01
    3d98:	3a 83       	std	Y+2, r19	; 0x02
    3d9a:	06 80       	ldd	r0, Z+6	; 0x06
    3d9c:	f7 81       	ldd	r31, Z+7	; 0x07
    3d9e:	e0 2d       	mov	r30, r0
    3da0:	20 a5       	ldd	r18, Z+40	; 0x28
    3da2:	fa 01       	movw	r30, r20
    3da4:	e8 0f       	add	r30, r24
    3da6:	f9 1f       	adc	r31, r25
    3da8:	20 83       	st	Z, r18
    3daa:	52 96       	adiw	r26, 0x12	; 18
    3dac:	2d 91       	ld	r18, X+
    3dae:	3c 91       	ld	r19, X
    3db0:	53 97       	sbiw	r26, 0x13	; 19
    3db2:	89 81       	ldd	r24, Y+1	; 0x01
    3db4:	9a 81       	ldd	r25, Y+2	; 0x02
    3db6:	ac 01       	movw	r20, r24
    3db8:	4f 5f       	subi	r20, 0xFF	; 255
    3dba:	5f 4f       	sbci	r21, 0xFF	; 255
    3dbc:	49 83       	std	Y+1, r20	; 0x01
    3dbe:	5a 83       	std	Y+2, r21	; 0x02
    3dc0:	f9 01       	movw	r30, r18
    3dc2:	e8 0f       	add	r30, r24
    3dc4:	f9 1f       	adc	r31, r25
    3dc6:	90 82       	st	Z, r9
    3dc8:	52 96       	adiw	r26, 0x12	; 18
    3dca:	2d 91       	ld	r18, X+
    3dcc:	3c 91       	ld	r19, X
    3dce:	53 97       	sbiw	r26, 0x13	; 19
    3dd0:	89 81       	ldd	r24, Y+1	; 0x01
    3dd2:	9a 81       	ldd	r25, Y+2	; 0x02
    3dd4:	ac 01       	movw	r20, r24
    3dd6:	4f 5f       	subi	r20, 0xFF	; 255
    3dd8:	5f 4f       	sbci	r21, 0xFF	; 255
    3dda:	49 83       	std	Y+1, r20	; 0x01
    3ddc:	5a 83       	std	Y+2, r21	; 0x02
    3dde:	d9 01       	movw	r26, r18
    3de0:	a8 0f       	add	r26, r24
    3de2:	b9 1f       	adc	r27, r25
    3de4:	f8 01       	movw	r30, r16
    3de6:	86 81       	ldd	r24, Z+6	; 0x06
    3de8:	97 81       	ldd	r25, Z+7	; 0x07
    3dea:	fc 01       	movw	r30, r24
    3dec:	24 a5       	ldd	r18, Z+44	; 0x2c
    3dee:	20 5d       	subi	r18, 0xD0	; 208
    3df0:	2c 93       	st	X, r18
    3df2:	d8 01       	movw	r26, r16
    3df4:	52 96       	adiw	r26, 0x12	; 18
    3df6:	2d 91       	ld	r18, X+
    3df8:	3c 91       	ld	r19, X
    3dfa:	53 97       	sbiw	r26, 0x13	; 19
    3dfc:	89 81       	ldd	r24, Y+1	; 0x01
    3dfe:	9a 81       	ldd	r25, Y+2	; 0x02
    3e00:	ac 01       	movw	r20, r24
    3e02:	4f 5f       	subi	r20, 0xFF	; 255
    3e04:	5f 4f       	sbci	r21, 0xFF	; 255
    3e06:	49 83       	std	Y+1, r20	; 0x01
    3e08:	5a 83       	std	Y+2, r21	; 0x02
    3e0a:	f9 01       	movw	r30, r18
    3e0c:	e8 0f       	add	r30, r24
    3e0e:	f9 1f       	adc	r31, r25
    3e10:	90 82       	st	Z, r9
    3e12:	52 96       	adiw	r26, 0x12	; 18
    3e14:	2d 91       	ld	r18, X+
    3e16:	3c 91       	ld	r19, X
    3e18:	53 97       	sbiw	r26, 0x13	; 19
    3e1a:	89 81       	ldd	r24, Y+1	; 0x01
    3e1c:	9a 81       	ldd	r25, Y+2	; 0x02
    3e1e:	ac 01       	movw	r20, r24
    3e20:	4f 5f       	subi	r20, 0xFF	; 255
    3e22:	5f 4f       	sbci	r21, 0xFF	; 255
    3e24:	49 83       	std	Y+1, r20	; 0x01
    3e26:	5a 83       	std	Y+2, r21	; 0x02
    3e28:	f9 01       	movw	r30, r18
    3e2a:	e8 0f       	add	r30, r24
    3e2c:	f9 1f       	adc	r31, r25
    3e2e:	21 e3       	ldi	r18, 0x31	; 49
    3e30:	20 83       	st	Z, r18
    3e32:	52 96       	adiw	r26, 0x12	; 18
    3e34:	2d 91       	ld	r18, X+
    3e36:	3c 91       	ld	r19, X
    3e38:	53 97       	sbiw	r26, 0x13	; 19
    3e3a:	89 81       	ldd	r24, Y+1	; 0x01
    3e3c:	9a 81       	ldd	r25, Y+2	; 0x02
    3e3e:	ac 01       	movw	r20, r24
    3e40:	4f 5f       	subi	r20, 0xFF	; 255
    3e42:	5f 4f       	sbci	r21, 0xFF	; 255
    3e44:	49 83       	std	Y+1, r20	; 0x01
    3e46:	5a 83       	std	Y+2, r21	; 0x02
    3e48:	f9 01       	movw	r30, r18
    3e4a:	e8 0f       	add	r30, r24
    3e4c:	f9 1f       	adc	r31, r25
    3e4e:	23 e3       	ldi	r18, 0x33	; 51
    3e50:	20 83       	st	Z, r18
    3e52:	52 96       	adiw	r26, 0x12	; 18
    3e54:	2d 91       	ld	r18, X+
    3e56:	3c 91       	ld	r19, X
    3e58:	53 97       	sbiw	r26, 0x13	; 19
    3e5a:	89 81       	ldd	r24, Y+1	; 0x01
    3e5c:	9a 81       	ldd	r25, Y+2	; 0x02
    3e5e:	ac 01       	movw	r20, r24
    3e60:	4f 5f       	subi	r20, 0xFF	; 255
    3e62:	5f 4f       	sbci	r21, 0xFF	; 255
    3e64:	49 83       	std	Y+1, r20	; 0x01
    3e66:	5a 83       	std	Y+2, r21	; 0x02
    3e68:	f9 01       	movw	r30, r18
    3e6a:	e8 0f       	add	r30, r24
    3e6c:	f9 1f       	adc	r31, r25
    3e6e:	90 82       	st	Z, r9
    3e70:	52 96       	adiw	r26, 0x12	; 18
    3e72:	2d 91       	ld	r18, X+
    3e74:	3c 91       	ld	r19, X
    3e76:	53 97       	sbiw	r26, 0x13	; 19
    3e78:	89 81       	ldd	r24, Y+1	; 0x01
    3e7a:	9a 81       	ldd	r25, Y+2	; 0x02
    3e7c:	ac 01       	movw	r20, r24
    3e7e:	4f 5f       	subi	r20, 0xFF	; 255
    3e80:	5f 4f       	sbci	r21, 0xFF	; 255
    3e82:	49 83       	std	Y+1, r20	; 0x01
    3e84:	5a 83       	std	Y+2, r21	; 0x02
    3e86:	f9 01       	movw	r30, r18
    3e88:	e8 0f       	add	r30, r24
    3e8a:	f9 1f       	adc	r31, r25
    3e8c:	25 e2       	ldi	r18, 0x25	; 37
    3e8e:	20 83       	st	Z, r18
    3e90:	52 96       	adiw	r26, 0x12	; 18
    3e92:	2d 91       	ld	r18, X+
    3e94:	3c 91       	ld	r19, X
    3e96:	53 97       	sbiw	r26, 0x13	; 19
    3e98:	89 81       	ldd	r24, Y+1	; 0x01
    3e9a:	9a 81       	ldd	r25, Y+2	; 0x02
    3e9c:	ac 01       	movw	r20, r24
    3e9e:	4f 5f       	subi	r20, 0xFF	; 255
    3ea0:	5f 4f       	sbci	r21, 0xFF	; 255
    3ea2:	49 83       	std	Y+1, r20	; 0x01
    3ea4:	5a 83       	std	Y+2, r21	; 0x02
    3ea6:	f9 01       	movw	r30, r18
    3ea8:	e8 0f       	add	r30, r24
    3eaa:	f9 1f       	adc	r31, r25
    3eac:	23 e2       	ldi	r18, 0x23	; 35
    3eae:	20 83       	st	Z, r18
    3eb0:	52 96       	adiw	r26, 0x12	; 18
    3eb2:	2d 91       	ld	r18, X+
    3eb4:	3c 91       	ld	r19, X
    3eb6:	53 97       	sbiw	r26, 0x13	; 19
    3eb8:	89 81       	ldd	r24, Y+1	; 0x01
    3eba:	9a 81       	ldd	r25, Y+2	; 0x02
    3ebc:	ac 01       	movw	r20, r24
    3ebe:	4f 5f       	subi	r20, 0xFF	; 255
    3ec0:	5f 4f       	sbci	r21, 0xFF	; 255
    3ec2:	49 83       	std	Y+1, r20	; 0x01
    3ec4:	5a 83       	std	Y+2, r21	; 0x02
    3ec6:	f9 01       	movw	r30, r18
    3ec8:	e8 0f       	add	r30, r24
    3eca:	f9 1f       	adc	r31, r25
    3ecc:	90 82       	st	Z, r9
    3ece:	56 96       	adiw	r26, 0x16	; 22
    3ed0:	ed 91       	ld	r30, X+
    3ed2:	fc 91       	ld	r31, X
    3ed4:	57 97       	sbiw	r26, 0x17	; 23
    3ed6:	80 81       	ld	r24, Z
    3ed8:	91 81       	ldd	r25, Z+1	; 0x01
    3eda:	a2 81       	ldd	r26, Z+2	; 0x02
    3edc:	b3 81       	ldd	r27, Z+3	; 0x03
    3ede:	8f 83       	std	Y+7, r24	; 0x07
    3ee0:	98 87       	std	Y+8, r25	; 0x08
    3ee2:	a9 87       	std	Y+9, r26	; 0x09
    3ee4:	ba 87       	std	Y+10, r27	; 0x0a
    3ee6:	f8 01       	movw	r30, r16
    3ee8:	a2 88       	ldd	r10, Z+18	; 0x12
    3eea:	b3 88       	ldd	r11, Z+19	; 0x13
    3eec:	49 81       	ldd	r20, Y+1	; 0x01
    3eee:	5a 81       	ldd	r21, Y+2	; 0x02
    3ef0:	9a 01       	movw	r18, r20
    3ef2:	2f 5f       	subi	r18, 0xFF	; 255
    3ef4:	3f 4f       	sbci	r19, 0xFF	; 255
    3ef6:	29 83       	std	Y+1, r18	; 0x01
    3ef8:	3a 83       	std	Y+2, r19	; 0x02
    3efa:	6f 81       	ldd	r22, Y+7	; 0x07
    3efc:	78 85       	ldd	r23, Y+8	; 0x08
    3efe:	89 85       	ldd	r24, Y+9	; 0x09
    3f00:	9a 85       	ldd	r25, Y+10	; 0x0a
    3f02:	a4 0e       	add	r10, r20
    3f04:	b5 1e       	adc	r11, r21
    3f06:	20 e4       	ldi	r18, 0x40	; 64
    3f08:	32 e4       	ldi	r19, 0x42	; 66
    3f0a:	4f e0       	ldi	r20, 0x0F	; 15
    3f0c:	50 e0       	ldi	r21, 0x00	; 0
    3f0e:	0e 94 6c 2d 	call	0x5ad8	; 0x5ad8 <__udivmodsi4>
    3f12:	0f 2e       	mov	r0, r31
    3f14:	fa e0       	ldi	r31, 0x0A	; 10
    3f16:	cf 2e       	mov	r12, r31
    3f18:	d1 2c       	mov	r13, r1
    3f1a:	e1 2c       	mov	r14, r1
    3f1c:	f1 2c       	mov	r15, r1
    3f1e:	f0 2d       	mov	r31, r0
    3f20:	ca 01       	movw	r24, r20
    3f22:	b9 01       	movw	r22, r18
    3f24:	a7 01       	movw	r20, r14
    3f26:	96 01       	movw	r18, r12
    3f28:	0e 94 6c 2d 	call	0x5ad8	; 0x5ad8 <__udivmodsi4>
    3f2c:	60 5d       	subi	r22, 0xD0	; 208
    3f2e:	d5 01       	movw	r26, r10
    3f30:	6c 93       	st	X, r22
    3f32:	f8 01       	movw	r30, r16
    3f34:	a2 88       	ldd	r10, Z+18	; 0x12
    3f36:	b3 88       	ldd	r11, Z+19	; 0x13
    3f38:	49 81       	ldd	r20, Y+1	; 0x01
    3f3a:	5a 81       	ldd	r21, Y+2	; 0x02
    3f3c:	9a 01       	movw	r18, r20
    3f3e:	2f 5f       	subi	r18, 0xFF	; 255
    3f40:	3f 4f       	sbci	r19, 0xFF	; 255
    3f42:	29 83       	std	Y+1, r18	; 0x01
    3f44:	3a 83       	std	Y+2, r19	; 0x02
    3f46:	6f 81       	ldd	r22, Y+7	; 0x07
    3f48:	78 85       	ldd	r23, Y+8	; 0x08
    3f4a:	89 85       	ldd	r24, Y+9	; 0x09
    3f4c:	9a 85       	ldd	r25, Y+10	; 0x0a
    3f4e:	a4 0e       	add	r10, r20
    3f50:	b5 1e       	adc	r11, r21
    3f52:	20 ea       	ldi	r18, 0xA0	; 160
    3f54:	36 e8       	ldi	r19, 0x86	; 134
    3f56:	41 e0       	ldi	r20, 0x01	; 1
    3f58:	50 e0       	ldi	r21, 0x00	; 0
    3f5a:	0e 94 6c 2d 	call	0x5ad8	; 0x5ad8 <__udivmodsi4>
    3f5e:	ca 01       	movw	r24, r20
    3f60:	b9 01       	movw	r22, r18
    3f62:	a7 01       	movw	r20, r14
    3f64:	96 01       	movw	r18, r12
    3f66:	0e 94 6c 2d 	call	0x5ad8	; 0x5ad8 <__udivmodsi4>
    3f6a:	60 5d       	subi	r22, 0xD0	; 208
    3f6c:	d5 01       	movw	r26, r10
    3f6e:	6c 93       	st	X, r22
    3f70:	f8 01       	movw	r30, r16
    3f72:	a2 88       	ldd	r10, Z+18	; 0x12
    3f74:	b3 88       	ldd	r11, Z+19	; 0x13
    3f76:	49 81       	ldd	r20, Y+1	; 0x01
    3f78:	5a 81       	ldd	r21, Y+2	; 0x02
    3f7a:	9a 01       	movw	r18, r20
    3f7c:	2f 5f       	subi	r18, 0xFF	; 255
    3f7e:	3f 4f       	sbci	r19, 0xFF	; 255
    3f80:	29 83       	std	Y+1, r18	; 0x01
    3f82:	3a 83       	std	Y+2, r19	; 0x02
    3f84:	6f 81       	ldd	r22, Y+7	; 0x07
    3f86:	78 85       	ldd	r23, Y+8	; 0x08
    3f88:	89 85       	ldd	r24, Y+9	; 0x09
    3f8a:	9a 85       	ldd	r25, Y+10	; 0x0a
    3f8c:	a4 0e       	add	r10, r20
    3f8e:	b5 1e       	adc	r11, r21
    3f90:	20 e1       	ldi	r18, 0x10	; 16
    3f92:	37 e2       	ldi	r19, 0x27	; 39
    3f94:	40 e0       	ldi	r20, 0x00	; 0
    3f96:	50 e0       	ldi	r21, 0x00	; 0
    3f98:	0e 94 6c 2d 	call	0x5ad8	; 0x5ad8 <__udivmodsi4>
    3f9c:	ca 01       	movw	r24, r20
    3f9e:	b9 01       	movw	r22, r18
    3fa0:	a7 01       	movw	r20, r14
    3fa2:	96 01       	movw	r18, r12
    3fa4:	0e 94 6c 2d 	call	0x5ad8	; 0x5ad8 <__udivmodsi4>
    3fa8:	60 5d       	subi	r22, 0xD0	; 208
    3faa:	d5 01       	movw	r26, r10
    3fac:	6c 93       	st	X, r22
    3fae:	f8 01       	movw	r30, r16
    3fb0:	a2 88       	ldd	r10, Z+18	; 0x12
    3fb2:	b3 88       	ldd	r11, Z+19	; 0x13
    3fb4:	49 81       	ldd	r20, Y+1	; 0x01
    3fb6:	5a 81       	ldd	r21, Y+2	; 0x02
    3fb8:	9a 01       	movw	r18, r20
    3fba:	2f 5f       	subi	r18, 0xFF	; 255
    3fbc:	3f 4f       	sbci	r19, 0xFF	; 255
    3fbe:	29 83       	std	Y+1, r18	; 0x01
    3fc0:	3a 83       	std	Y+2, r19	; 0x02
    3fc2:	6f 81       	ldd	r22, Y+7	; 0x07
    3fc4:	78 85       	ldd	r23, Y+8	; 0x08
    3fc6:	89 85       	ldd	r24, Y+9	; 0x09
    3fc8:	9a 85       	ldd	r25, Y+10	; 0x0a
    3fca:	a4 0e       	add	r10, r20
    3fcc:	b5 1e       	adc	r11, r21
    3fce:	28 ee       	ldi	r18, 0xE8	; 232
    3fd0:	33 e0       	ldi	r19, 0x03	; 3
    3fd2:	40 e0       	ldi	r20, 0x00	; 0
    3fd4:	50 e0       	ldi	r21, 0x00	; 0
    3fd6:	0e 94 6c 2d 	call	0x5ad8	; 0x5ad8 <__udivmodsi4>
    3fda:	ca 01       	movw	r24, r20
    3fdc:	b9 01       	movw	r22, r18
    3fde:	a7 01       	movw	r20, r14
    3fe0:	96 01       	movw	r18, r12
    3fe2:	0e 94 6c 2d 	call	0x5ad8	; 0x5ad8 <__udivmodsi4>
    3fe6:	60 5d       	subi	r22, 0xD0	; 208
    3fe8:	d5 01       	movw	r26, r10
    3fea:	6c 93       	st	X, r22
    3fec:	f8 01       	movw	r30, r16
    3fee:	a2 88       	ldd	r10, Z+18	; 0x12
    3ff0:	b3 88       	ldd	r11, Z+19	; 0x13
    3ff2:	49 81       	ldd	r20, Y+1	; 0x01
    3ff4:	5a 81       	ldd	r21, Y+2	; 0x02
    3ff6:	9a 01       	movw	r18, r20
    3ff8:	2f 5f       	subi	r18, 0xFF	; 255
    3ffa:	3f 4f       	sbci	r19, 0xFF	; 255
    3ffc:	29 83       	std	Y+1, r18	; 0x01
    3ffe:	3a 83       	std	Y+2, r19	; 0x02
    4000:	6f 81       	ldd	r22, Y+7	; 0x07
    4002:	78 85       	ldd	r23, Y+8	; 0x08
    4004:	89 85       	ldd	r24, Y+9	; 0x09
    4006:	9a 85       	ldd	r25, Y+10	; 0x0a
    4008:	a4 0e       	add	r10, r20
    400a:	b5 1e       	adc	r11, r21
    400c:	0f 2e       	mov	r0, r31
    400e:	f4 e6       	ldi	r31, 0x64	; 100
    4010:	4f 2e       	mov	r4, r31
    4012:	51 2c       	mov	r5, r1
    4014:	61 2c       	mov	r6, r1
    4016:	71 2c       	mov	r7, r1
    4018:	f0 2d       	mov	r31, r0
    401a:	a3 01       	movw	r20, r6
    401c:	92 01       	movw	r18, r4
    401e:	0e 94 6c 2d 	call	0x5ad8	; 0x5ad8 <__udivmodsi4>
    4022:	ca 01       	movw	r24, r20
    4024:	b9 01       	movw	r22, r18
    4026:	a7 01       	movw	r20, r14
    4028:	96 01       	movw	r18, r12
    402a:	0e 94 6c 2d 	call	0x5ad8	; 0x5ad8 <__udivmodsi4>
    402e:	60 5d       	subi	r22, 0xD0	; 208
    4030:	d5 01       	movw	r26, r10
    4032:	6c 93       	st	X, r22
    4034:	f8 01       	movw	r30, r16
    4036:	a2 88       	ldd	r10, Z+18	; 0x12
    4038:	b3 88       	ldd	r11, Z+19	; 0x13
    403a:	49 81       	ldd	r20, Y+1	; 0x01
    403c:	5a 81       	ldd	r21, Y+2	; 0x02
    403e:	9a 01       	movw	r18, r20
    4040:	2f 5f       	subi	r18, 0xFF	; 255
    4042:	3f 4f       	sbci	r19, 0xFF	; 255
    4044:	29 83       	std	Y+1, r18	; 0x01
    4046:	3a 83       	std	Y+2, r19	; 0x02
    4048:	6f 81       	ldd	r22, Y+7	; 0x07
    404a:	78 85       	ldd	r23, Y+8	; 0x08
    404c:	89 85       	ldd	r24, Y+9	; 0x09
    404e:	9a 85       	ldd	r25, Y+10	; 0x0a
    4050:	a4 0e       	add	r10, r20
    4052:	b5 1e       	adc	r11, r21
    4054:	a7 01       	movw	r20, r14
    4056:	96 01       	movw	r18, r12
    4058:	0e 94 6c 2d 	call	0x5ad8	; 0x5ad8 <__udivmodsi4>
    405c:	ca 01       	movw	r24, r20
    405e:	b9 01       	movw	r22, r18
    4060:	a7 01       	movw	r20, r14
    4062:	96 01       	movw	r18, r12
    4064:	0e 94 6c 2d 	call	0x5ad8	; 0x5ad8 <__udivmodsi4>
    4068:	60 5d       	subi	r22, 0xD0	; 208
    406a:	d5 01       	movw	r26, r10
    406c:	6c 93       	st	X, r22
    406e:	f8 01       	movw	r30, r16
    4070:	a2 88       	ldd	r10, Z+18	; 0x12
    4072:	b3 88       	ldd	r11, Z+19	; 0x13
    4074:	49 81       	ldd	r20, Y+1	; 0x01
    4076:	5a 81       	ldd	r21, Y+2	; 0x02
    4078:	9a 01       	movw	r18, r20
    407a:	2f 5f       	subi	r18, 0xFF	; 255
    407c:	3f 4f       	sbci	r19, 0xFF	; 255
    407e:	29 83       	std	Y+1, r18	; 0x01
    4080:	3a 83       	std	Y+2, r19	; 0x02
    4082:	6f 81       	ldd	r22, Y+7	; 0x07
    4084:	78 85       	ldd	r23, Y+8	; 0x08
    4086:	89 85       	ldd	r24, Y+9	; 0x09
    4088:	9a 85       	ldd	r25, Y+10	; 0x0a
    408a:	a4 0e       	add	r10, r20
    408c:	b5 1e       	adc	r11, r21
    408e:	a7 01       	movw	r20, r14
    4090:	96 01       	movw	r18, r12
    4092:	0e 94 6c 2d 	call	0x5ad8	; 0x5ad8 <__udivmodsi4>
    4096:	60 5d       	subi	r22, 0xD0	; 208
    4098:	d5 01       	movw	r26, r10
    409a:	6c 93       	st	X, r22
    409c:	f8 01       	movw	r30, r16
    409e:	22 89       	ldd	r18, Z+18	; 0x12
    40a0:	33 89       	ldd	r19, Z+19	; 0x13
    40a2:	89 81       	ldd	r24, Y+1	; 0x01
    40a4:	9a 81       	ldd	r25, Y+2	; 0x02
    40a6:	ac 01       	movw	r20, r24
    40a8:	4f 5f       	subi	r20, 0xFF	; 255
    40aa:	5f 4f       	sbci	r21, 0xFF	; 255
    40ac:	49 83       	std	Y+1, r20	; 0x01
    40ae:	5a 83       	std	Y+2, r21	; 0x02
    40b0:	f9 01       	movw	r30, r18
    40b2:	e8 0f       	add	r30, r24
    40b4:	f9 1f       	adc	r31, r25
    40b6:	90 82       	st	Z, r9
    40b8:	d8 01       	movw	r26, r16
    40ba:	56 96       	adiw	r26, 0x16	; 22
    40bc:	ed 91       	ld	r30, X+
    40be:	fc 91       	ld	r31, X
    40c0:	57 97       	sbiw	r26, 0x17	; 23
    40c2:	80 85       	ldd	r24, Z+8	; 0x08
    40c4:	91 85       	ldd	r25, Z+9	; 0x09
    40c6:	a2 85       	ldd	r26, Z+10	; 0x0a
    40c8:	b3 85       	ldd	r27, Z+11	; 0x0b
    40ca:	8f 83       	std	Y+7, r24	; 0x07
    40cc:	98 87       	std	Y+8, r25	; 0x08
    40ce:	a9 87       	std	Y+9, r26	; 0x09
    40d0:	ba 87       	std	Y+10, r27	; 0x0a
    40d2:	f8 01       	movw	r30, r16
    40d4:	a2 88       	ldd	r10, Z+18	; 0x12
    40d6:	b3 88       	ldd	r11, Z+19	; 0x13
    40d8:	49 81       	ldd	r20, Y+1	; 0x01
    40da:	5a 81       	ldd	r21, Y+2	; 0x02
    40dc:	9a 01       	movw	r18, r20
    40de:	2f 5f       	subi	r18, 0xFF	; 255
    40e0:	3f 4f       	sbci	r19, 0xFF	; 255
    40e2:	29 83       	std	Y+1, r18	; 0x01
    40e4:	3a 83       	std	Y+2, r19	; 0x02
    40e6:	6f 81       	ldd	r22, Y+7	; 0x07
    40e8:	78 85       	ldd	r23, Y+8	; 0x08
    40ea:	89 85       	ldd	r24, Y+9	; 0x09
    40ec:	9a 85       	ldd	r25, Y+10	; 0x0a
    40ee:	a4 0e       	add	r10, r20
    40f0:	b5 1e       	adc	r11, r21
    40f2:	20 e4       	ldi	r18, 0x40	; 64
    40f4:	32 e4       	ldi	r19, 0x42	; 66
    40f6:	4f e0       	ldi	r20, 0x0F	; 15
    40f8:	50 e0       	ldi	r21, 0x00	; 0
    40fa:	0e 94 6c 2d 	call	0x5ad8	; 0x5ad8 <__udivmodsi4>
    40fe:	ca 01       	movw	r24, r20
    4100:	b9 01       	movw	r22, r18
    4102:	a7 01       	movw	r20, r14
    4104:	96 01       	movw	r18, r12
    4106:	0e 94 6c 2d 	call	0x5ad8	; 0x5ad8 <__udivmodsi4>
    410a:	60 5d       	subi	r22, 0xD0	; 208
    410c:	d5 01       	movw	r26, r10
    410e:	6c 93       	st	X, r22
    4110:	f8 01       	movw	r30, r16
    4112:	a2 88       	ldd	r10, Z+18	; 0x12
    4114:	b3 88       	ldd	r11, Z+19	; 0x13
    4116:	49 81       	ldd	r20, Y+1	; 0x01
    4118:	5a 81       	ldd	r21, Y+2	; 0x02
    411a:	9a 01       	movw	r18, r20
    411c:	2f 5f       	subi	r18, 0xFF	; 255
    411e:	3f 4f       	sbci	r19, 0xFF	; 255
    4120:	29 83       	std	Y+1, r18	; 0x01
    4122:	3a 83       	std	Y+2, r19	; 0x02
    4124:	6f 81       	ldd	r22, Y+7	; 0x07
    4126:	78 85       	ldd	r23, Y+8	; 0x08
    4128:	89 85       	ldd	r24, Y+9	; 0x09
    412a:	9a 85       	ldd	r25, Y+10	; 0x0a
    412c:	a4 0e       	add	r10, r20
    412e:	b5 1e       	adc	r11, r21
    4130:	20 ea       	ldi	r18, 0xA0	; 160
    4132:	36 e8       	ldi	r19, 0x86	; 134
    4134:	41 e0       	ldi	r20, 0x01	; 1
    4136:	50 e0       	ldi	r21, 0x00	; 0
    4138:	0e 94 6c 2d 	call	0x5ad8	; 0x5ad8 <__udivmodsi4>
    413c:	ca 01       	movw	r24, r20
    413e:	b9 01       	movw	r22, r18
    4140:	a7 01       	movw	r20, r14
    4142:	96 01       	movw	r18, r12
    4144:	0e 94 6c 2d 	call	0x5ad8	; 0x5ad8 <__udivmodsi4>
    4148:	60 5d       	subi	r22, 0xD0	; 208
    414a:	d5 01       	movw	r26, r10
    414c:	6c 93       	st	X, r22
    414e:	f8 01       	movw	r30, r16
    4150:	a2 88       	ldd	r10, Z+18	; 0x12
    4152:	b3 88       	ldd	r11, Z+19	; 0x13
    4154:	49 81       	ldd	r20, Y+1	; 0x01
    4156:	5a 81       	ldd	r21, Y+2	; 0x02
    4158:	9a 01       	movw	r18, r20
    415a:	2f 5f       	subi	r18, 0xFF	; 255
    415c:	3f 4f       	sbci	r19, 0xFF	; 255
    415e:	29 83       	std	Y+1, r18	; 0x01
    4160:	3a 83       	std	Y+2, r19	; 0x02
    4162:	6f 81       	ldd	r22, Y+7	; 0x07
    4164:	78 85       	ldd	r23, Y+8	; 0x08
    4166:	89 85       	ldd	r24, Y+9	; 0x09
    4168:	9a 85       	ldd	r25, Y+10	; 0x0a
    416a:	a4 0e       	add	r10, r20
    416c:	b5 1e       	adc	r11, r21
    416e:	20 e1       	ldi	r18, 0x10	; 16
    4170:	37 e2       	ldi	r19, 0x27	; 39
    4172:	40 e0       	ldi	r20, 0x00	; 0
    4174:	50 e0       	ldi	r21, 0x00	; 0
    4176:	0e 94 6c 2d 	call	0x5ad8	; 0x5ad8 <__udivmodsi4>
    417a:	ca 01       	movw	r24, r20
    417c:	b9 01       	movw	r22, r18
    417e:	a7 01       	movw	r20, r14
    4180:	96 01       	movw	r18, r12
    4182:	0e 94 6c 2d 	call	0x5ad8	; 0x5ad8 <__udivmodsi4>
    4186:	60 5d       	subi	r22, 0xD0	; 208
    4188:	d5 01       	movw	r26, r10
    418a:	6c 93       	st	X, r22
    418c:	f8 01       	movw	r30, r16
    418e:	a2 88       	ldd	r10, Z+18	; 0x12
    4190:	b3 88       	ldd	r11, Z+19	; 0x13
    4192:	49 81       	ldd	r20, Y+1	; 0x01
    4194:	5a 81       	ldd	r21, Y+2	; 0x02
    4196:	9a 01       	movw	r18, r20
    4198:	2f 5f       	subi	r18, 0xFF	; 255
    419a:	3f 4f       	sbci	r19, 0xFF	; 255
    419c:	29 83       	std	Y+1, r18	; 0x01
    419e:	3a 83       	std	Y+2, r19	; 0x02
    41a0:	6f 81       	ldd	r22, Y+7	; 0x07
    41a2:	78 85       	ldd	r23, Y+8	; 0x08
    41a4:	89 85       	ldd	r24, Y+9	; 0x09
    41a6:	9a 85       	ldd	r25, Y+10	; 0x0a
    41a8:	a4 0e       	add	r10, r20
    41aa:	b5 1e       	adc	r11, r21
    41ac:	28 ee       	ldi	r18, 0xE8	; 232
    41ae:	33 e0       	ldi	r19, 0x03	; 3
    41b0:	40 e0       	ldi	r20, 0x00	; 0
    41b2:	50 e0       	ldi	r21, 0x00	; 0
    41b4:	0e 94 6c 2d 	call	0x5ad8	; 0x5ad8 <__udivmodsi4>
    41b8:	ca 01       	movw	r24, r20
    41ba:	b9 01       	movw	r22, r18
    41bc:	a7 01       	movw	r20, r14
    41be:	96 01       	movw	r18, r12
    41c0:	0e 94 6c 2d 	call	0x5ad8	; 0x5ad8 <__udivmodsi4>
    41c4:	60 5d       	subi	r22, 0xD0	; 208
    41c6:	d5 01       	movw	r26, r10
    41c8:	6c 93       	st	X, r22
    41ca:	f8 01       	movw	r30, r16
    41cc:	a2 88       	ldd	r10, Z+18	; 0x12
    41ce:	b3 88       	ldd	r11, Z+19	; 0x13
    41d0:	49 81       	ldd	r20, Y+1	; 0x01
    41d2:	5a 81       	ldd	r21, Y+2	; 0x02
    41d4:	9a 01       	movw	r18, r20
    41d6:	2f 5f       	subi	r18, 0xFF	; 255
    41d8:	3f 4f       	sbci	r19, 0xFF	; 255
    41da:	29 83       	std	Y+1, r18	; 0x01
    41dc:	3a 83       	std	Y+2, r19	; 0x02
    41de:	6f 81       	ldd	r22, Y+7	; 0x07
    41e0:	78 85       	ldd	r23, Y+8	; 0x08
    41e2:	89 85       	ldd	r24, Y+9	; 0x09
    41e4:	9a 85       	ldd	r25, Y+10	; 0x0a
    41e6:	a4 0e       	add	r10, r20
    41e8:	b5 1e       	adc	r11, r21
    41ea:	a3 01       	movw	r20, r6
    41ec:	92 01       	movw	r18, r4
    41ee:	0e 94 6c 2d 	call	0x5ad8	; 0x5ad8 <__udivmodsi4>
    41f2:	ca 01       	movw	r24, r20
    41f4:	b9 01       	movw	r22, r18
    41f6:	a7 01       	movw	r20, r14
    41f8:	96 01       	movw	r18, r12
    41fa:	0e 94 6c 2d 	call	0x5ad8	; 0x5ad8 <__udivmodsi4>
    41fe:	60 5d       	subi	r22, 0xD0	; 208
    4200:	d5 01       	movw	r26, r10
    4202:	6c 93       	st	X, r22
    4204:	f8 01       	movw	r30, r16
    4206:	a2 88       	ldd	r10, Z+18	; 0x12
    4208:	b3 88       	ldd	r11, Z+19	; 0x13
    420a:	49 81       	ldd	r20, Y+1	; 0x01
    420c:	5a 81       	ldd	r21, Y+2	; 0x02
    420e:	9a 01       	movw	r18, r20
    4210:	2f 5f       	subi	r18, 0xFF	; 255
    4212:	3f 4f       	sbci	r19, 0xFF	; 255
    4214:	29 83       	std	Y+1, r18	; 0x01
    4216:	3a 83       	std	Y+2, r19	; 0x02
    4218:	6f 81       	ldd	r22, Y+7	; 0x07
    421a:	78 85       	ldd	r23, Y+8	; 0x08
    421c:	89 85       	ldd	r24, Y+9	; 0x09
    421e:	9a 85       	ldd	r25, Y+10	; 0x0a
    4220:	a4 0e       	add	r10, r20
    4222:	b5 1e       	adc	r11, r21
    4224:	a7 01       	movw	r20, r14
    4226:	96 01       	movw	r18, r12
    4228:	0e 94 6c 2d 	call	0x5ad8	; 0x5ad8 <__udivmodsi4>
    422c:	ca 01       	movw	r24, r20
    422e:	b9 01       	movw	r22, r18
    4230:	a7 01       	movw	r20, r14
    4232:	96 01       	movw	r18, r12
    4234:	0e 94 6c 2d 	call	0x5ad8	; 0x5ad8 <__udivmodsi4>
    4238:	60 5d       	subi	r22, 0xD0	; 208
    423a:	d5 01       	movw	r26, r10
    423c:	6c 93       	st	X, r22
    423e:	f8 01       	movw	r30, r16
    4240:	a2 88       	ldd	r10, Z+18	; 0x12
    4242:	b3 88       	ldd	r11, Z+19	; 0x13
    4244:	49 81       	ldd	r20, Y+1	; 0x01
    4246:	5a 81       	ldd	r21, Y+2	; 0x02
    4248:	9a 01       	movw	r18, r20
    424a:	2f 5f       	subi	r18, 0xFF	; 255
    424c:	3f 4f       	sbci	r19, 0xFF	; 255
    424e:	29 83       	std	Y+1, r18	; 0x01
    4250:	3a 83       	std	Y+2, r19	; 0x02
    4252:	6f 81       	ldd	r22, Y+7	; 0x07
    4254:	78 85       	ldd	r23, Y+8	; 0x08
    4256:	89 85       	ldd	r24, Y+9	; 0x09
    4258:	9a 85       	ldd	r25, Y+10	; 0x0a
    425a:	a4 0e       	add	r10, r20
    425c:	b5 1e       	adc	r11, r21
    425e:	a7 01       	movw	r20, r14
    4260:	96 01       	movw	r18, r12
    4262:	0e 94 6c 2d 	call	0x5ad8	; 0x5ad8 <__udivmodsi4>
    4266:	60 5d       	subi	r22, 0xD0	; 208
    4268:	d5 01       	movw	r26, r10
    426a:	6c 93       	st	X, r22
    426c:	f8 01       	movw	r30, r16
    426e:	22 89       	ldd	r18, Z+18	; 0x12
    4270:	33 89       	ldd	r19, Z+19	; 0x13
    4272:	89 81       	ldd	r24, Y+1	; 0x01
    4274:	9a 81       	ldd	r25, Y+2	; 0x02
    4276:	ac 01       	movw	r20, r24
    4278:	4f 5f       	subi	r20, 0xFF	; 255
    427a:	5f 4f       	sbci	r21, 0xFF	; 255
    427c:	49 83       	std	Y+1, r20	; 0x01
    427e:	5a 83       	std	Y+2, r21	; 0x02
    4280:	f9 01       	movw	r30, r18
    4282:	e8 0f       	add	r30, r24
    4284:	f9 1f       	adc	r31, r25
    4286:	90 82       	st	Z, r9
    4288:	d8 01       	movw	r26, r16
    428a:	18 96       	adiw	r26, 0x08	; 8
    428c:	ed 91       	ld	r30, X+
    428e:	fc 91       	ld	r31, X
    4290:	19 97       	sbiw	r26, 0x09	; 9
    4292:	20 e0       	ldi	r18, 0x00	; 0
    4294:	30 e0       	ldi	r19, 0x00	; 0
    4296:	4a e7       	ldi	r20, 0x7A	; 122
    4298:	54 e4       	ldi	r21, 0x44	; 68
    429a:	64 8d       	ldd	r22, Z+28	; 0x1c
    429c:	75 8d       	ldd	r23, Z+29	; 0x1d
    429e:	86 8d       	ldd	r24, Z+30	; 0x1e
    42a0:	97 8d       	ldd	r25, Z+31	; 0x1f
    42a2:	0e 94 34 2b 	call	0x5668	; 0x5668 <__mulsf3>
    42a6:	0e 94 0d 2a 	call	0x541a	; 0x541a <__fixsfsi>
    42aa:	6b 83       	std	Y+3, r22	; 0x03
    42ac:	7c 83       	std	Y+4, r23	; 0x04
    42ae:	d8 01       	movw	r26, r16
    42b0:	52 96       	adiw	r26, 0x12	; 18
    42b2:	ed 91       	ld	r30, X+
    42b4:	fc 91       	ld	r31, X
    42b6:	53 97       	sbiw	r26, 0x13	; 19
    42b8:	29 81       	ldd	r18, Y+1	; 0x01
    42ba:	3a 81       	ldd	r19, Y+2	; 0x02
    42bc:	c9 01       	movw	r24, r18
    42be:	01 96       	adiw	r24, 0x01	; 1
    42c0:	89 83       	std	Y+1, r24	; 0x01
    42c2:	9a 83       	std	Y+2, r25	; 0x02
    42c4:	8b 81       	ldd	r24, Y+3	; 0x03
    42c6:	9c 81       	ldd	r25, Y+4	; 0x04
    42c8:	e2 0f       	add	r30, r18
    42ca:	f3 1f       	adc	r31, r19
    42cc:	68 ee       	ldi	r22, 0xE8	; 232
    42ce:	73 e0       	ldi	r23, 0x03	; 3
    42d0:	0e 94 59 2d 	call	0x5ab2	; 0x5ab2 <__divmodhi4>
    42d4:	cb 01       	movw	r24, r22
    42d6:	b1 01       	movw	r22, r2
    42d8:	0e 94 59 2d 	call	0x5ab2	; 0x5ab2 <__divmodhi4>
    42dc:	80 5d       	subi	r24, 0xD0	; 208
    42de:	80 83       	st	Z, r24
    42e0:	f8 01       	movw	r30, r16
    42e2:	22 89       	ldd	r18, Z+18	; 0x12
    42e4:	33 89       	ldd	r19, Z+19	; 0x13
    42e6:	89 81       	ldd	r24, Y+1	; 0x01
    42e8:	9a 81       	ldd	r25, Y+2	; 0x02
    42ea:	ac 01       	movw	r20, r24
    42ec:	4f 5f       	subi	r20, 0xFF	; 255
    42ee:	5f 4f       	sbci	r21, 0xFF	; 255
    42f0:	49 83       	std	Y+1, r20	; 0x01
    42f2:	5a 83       	std	Y+2, r21	; 0x02
    42f4:	f9 01       	movw	r30, r18
    42f6:	e8 0f       	add	r30, r24
    42f8:	f9 1f       	adc	r31, r25
    42fa:	80 82       	st	Z, r8
    42fc:	d8 01       	movw	r26, r16
    42fe:	52 96       	adiw	r26, 0x12	; 18
    4300:	4d 91       	ld	r20, X+
    4302:	5c 91       	ld	r21, X
    4304:	53 97       	sbiw	r26, 0x13	; 19
    4306:	29 81       	ldd	r18, Y+1	; 0x01
    4308:	3a 81       	ldd	r19, Y+2	; 0x02
    430a:	c9 01       	movw	r24, r18
    430c:	01 96       	adiw	r24, 0x01	; 1
    430e:	89 83       	std	Y+1, r24	; 0x01
    4310:	9a 83       	std	Y+2, r25	; 0x02
    4312:	8b 81       	ldd	r24, Y+3	; 0x03
    4314:	9c 81       	ldd	r25, Y+4	; 0x04
    4316:	fa 01       	movw	r30, r20
    4318:	e2 0f       	add	r30, r18
    431a:	f3 1f       	adc	r31, r19
    431c:	64 e6       	ldi	r22, 0x64	; 100
    431e:	70 e0       	ldi	r23, 0x00	; 0
    4320:	0e 94 59 2d 	call	0x5ab2	; 0x5ab2 <__divmodhi4>
    4324:	cb 01       	movw	r24, r22
    4326:	b1 01       	movw	r22, r2
    4328:	0e 94 59 2d 	call	0x5ab2	; 0x5ab2 <__divmodhi4>
    432c:	80 5d       	subi	r24, 0xD0	; 208
    432e:	80 83       	st	Z, r24
    4330:	f8 01       	movw	r30, r16
    4332:	42 89       	ldd	r20, Z+18	; 0x12
    4334:	53 89       	ldd	r21, Z+19	; 0x13
    4336:	29 81       	ldd	r18, Y+1	; 0x01
    4338:	3a 81       	ldd	r19, Y+2	; 0x02
    433a:	c9 01       	movw	r24, r18
    433c:	01 96       	adiw	r24, 0x01	; 1
    433e:	89 83       	std	Y+1, r24	; 0x01
    4340:	9a 83       	std	Y+2, r25	; 0x02
    4342:	8b 81       	ldd	r24, Y+3	; 0x03
    4344:	9c 81       	ldd	r25, Y+4	; 0x04
    4346:	fa 01       	movw	r30, r20
    4348:	e2 0f       	add	r30, r18
    434a:	f3 1f       	adc	r31, r19
    434c:	b1 01       	movw	r22, r2
    434e:	0e 94 59 2d 	call	0x5ab2	; 0x5ab2 <__divmodhi4>
    4352:	cb 01       	movw	r24, r22
    4354:	b1 01       	movw	r22, r2
    4356:	0e 94 59 2d 	call	0x5ab2	; 0x5ab2 <__divmodhi4>
    435a:	80 5d       	subi	r24, 0xD0	; 208
    435c:	80 83       	st	Z, r24
    435e:	d8 01       	movw	r26, r16
    4360:	52 96       	adiw	r26, 0x12	; 18
    4362:	4d 91       	ld	r20, X+
    4364:	5c 91       	ld	r21, X
    4366:	53 97       	sbiw	r26, 0x13	; 19
    4368:	29 81       	ldd	r18, Y+1	; 0x01
    436a:	3a 81       	ldd	r19, Y+2	; 0x02
    436c:	c9 01       	movw	r24, r18
    436e:	01 96       	adiw	r24, 0x01	; 1
    4370:	89 83       	std	Y+1, r24	; 0x01
    4372:	9a 83       	std	Y+2, r25	; 0x02
    4374:	8b 81       	ldd	r24, Y+3	; 0x03
    4376:	9c 81       	ldd	r25, Y+4	; 0x04
    4378:	fa 01       	movw	r30, r20
    437a:	e2 0f       	add	r30, r18
    437c:	f3 1f       	adc	r31, r19
    437e:	b1 01       	movw	r22, r2
    4380:	0e 94 59 2d 	call	0x5ab2	; 0x5ab2 <__divmodhi4>
    4384:	80 5d       	subi	r24, 0xD0	; 208
    4386:	80 83       	st	Z, r24
    4388:	f8 01       	movw	r30, r16
    438a:	22 89       	ldd	r18, Z+18	; 0x12
    438c:	33 89       	ldd	r19, Z+19	; 0x13
    438e:	89 81       	ldd	r24, Y+1	; 0x01
    4390:	9a 81       	ldd	r25, Y+2	; 0x02
    4392:	ac 01       	movw	r20, r24
    4394:	4f 5f       	subi	r20, 0xFF	; 255
    4396:	5f 4f       	sbci	r21, 0xFF	; 255
    4398:	49 83       	std	Y+1, r20	; 0x01
    439a:	5a 83       	std	Y+2, r21	; 0x02
    439c:	f9 01       	movw	r30, r18
    439e:	e8 0f       	add	r30, r24
    43a0:	f9 1f       	adc	r31, r25
    43a2:	90 82       	st	Z, r9
    43a4:	d8 01       	movw	r26, r16
    43a6:	ed 91       	ld	r30, X+
    43a8:	fc 91       	ld	r31, X
    43aa:	11 97       	sbiw	r26, 0x01	; 1
    43ac:	20 a9       	ldd	r18, Z+48	; 0x30
    43ae:	31 a9       	ldd	r19, Z+49	; 0x31
    43b0:	44 e6       	ldi	r20, 0x64	; 100
    43b2:	42 9f       	mul	r20, r18
    43b4:	c0 01       	movw	r24, r0
    43b6:	43 9f       	mul	r20, r19
    43b8:	90 0d       	add	r25, r0
    43ba:	11 24       	eor	r1, r1
    43bc:	8b 83       	std	Y+3, r24	; 0x03
    43be:	9c 83       	std	Y+4, r25	; 0x04
    43c0:	8b 81       	ldd	r24, Y+3	; 0x03
    43c2:	9c 81       	ldd	r25, Y+4	; 0x04
    43c4:	99 23       	and	r25, r25
    43c6:	c4 f4       	brge	.+48     	; 0x43f8 <prepareFrame+0x171a>
    43c8:	8b 81       	ldd	r24, Y+3	; 0x03
    43ca:	9c 81       	ldd	r25, Y+4	; 0x04
    43cc:	91 95       	neg	r25
    43ce:	81 95       	neg	r24
    43d0:	91 09       	sbc	r25, r1
    43d2:	8b 83       	std	Y+3, r24	; 0x03
    43d4:	9c 83       	std	Y+4, r25	; 0x04
    43d6:	52 96       	adiw	r26, 0x12	; 18
    43d8:	2d 91       	ld	r18, X+
    43da:	3c 91       	ld	r19, X
    43dc:	53 97       	sbiw	r26, 0x13	; 19
    43de:	89 81       	ldd	r24, Y+1	; 0x01
    43e0:	9a 81       	ldd	r25, Y+2	; 0x02
    43e2:	ac 01       	movw	r20, r24
    43e4:	4f 5f       	subi	r20, 0xFF	; 255
    43e6:	5f 4f       	sbci	r21, 0xFF	; 255
    43e8:	49 83       	std	Y+1, r20	; 0x01
    43ea:	5a 83       	std	Y+2, r21	; 0x02
    43ec:	f9 01       	movw	r30, r18
    43ee:	e8 0f       	add	r30, r24
    43f0:	f9 1f       	adc	r31, r25
    43f2:	2d e2       	ldi	r18, 0x2D	; 45
    43f4:	20 83       	st	Z, r18
    43f6:	0f c0       	rjmp	.+30     	; 0x4416 <prepareFrame+0x1738>
    43f8:	f8 01       	movw	r30, r16
    43fa:	22 89       	ldd	r18, Z+18	; 0x12
    43fc:	33 89       	ldd	r19, Z+19	; 0x13
    43fe:	89 81       	ldd	r24, Y+1	; 0x01
    4400:	9a 81       	ldd	r25, Y+2	; 0x02
    4402:	ac 01       	movw	r20, r24
    4404:	4f 5f       	subi	r20, 0xFF	; 255
    4406:	5f 4f       	sbci	r21, 0xFF	; 255
    4408:	49 83       	std	Y+1, r20	; 0x01
    440a:	5a 83       	std	Y+2, r21	; 0x02
    440c:	f9 01       	movw	r30, r18
    440e:	e8 0f       	add	r30, r24
    4410:	f9 1f       	adc	r31, r25
    4412:	2b e2       	ldi	r18, 0x2B	; 43
    4414:	20 83       	st	Z, r18
    4416:	d8 01       	movw	r26, r16
    4418:	52 96       	adiw	r26, 0x12	; 18
    441a:	ed 91       	ld	r30, X+
    441c:	fc 91       	ld	r31, X
    441e:	53 97       	sbiw	r26, 0x13	; 19
    4420:	29 81       	ldd	r18, Y+1	; 0x01
    4422:	3a 81       	ldd	r19, Y+2	; 0x02
    4424:	c9 01       	movw	r24, r18
    4426:	01 96       	adiw	r24, 0x01	; 1
    4428:	89 83       	std	Y+1, r24	; 0x01
    442a:	9a 83       	std	Y+2, r25	; 0x02
    442c:	8b 81       	ldd	r24, Y+3	; 0x03
    442e:	9c 81       	ldd	r25, Y+4	; 0x04
    4430:	e2 0f       	add	r30, r18
    4432:	f3 1f       	adc	r31, r19
    4434:	68 ee       	ldi	r22, 0xE8	; 232
    4436:	73 e0       	ldi	r23, 0x03	; 3
    4438:	0e 94 59 2d 	call	0x5ab2	; 0x5ab2 <__divmodhi4>
    443c:	cb 01       	movw	r24, r22
    443e:	2a e0       	ldi	r18, 0x0A	; 10
    4440:	30 e0       	ldi	r19, 0x00	; 0
    4442:	b9 01       	movw	r22, r18
    4444:	0e 94 59 2d 	call	0x5ab2	; 0x5ab2 <__divmodhi4>
    4448:	80 5d       	subi	r24, 0xD0	; 208
    444a:	80 83       	st	Z, r24
    444c:	d8 01       	movw	r26, r16
    444e:	52 96       	adiw	r26, 0x12	; 18
    4450:	ed 91       	ld	r30, X+
    4452:	fc 91       	ld	r31, X
    4454:	53 97       	sbiw	r26, 0x13	; 19
    4456:	49 81       	ldd	r20, Y+1	; 0x01
    4458:	5a 81       	ldd	r21, Y+2	; 0x02
    445a:	ca 01       	movw	r24, r20
    445c:	01 96       	adiw	r24, 0x01	; 1
    445e:	89 83       	std	Y+1, r24	; 0x01
    4460:	9a 83       	std	Y+2, r25	; 0x02
    4462:	8b 81       	ldd	r24, Y+3	; 0x03
    4464:	9c 81       	ldd	r25, Y+4	; 0x04
    4466:	e4 0f       	add	r30, r20
    4468:	f5 1f       	adc	r31, r21
    446a:	64 e6       	ldi	r22, 0x64	; 100
    446c:	70 e0       	ldi	r23, 0x00	; 0
    446e:	0e 94 59 2d 	call	0x5ab2	; 0x5ab2 <__divmodhi4>
    4472:	cb 01       	movw	r24, r22
    4474:	b9 01       	movw	r22, r18
    4476:	0e 94 59 2d 	call	0x5ab2	; 0x5ab2 <__divmodhi4>
    447a:	80 5d       	subi	r24, 0xD0	; 208
    447c:	80 83       	st	Z, r24
    447e:	f8 01       	movw	r30, r16
    4480:	42 89       	ldd	r20, Z+18	; 0x12
    4482:	53 89       	ldd	r21, Z+19	; 0x13
    4484:	89 81       	ldd	r24, Y+1	; 0x01
    4486:	9a 81       	ldd	r25, Y+2	; 0x02
    4488:	bc 01       	movw	r22, r24
    448a:	6f 5f       	subi	r22, 0xFF	; 255
    448c:	7f 4f       	sbci	r23, 0xFF	; 255
    448e:	69 83       	std	Y+1, r22	; 0x01
    4490:	7a 83       	std	Y+2, r23	; 0x02
    4492:	fa 01       	movw	r30, r20
    4494:	e8 0f       	add	r30, r24
    4496:	f9 1f       	adc	r31, r25
    4498:	4e e2       	ldi	r20, 0x2E	; 46
    449a:	40 83       	st	Z, r20
    449c:	d8 01       	movw	r26, r16
    449e:	52 96       	adiw	r26, 0x12	; 18
    44a0:	ed 91       	ld	r30, X+
    44a2:	fc 91       	ld	r31, X
    44a4:	53 97       	sbiw	r26, 0x13	; 19
    44a6:	49 81       	ldd	r20, Y+1	; 0x01
    44a8:	5a 81       	ldd	r21, Y+2	; 0x02
    44aa:	ca 01       	movw	r24, r20
    44ac:	01 96       	adiw	r24, 0x01	; 1
    44ae:	89 83       	std	Y+1, r24	; 0x01
    44b0:	9a 83       	std	Y+2, r25	; 0x02
    44b2:	8b 81       	ldd	r24, Y+3	; 0x03
    44b4:	9c 81       	ldd	r25, Y+4	; 0x04
    44b6:	e4 0f       	add	r30, r20
    44b8:	f5 1f       	adc	r31, r21
    44ba:	b9 01       	movw	r22, r18
    44bc:	0e 94 59 2d 	call	0x5ab2	; 0x5ab2 <__divmodhi4>
    44c0:	cb 01       	movw	r24, r22
    44c2:	b9 01       	movw	r22, r18
    44c4:	0e 94 59 2d 	call	0x5ab2	; 0x5ab2 <__divmodhi4>
    44c8:	80 5d       	subi	r24, 0xD0	; 208
    44ca:	80 83       	st	Z, r24
    44cc:	d8 01       	movw	r26, r16
    44ce:	52 96       	adiw	r26, 0x12	; 18
    44d0:	ed 91       	ld	r30, X+
    44d2:	fc 91       	ld	r31, X
    44d4:	53 97       	sbiw	r26, 0x13	; 19
    44d6:	49 81       	ldd	r20, Y+1	; 0x01
    44d8:	5a 81       	ldd	r21, Y+2	; 0x02
    44da:	ca 01       	movw	r24, r20
    44dc:	01 96       	adiw	r24, 0x01	; 1
    44de:	89 83       	std	Y+1, r24	; 0x01
    44e0:	9a 83       	std	Y+2, r25	; 0x02
    44e2:	8b 81       	ldd	r24, Y+3	; 0x03
    44e4:	9c 81       	ldd	r25, Y+4	; 0x04
    44e6:	e4 0f       	add	r30, r20
    44e8:	f5 1f       	adc	r31, r21
    44ea:	b9 01       	movw	r22, r18
    44ec:	0e 94 59 2d 	call	0x5ab2	; 0x5ab2 <__divmodhi4>
    44f0:	80 5d       	subi	r24, 0xD0	; 208
    44f2:	80 83       	st	Z, r24
    44f4:	f8 01       	movw	r30, r16
    44f6:	22 89       	ldd	r18, Z+18	; 0x12
    44f8:	33 89       	ldd	r19, Z+19	; 0x13
    44fa:	89 81       	ldd	r24, Y+1	; 0x01
    44fc:	9a 81       	ldd	r25, Y+2	; 0x02
    44fe:	ac 01       	movw	r20, r24
    4500:	4f 5f       	subi	r20, 0xFF	; 255
    4502:	5f 4f       	sbci	r21, 0xFF	; 255
    4504:	49 83       	std	Y+1, r20	; 0x01
    4506:	5a 83       	std	Y+2, r21	; 0x02
    4508:	f9 01       	movw	r30, r18
    450a:	e8 0f       	add	r30, r24
    450c:	f9 1f       	adc	r31, r25
    450e:	2c e2       	ldi	r18, 0x2C	; 44
    4510:	20 83       	st	Z, r18
    4512:	d8 01       	movw	r26, r16
    4514:	14 96       	adiw	r26, 0x04	; 4
    4516:	ed 91       	ld	r30, X+
    4518:	fc 91       	ld	r31, X
    451a:	15 97       	sbiw	r26, 0x05	; 5
    451c:	c4 80       	ldd	r12, Z+4	; 0x04
    451e:	d5 80       	ldd	r13, Z+5	; 0x05
    4520:	e6 80       	ldd	r14, Z+6	; 0x06
    4522:	f7 80       	ldd	r15, Z+7	; 0x07
    4524:	c7 01       	movw	r24, r14
    4526:	b6 01       	movw	r22, r12
    4528:	78 d7       	rcall	.+3824   	; 0x541a <__fixsfsi>
    452a:	6b 83       	std	Y+3, r22	; 0x03
    452c:	7c 83       	std	Y+4, r23	; 0x04
    452e:	c7 01       	movw	r24, r14
    4530:	b6 01       	movw	r22, r12
    4532:	0e 94 25 2c 	call	0x584a	; 0x584a <trunc>
    4536:	9b 01       	movw	r18, r22
    4538:	ac 01       	movw	r20, r24
    453a:	c7 01       	movw	r24, r14
    453c:	b6 01       	movw	r22, r12
    453e:	9c d6       	rcall	.+3384   	; 0x5278 <__subsf3>
    4540:	20 e0       	ldi	r18, 0x00	; 0
    4542:	30 e0       	ldi	r19, 0x00	; 0
    4544:	4a e7       	ldi	r20, 0x7A	; 122
    4546:	54 e4       	ldi	r21, 0x44	; 68
    4548:	0e 94 34 2b 	call	0x5668	; 0x5668 <__mulsf3>
    454c:	66 d7       	rcall	.+3788   	; 0x541a <__fixsfsi>
    454e:	6d 83       	std	Y+5, r22	; 0x05
    4550:	7e 83       	std	Y+6, r23	; 0x06
    4552:	8b 81       	ldd	r24, Y+3	; 0x03
    4554:	9c 81       	ldd	r25, Y+4	; 0x04
    4556:	99 23       	and	r25, r25
    4558:	f4 f4       	brge	.+60     	; 0x4596 <prepareFrame+0x18b8>
    455a:	8b 81       	ldd	r24, Y+3	; 0x03
    455c:	9c 81       	ldd	r25, Y+4	; 0x04
    455e:	91 95       	neg	r25
    4560:	81 95       	neg	r24
    4562:	91 09       	sbc	r25, r1
    4564:	8b 83       	std	Y+3, r24	; 0x03
    4566:	9c 83       	std	Y+4, r25	; 0x04
    4568:	8d 81       	ldd	r24, Y+5	; 0x05
    456a:	9e 81       	ldd	r25, Y+6	; 0x06
    456c:	91 95       	neg	r25
    456e:	81 95       	neg	r24
    4570:	91 09       	sbc	r25, r1
    4572:	8d 83       	std	Y+5, r24	; 0x05
    4574:	9e 83       	std	Y+6, r25	; 0x06
    4576:	f8 01       	movw	r30, r16
    4578:	22 89       	ldd	r18, Z+18	; 0x12
    457a:	33 89       	ldd	r19, Z+19	; 0x13
    457c:	89 81       	ldd	r24, Y+1	; 0x01
    457e:	9a 81       	ldd	r25, Y+2	; 0x02
    4580:	ac 01       	movw	r20, r24
    4582:	4f 5f       	subi	r20, 0xFF	; 255
    4584:	5f 4f       	sbci	r21, 0xFF	; 255
    4586:	49 83       	std	Y+1, r20	; 0x01
    4588:	5a 83       	std	Y+2, r21	; 0x02
    458a:	f9 01       	movw	r30, r18
    458c:	e8 0f       	add	r30, r24
    458e:	f9 1f       	adc	r31, r25
    4590:	2d e2       	ldi	r18, 0x2D	; 45
    4592:	20 83       	st	Z, r18
    4594:	11 c0       	rjmp	.+34     	; 0x45b8 <prepareFrame+0x18da>
    4596:	d8 01       	movw	r26, r16
    4598:	52 96       	adiw	r26, 0x12	; 18
    459a:	2d 91       	ld	r18, X+
    459c:	3c 91       	ld	r19, X
    459e:	53 97       	sbiw	r26, 0x13	; 19
    45a0:	89 81       	ldd	r24, Y+1	; 0x01
    45a2:	9a 81       	ldd	r25, Y+2	; 0x02
    45a4:	ac 01       	movw	r20, r24
    45a6:	4f 5f       	subi	r20, 0xFF	; 255
    45a8:	5f 4f       	sbci	r21, 0xFF	; 255
    45aa:	49 83       	std	Y+1, r20	; 0x01
    45ac:	5a 83       	std	Y+2, r21	; 0x02
    45ae:	f9 01       	movw	r30, r18
    45b0:	e8 0f       	add	r30, r24
    45b2:	f9 1f       	adc	r31, r25
    45b4:	2b e2       	ldi	r18, 0x2B	; 43
    45b6:	20 83       	st	Z, r18
    45b8:	d8 01       	movw	r26, r16
    45ba:	52 96       	adiw	r26, 0x12	; 18
    45bc:	ed 91       	ld	r30, X+
    45be:	fc 91       	ld	r31, X
    45c0:	53 97       	sbiw	r26, 0x13	; 19
    45c2:	29 81       	ldd	r18, Y+1	; 0x01
    45c4:	3a 81       	ldd	r19, Y+2	; 0x02
    45c6:	c9 01       	movw	r24, r18
    45c8:	01 96       	adiw	r24, 0x01	; 1
    45ca:	89 83       	std	Y+1, r24	; 0x01
    45cc:	9a 83       	std	Y+2, r25	; 0x02
    45ce:	8b 81       	ldd	r24, Y+3	; 0x03
    45d0:	9c 81       	ldd	r25, Y+4	; 0x04
    45d2:	e2 0f       	add	r30, r18
    45d4:	f3 1f       	adc	r31, r19
    45d6:	68 ee       	ldi	r22, 0xE8	; 232
    45d8:	73 e0       	ldi	r23, 0x03	; 3
    45da:	0e 94 59 2d 	call	0x5ab2	; 0x5ab2 <__divmodhi4>
    45de:	cb 01       	movw	r24, r22
    45e0:	2a e0       	ldi	r18, 0x0A	; 10
    45e2:	30 e0       	ldi	r19, 0x00	; 0
    45e4:	b9 01       	movw	r22, r18
    45e6:	0e 94 59 2d 	call	0x5ab2	; 0x5ab2 <__divmodhi4>
    45ea:	80 5d       	subi	r24, 0xD0	; 208
    45ec:	80 83       	st	Z, r24
    45ee:	d8 01       	movw	r26, r16
    45f0:	52 96       	adiw	r26, 0x12	; 18
    45f2:	ed 91       	ld	r30, X+
    45f4:	fc 91       	ld	r31, X
    45f6:	53 97       	sbiw	r26, 0x13	; 19
    45f8:	49 81       	ldd	r20, Y+1	; 0x01
    45fa:	5a 81       	ldd	r21, Y+2	; 0x02
    45fc:	ca 01       	movw	r24, r20
    45fe:	01 96       	adiw	r24, 0x01	; 1
    4600:	89 83       	std	Y+1, r24	; 0x01
    4602:	9a 83       	std	Y+2, r25	; 0x02
    4604:	8b 81       	ldd	r24, Y+3	; 0x03
    4606:	9c 81       	ldd	r25, Y+4	; 0x04
    4608:	e4 0f       	add	r30, r20
    460a:	f5 1f       	adc	r31, r21
    460c:	0f 2e       	mov	r0, r31
    460e:	f4 e6       	ldi	r31, 0x64	; 100
    4610:	ef 2e       	mov	r14, r31
    4612:	f1 2c       	mov	r15, r1
    4614:	f0 2d       	mov	r31, r0
    4616:	b7 01       	movw	r22, r14
    4618:	0e 94 59 2d 	call	0x5ab2	; 0x5ab2 <__divmodhi4>
    461c:	cb 01       	movw	r24, r22
    461e:	b9 01       	movw	r22, r18
    4620:	0e 94 59 2d 	call	0x5ab2	; 0x5ab2 <__divmodhi4>
    4624:	80 5d       	subi	r24, 0xD0	; 208
    4626:	80 83       	st	Z, r24
    4628:	d8 01       	movw	r26, r16
    462a:	52 96       	adiw	r26, 0x12	; 18
    462c:	ed 91       	ld	r30, X+
    462e:	fc 91       	ld	r31, X
    4630:	53 97       	sbiw	r26, 0x13	; 19
    4632:	49 81       	ldd	r20, Y+1	; 0x01
    4634:	5a 81       	ldd	r21, Y+2	; 0x02
    4636:	ca 01       	movw	r24, r20
    4638:	01 96       	adiw	r24, 0x01	; 1
    463a:	89 83       	std	Y+1, r24	; 0x01
    463c:	9a 83       	std	Y+2, r25	; 0x02
    463e:	8b 81       	ldd	r24, Y+3	; 0x03
    4640:	9c 81       	ldd	r25, Y+4	; 0x04
    4642:	e4 0f       	add	r30, r20
    4644:	f5 1f       	adc	r31, r21
    4646:	b9 01       	movw	r22, r18
    4648:	0e 94 59 2d 	call	0x5ab2	; 0x5ab2 <__divmodhi4>
    464c:	cb 01       	movw	r24, r22
    464e:	b9 01       	movw	r22, r18
    4650:	0e 94 59 2d 	call	0x5ab2	; 0x5ab2 <__divmodhi4>
    4654:	80 5d       	subi	r24, 0xD0	; 208
    4656:	80 83       	st	Z, r24
    4658:	d8 01       	movw	r26, r16
    465a:	52 96       	adiw	r26, 0x12	; 18
    465c:	ed 91       	ld	r30, X+
    465e:	fc 91       	ld	r31, X
    4660:	53 97       	sbiw	r26, 0x13	; 19
    4662:	49 81       	ldd	r20, Y+1	; 0x01
    4664:	5a 81       	ldd	r21, Y+2	; 0x02
    4666:	ca 01       	movw	r24, r20
    4668:	01 96       	adiw	r24, 0x01	; 1
    466a:	89 83       	std	Y+1, r24	; 0x01
    466c:	9a 83       	std	Y+2, r25	; 0x02
    466e:	8b 81       	ldd	r24, Y+3	; 0x03
    4670:	9c 81       	ldd	r25, Y+4	; 0x04
    4672:	e4 0f       	add	r30, r20
    4674:	f5 1f       	adc	r31, r21
    4676:	b9 01       	movw	r22, r18
    4678:	0e 94 59 2d 	call	0x5ab2	; 0x5ab2 <__divmodhi4>
    467c:	80 5d       	subi	r24, 0xD0	; 208
    467e:	80 83       	st	Z, r24
    4680:	f8 01       	movw	r30, r16
    4682:	42 89       	ldd	r20, Z+18	; 0x12
    4684:	53 89       	ldd	r21, Z+19	; 0x13
    4686:	89 81       	ldd	r24, Y+1	; 0x01
    4688:	9a 81       	ldd	r25, Y+2	; 0x02
    468a:	bc 01       	movw	r22, r24
    468c:	6f 5f       	subi	r22, 0xFF	; 255
    468e:	7f 4f       	sbci	r23, 0xFF	; 255
    4690:	69 83       	std	Y+1, r22	; 0x01
    4692:	7a 83       	std	Y+2, r23	; 0x02
    4694:	fa 01       	movw	r30, r20
    4696:	e8 0f       	add	r30, r24
    4698:	f9 1f       	adc	r31, r25
    469a:	4e e2       	ldi	r20, 0x2E	; 46
    469c:	40 83       	st	Z, r20
    469e:	d8 01       	movw	r26, r16
    46a0:	52 96       	adiw	r26, 0x12	; 18
    46a2:	ed 91       	ld	r30, X+
    46a4:	fc 91       	ld	r31, X
    46a6:	53 97       	sbiw	r26, 0x13	; 19
    46a8:	49 81       	ldd	r20, Y+1	; 0x01
    46aa:	5a 81       	ldd	r21, Y+2	; 0x02
    46ac:	ca 01       	movw	r24, r20
    46ae:	01 96       	adiw	r24, 0x01	; 1
    46b0:	89 83       	std	Y+1, r24	; 0x01
    46b2:	9a 83       	std	Y+2, r25	; 0x02
    46b4:	8d 81       	ldd	r24, Y+5	; 0x05
    46b6:	9e 81       	ldd	r25, Y+6	; 0x06
    46b8:	e4 0f       	add	r30, r20
    46ba:	f5 1f       	adc	r31, r21
    46bc:	b7 01       	movw	r22, r14
    46be:	0e 94 59 2d 	call	0x5ab2	; 0x5ab2 <__divmodhi4>
    46c2:	cb 01       	movw	r24, r22
    46c4:	b9 01       	movw	r22, r18
    46c6:	0e 94 59 2d 	call	0x5ab2	; 0x5ab2 <__divmodhi4>
    46ca:	80 5d       	subi	r24, 0xD0	; 208
    46cc:	80 83       	st	Z, r24
    46ce:	d8 01       	movw	r26, r16
    46d0:	52 96       	adiw	r26, 0x12	; 18
    46d2:	ed 91       	ld	r30, X+
    46d4:	fc 91       	ld	r31, X
    46d6:	53 97       	sbiw	r26, 0x13	; 19
    46d8:	49 81       	ldd	r20, Y+1	; 0x01
    46da:	5a 81       	ldd	r21, Y+2	; 0x02
    46dc:	ca 01       	movw	r24, r20
    46de:	01 96       	adiw	r24, 0x01	; 1
    46e0:	89 83       	std	Y+1, r24	; 0x01
    46e2:	9a 83       	std	Y+2, r25	; 0x02
    46e4:	8d 81       	ldd	r24, Y+5	; 0x05
    46e6:	9e 81       	ldd	r25, Y+6	; 0x06
    46e8:	e4 0f       	add	r30, r20
    46ea:	f5 1f       	adc	r31, r21
    46ec:	b9 01       	movw	r22, r18
    46ee:	0e 94 59 2d 	call	0x5ab2	; 0x5ab2 <__divmodhi4>
    46f2:	cb 01       	movw	r24, r22
    46f4:	b9 01       	movw	r22, r18
    46f6:	0e 94 59 2d 	call	0x5ab2	; 0x5ab2 <__divmodhi4>
    46fa:	80 5d       	subi	r24, 0xD0	; 208
    46fc:	80 83       	st	Z, r24
    46fe:	d8 01       	movw	r26, r16
    4700:	52 96       	adiw	r26, 0x12	; 18
    4702:	ed 91       	ld	r30, X+
    4704:	fc 91       	ld	r31, X
    4706:	53 97       	sbiw	r26, 0x13	; 19
    4708:	49 81       	ldd	r20, Y+1	; 0x01
    470a:	5a 81       	ldd	r21, Y+2	; 0x02
    470c:	ca 01       	movw	r24, r20
    470e:	01 96       	adiw	r24, 0x01	; 1
    4710:	89 83       	std	Y+1, r24	; 0x01
    4712:	9a 83       	std	Y+2, r25	; 0x02
    4714:	8d 81       	ldd	r24, Y+5	; 0x05
    4716:	9e 81       	ldd	r25, Y+6	; 0x06
    4718:	e4 0f       	add	r30, r20
    471a:	f5 1f       	adc	r31, r21
    471c:	b9 01       	movw	r22, r18
    471e:	0e 94 59 2d 	call	0x5ab2	; 0x5ab2 <__divmodhi4>
    4722:	80 5d       	subi	r24, 0xD0	; 208
    4724:	80 83       	st	Z, r24
    4726:	f8 01       	movw	r30, r16
    4728:	22 89       	ldd	r18, Z+18	; 0x12
    472a:	33 89       	ldd	r19, Z+19	; 0x13
    472c:	89 81       	ldd	r24, Y+1	; 0x01
    472e:	9a 81       	ldd	r25, Y+2	; 0x02
    4730:	ac 01       	movw	r20, r24
    4732:	4f 5f       	subi	r20, 0xFF	; 255
    4734:	5f 4f       	sbci	r21, 0xFF	; 255
    4736:	49 83       	std	Y+1, r20	; 0x01
    4738:	5a 83       	std	Y+2, r21	; 0x02
    473a:	f9 01       	movw	r30, r18
    473c:	e8 0f       	add	r30, r24
    473e:	f9 1f       	adc	r31, r25
    4740:	2c e2       	ldi	r18, 0x2C	; 44
    4742:	20 83       	st	Z, r18
    4744:	d8 01       	movw	r26, r16
    4746:	1c 96       	adiw	r26, 0x0c	; 12
    4748:	ed 91       	ld	r30, X+
    474a:	fc 91       	ld	r31, X
    474c:	1d 97       	sbiw	r26, 0x0d	; 13
    474e:	20 e0       	ldi	r18, 0x00	; 0
    4750:	30 e0       	ldi	r19, 0x00	; 0
    4752:	4a e7       	ldi	r20, 0x7A	; 122
    4754:	54 e4       	ldi	r21, 0x44	; 68
    4756:	62 85       	ldd	r22, Z+10	; 0x0a
    4758:	73 85       	ldd	r23, Z+11	; 0x0b
    475a:	84 85       	ldd	r24, Z+12	; 0x0c
    475c:	95 85       	ldd	r25, Z+13	; 0x0d
    475e:	84 d7       	rcall	.+3848   	; 0x5668 <__mulsf3>
    4760:	5c d6       	rcall	.+3256   	; 0x541a <__fixsfsi>
    4762:	6b 83       	std	Y+3, r22	; 0x03
    4764:	7c 83       	std	Y+4, r23	; 0x04
    4766:	8b 81       	ldd	r24, Y+3	; 0x03
    4768:	9c 81       	ldd	r25, Y+4	; 0x04
    476a:	99 23       	and	r25, r25
    476c:	bc f4       	brge	.+46     	; 0x479c <prepareFrame+0x1abe>
    476e:	8b 81       	ldd	r24, Y+3	; 0x03
    4770:	9c 81       	ldd	r25, Y+4	; 0x04
    4772:	91 95       	neg	r25
    4774:	81 95       	neg	r24
    4776:	91 09       	sbc	r25, r1
    4778:	8b 83       	std	Y+3, r24	; 0x03
    477a:	9c 83       	std	Y+4, r25	; 0x04
    477c:	f8 01       	movw	r30, r16
    477e:	22 89       	ldd	r18, Z+18	; 0x12
    4780:	33 89       	ldd	r19, Z+19	; 0x13
    4782:	89 81       	ldd	r24, Y+1	; 0x01
    4784:	9a 81       	ldd	r25, Y+2	; 0x02
    4786:	ac 01       	movw	r20, r24
    4788:	4f 5f       	subi	r20, 0xFF	; 255
    478a:	5f 4f       	sbci	r21, 0xFF	; 255
    478c:	49 83       	std	Y+1, r20	; 0x01
    478e:	5a 83       	std	Y+2, r21	; 0x02
    4790:	f9 01       	movw	r30, r18
    4792:	e8 0f       	add	r30, r24
    4794:	f9 1f       	adc	r31, r25
    4796:	2d e2       	ldi	r18, 0x2D	; 45
    4798:	20 83       	st	Z, r18
    479a:	11 c0       	rjmp	.+34     	; 0x47be <prepareFrame+0x1ae0>
    479c:	d8 01       	movw	r26, r16
    479e:	52 96       	adiw	r26, 0x12	; 18
    47a0:	2d 91       	ld	r18, X+
    47a2:	3c 91       	ld	r19, X
    47a4:	53 97       	sbiw	r26, 0x13	; 19
    47a6:	89 81       	ldd	r24, Y+1	; 0x01
    47a8:	9a 81       	ldd	r25, Y+2	; 0x02
    47aa:	ac 01       	movw	r20, r24
    47ac:	4f 5f       	subi	r20, 0xFF	; 255
    47ae:	5f 4f       	sbci	r21, 0xFF	; 255
    47b0:	49 83       	std	Y+1, r20	; 0x01
    47b2:	5a 83       	std	Y+2, r21	; 0x02
    47b4:	f9 01       	movw	r30, r18
    47b6:	e8 0f       	add	r30, r24
    47b8:	f9 1f       	adc	r31, r25
    47ba:	2b e2       	ldi	r18, 0x2B	; 43
    47bc:	20 83       	st	Z, r18
    47be:	d8 01       	movw	r26, r16
    47c0:	52 96       	adiw	r26, 0x12	; 18
    47c2:	ed 91       	ld	r30, X+
    47c4:	fc 91       	ld	r31, X
    47c6:	53 97       	sbiw	r26, 0x13	; 19
    47c8:	29 81       	ldd	r18, Y+1	; 0x01
    47ca:	3a 81       	ldd	r19, Y+2	; 0x02
    47cc:	c9 01       	movw	r24, r18
    47ce:	01 96       	adiw	r24, 0x01	; 1
    47d0:	89 83       	std	Y+1, r24	; 0x01
    47d2:	9a 83       	std	Y+2, r25	; 0x02
    47d4:	8b 81       	ldd	r24, Y+3	; 0x03
    47d6:	9c 81       	ldd	r25, Y+4	; 0x04
    47d8:	e2 0f       	add	r30, r18
    47da:	f3 1f       	adc	r31, r19
    47dc:	60 e1       	ldi	r22, 0x10	; 16
    47de:	77 e2       	ldi	r23, 0x27	; 39
    47e0:	0e 94 59 2d 	call	0x5ab2	; 0x5ab2 <__divmodhi4>
    47e4:	cb 01       	movw	r24, r22
    47e6:	2a e0       	ldi	r18, 0x0A	; 10
    47e8:	30 e0       	ldi	r19, 0x00	; 0
    47ea:	b9 01       	movw	r22, r18
    47ec:	0e 94 59 2d 	call	0x5ab2	; 0x5ab2 <__divmodhi4>
    47f0:	80 5d       	subi	r24, 0xD0	; 208
    47f2:	80 83       	st	Z, r24
    47f4:	d8 01       	movw	r26, r16
    47f6:	52 96       	adiw	r26, 0x12	; 18
    47f8:	ed 91       	ld	r30, X+
    47fa:	fc 91       	ld	r31, X
    47fc:	53 97       	sbiw	r26, 0x13	; 19
    47fe:	49 81       	ldd	r20, Y+1	; 0x01
    4800:	5a 81       	ldd	r21, Y+2	; 0x02
    4802:	ca 01       	movw	r24, r20
    4804:	01 96       	adiw	r24, 0x01	; 1
    4806:	89 83       	std	Y+1, r24	; 0x01
    4808:	9a 83       	std	Y+2, r25	; 0x02
    480a:	8b 81       	ldd	r24, Y+3	; 0x03
    480c:	9c 81       	ldd	r25, Y+4	; 0x04
    480e:	e4 0f       	add	r30, r20
    4810:	f5 1f       	adc	r31, r21
    4812:	68 ee       	ldi	r22, 0xE8	; 232
    4814:	73 e0       	ldi	r23, 0x03	; 3
    4816:	0e 94 59 2d 	call	0x5ab2	; 0x5ab2 <__divmodhi4>
    481a:	cb 01       	movw	r24, r22
    481c:	b9 01       	movw	r22, r18
    481e:	0e 94 59 2d 	call	0x5ab2	; 0x5ab2 <__divmodhi4>
    4822:	80 5d       	subi	r24, 0xD0	; 208
    4824:	80 83       	st	Z, r24
    4826:	f8 01       	movw	r30, r16
    4828:	42 89       	ldd	r20, Z+18	; 0x12
    482a:	53 89       	ldd	r21, Z+19	; 0x13
    482c:	89 81       	ldd	r24, Y+1	; 0x01
    482e:	9a 81       	ldd	r25, Y+2	; 0x02
    4830:	bc 01       	movw	r22, r24
    4832:	6f 5f       	subi	r22, 0xFF	; 255
    4834:	7f 4f       	sbci	r23, 0xFF	; 255
    4836:	69 83       	std	Y+1, r22	; 0x01
    4838:	7a 83       	std	Y+2, r23	; 0x02
    483a:	fa 01       	movw	r30, r20
    483c:	e8 0f       	add	r30, r24
    483e:	f9 1f       	adc	r31, r25
    4840:	4e e2       	ldi	r20, 0x2E	; 46
    4842:	40 83       	st	Z, r20
    4844:	d8 01       	movw	r26, r16
    4846:	52 96       	adiw	r26, 0x12	; 18
    4848:	ed 91       	ld	r30, X+
    484a:	fc 91       	ld	r31, X
    484c:	53 97       	sbiw	r26, 0x13	; 19
    484e:	49 81       	ldd	r20, Y+1	; 0x01
    4850:	5a 81       	ldd	r21, Y+2	; 0x02
    4852:	ca 01       	movw	r24, r20
    4854:	01 96       	adiw	r24, 0x01	; 1
    4856:	89 83       	std	Y+1, r24	; 0x01
    4858:	9a 83       	std	Y+2, r25	; 0x02
    485a:	8b 81       	ldd	r24, Y+3	; 0x03
    485c:	9c 81       	ldd	r25, Y+4	; 0x04
    485e:	e4 0f       	add	r30, r20
    4860:	f5 1f       	adc	r31, r21
    4862:	64 e6       	ldi	r22, 0x64	; 100
    4864:	70 e0       	ldi	r23, 0x00	; 0
    4866:	0e 94 59 2d 	call	0x5ab2	; 0x5ab2 <__divmodhi4>
    486a:	cb 01       	movw	r24, r22
    486c:	b9 01       	movw	r22, r18
    486e:	0e 94 59 2d 	call	0x5ab2	; 0x5ab2 <__divmodhi4>
    4872:	80 5d       	subi	r24, 0xD0	; 208
    4874:	80 83       	st	Z, r24
    4876:	d8 01       	movw	r26, r16
    4878:	52 96       	adiw	r26, 0x12	; 18
    487a:	ed 91       	ld	r30, X+
    487c:	fc 91       	ld	r31, X
    487e:	53 97       	sbiw	r26, 0x13	; 19
    4880:	49 81       	ldd	r20, Y+1	; 0x01
    4882:	5a 81       	ldd	r21, Y+2	; 0x02
    4884:	ca 01       	movw	r24, r20
    4886:	01 96       	adiw	r24, 0x01	; 1
    4888:	89 83       	std	Y+1, r24	; 0x01
    488a:	9a 83       	std	Y+2, r25	; 0x02
    488c:	8b 81       	ldd	r24, Y+3	; 0x03
    488e:	9c 81       	ldd	r25, Y+4	; 0x04
    4890:	e4 0f       	add	r30, r20
    4892:	f5 1f       	adc	r31, r21
    4894:	b9 01       	movw	r22, r18
    4896:	0e 94 59 2d 	call	0x5ab2	; 0x5ab2 <__divmodhi4>
    489a:	cb 01       	movw	r24, r22
    489c:	b9 01       	movw	r22, r18
    489e:	0e 94 59 2d 	call	0x5ab2	; 0x5ab2 <__divmodhi4>
    48a2:	80 5d       	subi	r24, 0xD0	; 208
    48a4:	80 83       	st	Z, r24
    48a6:	d8 01       	movw	r26, r16
    48a8:	52 96       	adiw	r26, 0x12	; 18
    48aa:	ed 91       	ld	r30, X+
    48ac:	fc 91       	ld	r31, X
    48ae:	53 97       	sbiw	r26, 0x13	; 19
    48b0:	49 81       	ldd	r20, Y+1	; 0x01
    48b2:	5a 81       	ldd	r21, Y+2	; 0x02
    48b4:	ca 01       	movw	r24, r20
    48b6:	01 96       	adiw	r24, 0x01	; 1
    48b8:	89 83       	std	Y+1, r24	; 0x01
    48ba:	9a 83       	std	Y+2, r25	; 0x02
    48bc:	8b 81       	ldd	r24, Y+3	; 0x03
    48be:	9c 81       	ldd	r25, Y+4	; 0x04
    48c0:	e4 0f       	add	r30, r20
    48c2:	f5 1f       	adc	r31, r21
    48c4:	b9 01       	movw	r22, r18
    48c6:	0e 94 59 2d 	call	0x5ab2	; 0x5ab2 <__divmodhi4>
    48ca:	80 5d       	subi	r24, 0xD0	; 208
    48cc:	80 83       	st	Z, r24
    48ce:	f8 01       	movw	r30, r16
    48d0:	22 89       	ldd	r18, Z+18	; 0x12
    48d2:	33 89       	ldd	r19, Z+19	; 0x13
    48d4:	89 81       	ldd	r24, Y+1	; 0x01
    48d6:	9a 81       	ldd	r25, Y+2	; 0x02
    48d8:	ac 01       	movw	r20, r24
    48da:	4f 5f       	subi	r20, 0xFF	; 255
    48dc:	5f 4f       	sbci	r21, 0xFF	; 255
    48de:	49 83       	std	Y+1, r20	; 0x01
    48e0:	5a 83       	std	Y+2, r21	; 0x02
    48e2:	f9 01       	movw	r30, r18
    48e4:	e8 0f       	add	r30, r24
    48e6:	f9 1f       	adc	r31, r25
    48e8:	2c e2       	ldi	r18, 0x2C	; 44
    48ea:	20 83       	st	Z, r18
    48ec:	d8 01       	movw	r26, r16
    48ee:	12 96       	adiw	r26, 0x02	; 2
    48f0:	ed 91       	ld	r30, X+
    48f2:	fc 91       	ld	r31, X
    48f4:	13 97       	sbiw	r26, 0x03	; 3
    48f6:	20 e0       	ldi	r18, 0x00	; 0
    48f8:	30 e0       	ldi	r19, 0x00	; 0
    48fa:	4a e7       	ldi	r20, 0x7A	; 122
    48fc:	54 e4       	ldi	r21, 0x44	; 68
    48fe:	60 8d       	ldd	r22, Z+24	; 0x18
    4900:	71 8d       	ldd	r23, Z+25	; 0x19
    4902:	82 8d       	ldd	r24, Z+26	; 0x1a
    4904:	93 8d       	ldd	r25, Z+27	; 0x1b
    4906:	b0 d6       	rcall	.+3424   	; 0x5668 <__mulsf3>
    4908:	88 d5       	rcall	.+2832   	; 0x541a <__fixsfsi>
    490a:	6b 83       	std	Y+3, r22	; 0x03
    490c:	7c 83       	std	Y+4, r23	; 0x04
    490e:	8b 81       	ldd	r24, Y+3	; 0x03
    4910:	9c 81       	ldd	r25, Y+4	; 0x04
    4912:	99 23       	and	r25, r25
    4914:	bc f4       	brge	.+46     	; 0x4944 <prepareFrame+0x1c66>
    4916:	8b 81       	ldd	r24, Y+3	; 0x03
    4918:	9c 81       	ldd	r25, Y+4	; 0x04
    491a:	91 95       	neg	r25
    491c:	81 95       	neg	r24
    491e:	91 09       	sbc	r25, r1
    4920:	8b 83       	std	Y+3, r24	; 0x03
    4922:	9c 83       	std	Y+4, r25	; 0x04
    4924:	f8 01       	movw	r30, r16
    4926:	22 89       	ldd	r18, Z+18	; 0x12
    4928:	33 89       	ldd	r19, Z+19	; 0x13
    492a:	89 81       	ldd	r24, Y+1	; 0x01
    492c:	9a 81       	ldd	r25, Y+2	; 0x02
    492e:	ac 01       	movw	r20, r24
    4930:	4f 5f       	subi	r20, 0xFF	; 255
    4932:	5f 4f       	sbci	r21, 0xFF	; 255
    4934:	49 83       	std	Y+1, r20	; 0x01
    4936:	5a 83       	std	Y+2, r21	; 0x02
    4938:	f9 01       	movw	r30, r18
    493a:	e8 0f       	add	r30, r24
    493c:	f9 1f       	adc	r31, r25
    493e:	2d e2       	ldi	r18, 0x2D	; 45
    4940:	20 83       	st	Z, r18
    4942:	11 c0       	rjmp	.+34     	; 0x4966 <prepareFrame+0x1c88>
    4944:	d8 01       	movw	r26, r16
    4946:	52 96       	adiw	r26, 0x12	; 18
    4948:	2d 91       	ld	r18, X+
    494a:	3c 91       	ld	r19, X
    494c:	53 97       	sbiw	r26, 0x13	; 19
    494e:	89 81       	ldd	r24, Y+1	; 0x01
    4950:	9a 81       	ldd	r25, Y+2	; 0x02
    4952:	ac 01       	movw	r20, r24
    4954:	4f 5f       	subi	r20, 0xFF	; 255
    4956:	5f 4f       	sbci	r21, 0xFF	; 255
    4958:	49 83       	std	Y+1, r20	; 0x01
    495a:	5a 83       	std	Y+2, r21	; 0x02
    495c:	f9 01       	movw	r30, r18
    495e:	e8 0f       	add	r30, r24
    4960:	f9 1f       	adc	r31, r25
    4962:	2b e2       	ldi	r18, 0x2B	; 43
    4964:	20 83       	st	Z, r18
    4966:	d8 01       	movw	r26, r16
    4968:	52 96       	adiw	r26, 0x12	; 18
    496a:	ed 91       	ld	r30, X+
    496c:	fc 91       	ld	r31, X
    496e:	53 97       	sbiw	r26, 0x13	; 19
    4970:	29 81       	ldd	r18, Y+1	; 0x01
    4972:	3a 81       	ldd	r19, Y+2	; 0x02
    4974:	c9 01       	movw	r24, r18
    4976:	01 96       	adiw	r24, 0x01	; 1
    4978:	89 83       	std	Y+1, r24	; 0x01
    497a:	9a 83       	std	Y+2, r25	; 0x02
    497c:	8b 81       	ldd	r24, Y+3	; 0x03
    497e:	9c 81       	ldd	r25, Y+4	; 0x04
    4980:	e2 0f       	add	r30, r18
    4982:	f3 1f       	adc	r31, r19
    4984:	60 e1       	ldi	r22, 0x10	; 16
    4986:	77 e2       	ldi	r23, 0x27	; 39
    4988:	0e 94 59 2d 	call	0x5ab2	; 0x5ab2 <__divmodhi4>
    498c:	cb 01       	movw	r24, r22
    498e:	2a e0       	ldi	r18, 0x0A	; 10
    4990:	30 e0       	ldi	r19, 0x00	; 0
    4992:	b9 01       	movw	r22, r18
    4994:	0e 94 59 2d 	call	0x5ab2	; 0x5ab2 <__divmodhi4>
    4998:	80 5d       	subi	r24, 0xD0	; 208
    499a:	80 83       	st	Z, r24
    499c:	d8 01       	movw	r26, r16
    499e:	52 96       	adiw	r26, 0x12	; 18
    49a0:	ed 91       	ld	r30, X+
    49a2:	fc 91       	ld	r31, X
    49a4:	53 97       	sbiw	r26, 0x13	; 19
    49a6:	49 81       	ldd	r20, Y+1	; 0x01
    49a8:	5a 81       	ldd	r21, Y+2	; 0x02
    49aa:	ca 01       	movw	r24, r20
    49ac:	01 96       	adiw	r24, 0x01	; 1
    49ae:	89 83       	std	Y+1, r24	; 0x01
    49b0:	9a 83       	std	Y+2, r25	; 0x02
    49b2:	8b 81       	ldd	r24, Y+3	; 0x03
    49b4:	9c 81       	ldd	r25, Y+4	; 0x04
    49b6:	e4 0f       	add	r30, r20
    49b8:	f5 1f       	adc	r31, r21
    49ba:	68 ee       	ldi	r22, 0xE8	; 232
    49bc:	73 e0       	ldi	r23, 0x03	; 3
    49be:	0e 94 59 2d 	call	0x5ab2	; 0x5ab2 <__divmodhi4>
    49c2:	cb 01       	movw	r24, r22
    49c4:	b9 01       	movw	r22, r18
    49c6:	0e 94 59 2d 	call	0x5ab2	; 0x5ab2 <__divmodhi4>
    49ca:	80 5d       	subi	r24, 0xD0	; 208
    49cc:	80 83       	st	Z, r24
    49ce:	f8 01       	movw	r30, r16
    49d0:	42 89       	ldd	r20, Z+18	; 0x12
    49d2:	53 89       	ldd	r21, Z+19	; 0x13
    49d4:	89 81       	ldd	r24, Y+1	; 0x01
    49d6:	9a 81       	ldd	r25, Y+2	; 0x02
    49d8:	bc 01       	movw	r22, r24
    49da:	6f 5f       	subi	r22, 0xFF	; 255
    49dc:	7f 4f       	sbci	r23, 0xFF	; 255
    49de:	69 83       	std	Y+1, r22	; 0x01
    49e0:	7a 83       	std	Y+2, r23	; 0x02
    49e2:	fa 01       	movw	r30, r20
    49e4:	e8 0f       	add	r30, r24
    49e6:	f9 1f       	adc	r31, r25
    49e8:	4e e2       	ldi	r20, 0x2E	; 46
    49ea:	40 83       	st	Z, r20
    49ec:	d8 01       	movw	r26, r16
    49ee:	52 96       	adiw	r26, 0x12	; 18
    49f0:	ed 91       	ld	r30, X+
    49f2:	fc 91       	ld	r31, X
    49f4:	53 97       	sbiw	r26, 0x13	; 19
    49f6:	49 81       	ldd	r20, Y+1	; 0x01
    49f8:	5a 81       	ldd	r21, Y+2	; 0x02
    49fa:	ca 01       	movw	r24, r20
    49fc:	01 96       	adiw	r24, 0x01	; 1
    49fe:	89 83       	std	Y+1, r24	; 0x01
    4a00:	9a 83       	std	Y+2, r25	; 0x02
    4a02:	8b 81       	ldd	r24, Y+3	; 0x03
    4a04:	9c 81       	ldd	r25, Y+4	; 0x04
    4a06:	e4 0f       	add	r30, r20
    4a08:	f5 1f       	adc	r31, r21
    4a0a:	64 e6       	ldi	r22, 0x64	; 100
    4a0c:	70 e0       	ldi	r23, 0x00	; 0
    4a0e:	0e 94 59 2d 	call	0x5ab2	; 0x5ab2 <__divmodhi4>
    4a12:	cb 01       	movw	r24, r22
    4a14:	b9 01       	movw	r22, r18
    4a16:	0e 94 59 2d 	call	0x5ab2	; 0x5ab2 <__divmodhi4>
    4a1a:	80 5d       	subi	r24, 0xD0	; 208
    4a1c:	80 83       	st	Z, r24
    4a1e:	d8 01       	movw	r26, r16
    4a20:	52 96       	adiw	r26, 0x12	; 18
    4a22:	ed 91       	ld	r30, X+
    4a24:	fc 91       	ld	r31, X
    4a26:	53 97       	sbiw	r26, 0x13	; 19
    4a28:	49 81       	ldd	r20, Y+1	; 0x01
    4a2a:	5a 81       	ldd	r21, Y+2	; 0x02
    4a2c:	ca 01       	movw	r24, r20
    4a2e:	01 96       	adiw	r24, 0x01	; 1
    4a30:	89 83       	std	Y+1, r24	; 0x01
    4a32:	9a 83       	std	Y+2, r25	; 0x02
    4a34:	8b 81       	ldd	r24, Y+3	; 0x03
    4a36:	9c 81       	ldd	r25, Y+4	; 0x04
    4a38:	e4 0f       	add	r30, r20
    4a3a:	f5 1f       	adc	r31, r21
    4a3c:	b9 01       	movw	r22, r18
    4a3e:	0e 94 59 2d 	call	0x5ab2	; 0x5ab2 <__divmodhi4>
    4a42:	cb 01       	movw	r24, r22
    4a44:	b9 01       	movw	r22, r18
    4a46:	0e 94 59 2d 	call	0x5ab2	; 0x5ab2 <__divmodhi4>
    4a4a:	80 5d       	subi	r24, 0xD0	; 208
    4a4c:	80 83       	st	Z, r24
    4a4e:	d8 01       	movw	r26, r16
    4a50:	52 96       	adiw	r26, 0x12	; 18
    4a52:	ed 91       	ld	r30, X+
    4a54:	fc 91       	ld	r31, X
    4a56:	53 97       	sbiw	r26, 0x13	; 19
    4a58:	49 81       	ldd	r20, Y+1	; 0x01
    4a5a:	5a 81       	ldd	r21, Y+2	; 0x02
    4a5c:	ca 01       	movw	r24, r20
    4a5e:	01 96       	adiw	r24, 0x01	; 1
    4a60:	89 83       	std	Y+1, r24	; 0x01
    4a62:	9a 83       	std	Y+2, r25	; 0x02
    4a64:	8b 81       	ldd	r24, Y+3	; 0x03
    4a66:	9c 81       	ldd	r25, Y+4	; 0x04
    4a68:	e4 0f       	add	r30, r20
    4a6a:	f5 1f       	adc	r31, r21
    4a6c:	b9 01       	movw	r22, r18
    4a6e:	0e 94 59 2d 	call	0x5ab2	; 0x5ab2 <__divmodhi4>
    4a72:	80 5d       	subi	r24, 0xD0	; 208
    4a74:	80 83       	st	Z, r24
    4a76:	f8 01       	movw	r30, r16
    4a78:	22 89       	ldd	r18, Z+18	; 0x12
    4a7a:	33 89       	ldd	r19, Z+19	; 0x13
    4a7c:	89 81       	ldd	r24, Y+1	; 0x01
    4a7e:	9a 81       	ldd	r25, Y+2	; 0x02
    4a80:	ac 01       	movw	r20, r24
    4a82:	4f 5f       	subi	r20, 0xFF	; 255
    4a84:	5f 4f       	sbci	r21, 0xFF	; 255
    4a86:	49 83       	std	Y+1, r20	; 0x01
    4a88:	5a 83       	std	Y+2, r21	; 0x02
    4a8a:	f9 01       	movw	r30, r18
    4a8c:	e8 0f       	add	r30, r24
    4a8e:	f9 1f       	adc	r31, r25
    4a90:	2c e2       	ldi	r18, 0x2C	; 44
    4a92:	20 83       	st	Z, r18
    4a94:	d8 01       	movw	r26, r16
    4a96:	ed 91       	ld	r30, X+
    4a98:	fc 91       	ld	r31, X
    4a9a:	20 e0       	ldi	r18, 0x00	; 0
    4a9c:	30 e0       	ldi	r19, 0x00	; 0
    4a9e:	40 e2       	ldi	r20, 0x20	; 32
    4aa0:	51 e4       	ldi	r21, 0x41	; 65
    4aa2:	64 a1       	ldd	r22, Z+36	; 0x24
    4aa4:	75 a1       	ldd	r23, Z+37	; 0x25
    4aa6:	86 a1       	ldd	r24, Z+38	; 0x26
    4aa8:	97 a1       	ldd	r25, Z+39	; 0x27
    4aaa:	de d5       	rcall	.+3004   	; 0x5668 <__mulsf3>
    4aac:	b6 d4       	rcall	.+2412   	; 0x541a <__fixsfsi>
    4aae:	6b 83       	std	Y+3, r22	; 0x03
    4ab0:	7c 83       	std	Y+4, r23	; 0x04
    4ab2:	8b 81       	ldd	r24, Y+3	; 0x03
    4ab4:	9c 81       	ldd	r25, Y+4	; 0x04
    4ab6:	99 23       	and	r25, r25
    4ab8:	bc f4       	brge	.+46     	; 0x4ae8 <prepareFrame+0x1e0a>
    4aba:	8b 81       	ldd	r24, Y+3	; 0x03
    4abc:	9c 81       	ldd	r25, Y+4	; 0x04
    4abe:	91 95       	neg	r25
    4ac0:	81 95       	neg	r24
    4ac2:	91 09       	sbc	r25, r1
    4ac4:	8b 83       	std	Y+3, r24	; 0x03
    4ac6:	9c 83       	std	Y+4, r25	; 0x04
    4ac8:	f8 01       	movw	r30, r16
    4aca:	22 89       	ldd	r18, Z+18	; 0x12
    4acc:	33 89       	ldd	r19, Z+19	; 0x13
    4ace:	89 81       	ldd	r24, Y+1	; 0x01
    4ad0:	9a 81       	ldd	r25, Y+2	; 0x02
    4ad2:	ac 01       	movw	r20, r24
    4ad4:	4f 5f       	subi	r20, 0xFF	; 255
    4ad6:	5f 4f       	sbci	r21, 0xFF	; 255
    4ad8:	49 83       	std	Y+1, r20	; 0x01
    4ada:	5a 83       	std	Y+2, r21	; 0x02
    4adc:	f9 01       	movw	r30, r18
    4ade:	e8 0f       	add	r30, r24
    4ae0:	f9 1f       	adc	r31, r25
    4ae2:	2d e2       	ldi	r18, 0x2D	; 45
    4ae4:	20 83       	st	Z, r18
    4ae6:	11 c0       	rjmp	.+34     	; 0x4b0a <prepareFrame+0x1e2c>
    4ae8:	d8 01       	movw	r26, r16
    4aea:	52 96       	adiw	r26, 0x12	; 18
    4aec:	2d 91       	ld	r18, X+
    4aee:	3c 91       	ld	r19, X
    4af0:	53 97       	sbiw	r26, 0x13	; 19
    4af2:	89 81       	ldd	r24, Y+1	; 0x01
    4af4:	9a 81       	ldd	r25, Y+2	; 0x02
    4af6:	ac 01       	movw	r20, r24
    4af8:	4f 5f       	subi	r20, 0xFF	; 255
    4afa:	5f 4f       	sbci	r21, 0xFF	; 255
    4afc:	49 83       	std	Y+1, r20	; 0x01
    4afe:	5a 83       	std	Y+2, r21	; 0x02
    4b00:	f9 01       	movw	r30, r18
    4b02:	e8 0f       	add	r30, r24
    4b04:	f9 1f       	adc	r31, r25
    4b06:	2b e2       	ldi	r18, 0x2B	; 43
    4b08:	20 83       	st	Z, r18
    4b0a:	d8 01       	movw	r26, r16
    4b0c:	52 96       	adiw	r26, 0x12	; 18
    4b0e:	ed 91       	ld	r30, X+
    4b10:	fc 91       	ld	r31, X
    4b12:	53 97       	sbiw	r26, 0x13	; 19
    4b14:	29 81       	ldd	r18, Y+1	; 0x01
    4b16:	3a 81       	ldd	r19, Y+2	; 0x02
    4b18:	c9 01       	movw	r24, r18
    4b1a:	01 96       	adiw	r24, 0x01	; 1
    4b1c:	89 83       	std	Y+1, r24	; 0x01
    4b1e:	9a 83       	std	Y+2, r25	; 0x02
    4b20:	8b 81       	ldd	r24, Y+3	; 0x03
    4b22:	9c 81       	ldd	r25, Y+4	; 0x04
    4b24:	e2 0f       	add	r30, r18
    4b26:	f3 1f       	adc	r31, r19
    4b28:	60 e1       	ldi	r22, 0x10	; 16
    4b2a:	77 e2       	ldi	r23, 0x27	; 39
    4b2c:	c2 d7       	rcall	.+3972   	; 0x5ab2 <__divmodhi4>
    4b2e:	cb 01       	movw	r24, r22
    4b30:	2a e0       	ldi	r18, 0x0A	; 10
    4b32:	30 e0       	ldi	r19, 0x00	; 0
    4b34:	b9 01       	movw	r22, r18
    4b36:	bd d7       	rcall	.+3962   	; 0x5ab2 <__divmodhi4>
    4b38:	80 5d       	subi	r24, 0xD0	; 208
    4b3a:	80 83       	st	Z, r24
    4b3c:	d8 01       	movw	r26, r16
    4b3e:	52 96       	adiw	r26, 0x12	; 18
    4b40:	ed 91       	ld	r30, X+
    4b42:	fc 91       	ld	r31, X
    4b44:	53 97       	sbiw	r26, 0x13	; 19
    4b46:	49 81       	ldd	r20, Y+1	; 0x01
    4b48:	5a 81       	ldd	r21, Y+2	; 0x02
    4b4a:	ca 01       	movw	r24, r20
    4b4c:	01 96       	adiw	r24, 0x01	; 1
    4b4e:	89 83       	std	Y+1, r24	; 0x01
    4b50:	9a 83       	std	Y+2, r25	; 0x02
    4b52:	8b 81       	ldd	r24, Y+3	; 0x03
    4b54:	9c 81       	ldd	r25, Y+4	; 0x04
    4b56:	e4 0f       	add	r30, r20
    4b58:	f5 1f       	adc	r31, r21
    4b5a:	68 ee       	ldi	r22, 0xE8	; 232
    4b5c:	73 e0       	ldi	r23, 0x03	; 3
    4b5e:	a9 d7       	rcall	.+3922   	; 0x5ab2 <__divmodhi4>
    4b60:	cb 01       	movw	r24, r22
    4b62:	b9 01       	movw	r22, r18
    4b64:	a6 d7       	rcall	.+3916   	; 0x5ab2 <__divmodhi4>
    4b66:	80 5d       	subi	r24, 0xD0	; 208
    4b68:	80 83       	st	Z, r24
    4b6a:	d8 01       	movw	r26, r16
    4b6c:	52 96       	adiw	r26, 0x12	; 18
    4b6e:	ed 91       	ld	r30, X+
    4b70:	fc 91       	ld	r31, X
    4b72:	53 97       	sbiw	r26, 0x13	; 19
    4b74:	49 81       	ldd	r20, Y+1	; 0x01
    4b76:	5a 81       	ldd	r21, Y+2	; 0x02
    4b78:	ca 01       	movw	r24, r20
    4b7a:	01 96       	adiw	r24, 0x01	; 1
    4b7c:	89 83       	std	Y+1, r24	; 0x01
    4b7e:	9a 83       	std	Y+2, r25	; 0x02
    4b80:	8b 81       	ldd	r24, Y+3	; 0x03
    4b82:	9c 81       	ldd	r25, Y+4	; 0x04
    4b84:	e4 0f       	add	r30, r20
    4b86:	f5 1f       	adc	r31, r21
    4b88:	64 e6       	ldi	r22, 0x64	; 100
    4b8a:	70 e0       	ldi	r23, 0x00	; 0
    4b8c:	92 d7       	rcall	.+3876   	; 0x5ab2 <__divmodhi4>
    4b8e:	cb 01       	movw	r24, r22
    4b90:	b9 01       	movw	r22, r18
    4b92:	8f d7       	rcall	.+3870   	; 0x5ab2 <__divmodhi4>
    4b94:	80 5d       	subi	r24, 0xD0	; 208
    4b96:	80 83       	st	Z, r24
    4b98:	d8 01       	movw	r26, r16
    4b9a:	52 96       	adiw	r26, 0x12	; 18
    4b9c:	ed 91       	ld	r30, X+
    4b9e:	fc 91       	ld	r31, X
    4ba0:	53 97       	sbiw	r26, 0x13	; 19
    4ba2:	49 81       	ldd	r20, Y+1	; 0x01
    4ba4:	5a 81       	ldd	r21, Y+2	; 0x02
    4ba6:	ca 01       	movw	r24, r20
    4ba8:	01 96       	adiw	r24, 0x01	; 1
    4baa:	89 83       	std	Y+1, r24	; 0x01
    4bac:	9a 83       	std	Y+2, r25	; 0x02
    4bae:	8b 81       	ldd	r24, Y+3	; 0x03
    4bb0:	9c 81       	ldd	r25, Y+4	; 0x04
    4bb2:	e4 0f       	add	r30, r20
    4bb4:	f5 1f       	adc	r31, r21
    4bb6:	b9 01       	movw	r22, r18
    4bb8:	7c d7       	rcall	.+3832   	; 0x5ab2 <__divmodhi4>
    4bba:	cb 01       	movw	r24, r22
    4bbc:	b9 01       	movw	r22, r18
    4bbe:	79 d7       	rcall	.+3826   	; 0x5ab2 <__divmodhi4>
    4bc0:	80 5d       	subi	r24, 0xD0	; 208
    4bc2:	80 83       	st	Z, r24
    4bc4:	f8 01       	movw	r30, r16
    4bc6:	42 89       	ldd	r20, Z+18	; 0x12
    4bc8:	53 89       	ldd	r21, Z+19	; 0x13
    4bca:	89 81       	ldd	r24, Y+1	; 0x01
    4bcc:	9a 81       	ldd	r25, Y+2	; 0x02
    4bce:	bc 01       	movw	r22, r24
    4bd0:	6f 5f       	subi	r22, 0xFF	; 255
    4bd2:	7f 4f       	sbci	r23, 0xFF	; 255
    4bd4:	69 83       	std	Y+1, r22	; 0x01
    4bd6:	7a 83       	std	Y+2, r23	; 0x02
    4bd8:	fa 01       	movw	r30, r20
    4bda:	e8 0f       	add	r30, r24
    4bdc:	f9 1f       	adc	r31, r25
    4bde:	4e e2       	ldi	r20, 0x2E	; 46
    4be0:	40 83       	st	Z, r20
    4be2:	d8 01       	movw	r26, r16
    4be4:	52 96       	adiw	r26, 0x12	; 18
    4be6:	ed 91       	ld	r30, X+
    4be8:	fc 91       	ld	r31, X
    4bea:	53 97       	sbiw	r26, 0x13	; 19
    4bec:	49 81       	ldd	r20, Y+1	; 0x01
    4bee:	5a 81       	ldd	r21, Y+2	; 0x02
    4bf0:	ca 01       	movw	r24, r20
    4bf2:	01 96       	adiw	r24, 0x01	; 1
    4bf4:	89 83       	std	Y+1, r24	; 0x01
    4bf6:	9a 83       	std	Y+2, r25	; 0x02
    4bf8:	8b 81       	ldd	r24, Y+3	; 0x03
    4bfa:	9c 81       	ldd	r25, Y+4	; 0x04
    4bfc:	e4 0f       	add	r30, r20
    4bfe:	f5 1f       	adc	r31, r21
    4c00:	b9 01       	movw	r22, r18
    4c02:	57 d7       	rcall	.+3758   	; 0x5ab2 <__divmodhi4>
    4c04:	80 5d       	subi	r24, 0xD0	; 208
    4c06:	80 83       	st	Z, r24
    4c08:	f8 01       	movw	r30, r16
    4c0a:	22 89       	ldd	r18, Z+18	; 0x12
    4c0c:	33 89       	ldd	r19, Z+19	; 0x13
    4c0e:	89 81       	ldd	r24, Y+1	; 0x01
    4c10:	9a 81       	ldd	r25, Y+2	; 0x02
    4c12:	ac 01       	movw	r20, r24
    4c14:	4f 5f       	subi	r20, 0xFF	; 255
    4c16:	5f 4f       	sbci	r21, 0xFF	; 255
    4c18:	49 83       	std	Y+1, r20	; 0x01
    4c1a:	5a 83       	std	Y+2, r21	; 0x02
    4c1c:	f9 01       	movw	r30, r18
    4c1e:	e8 0f       	add	r30, r24
    4c20:	f9 1f       	adc	r31, r25
    4c22:	2c e2       	ldi	r18, 0x2C	; 44
    4c24:	20 83       	st	Z, r18
    4c26:	d8 01       	movw	r26, r16
    4c28:	ed 91       	ld	r30, X+
    4c2a:	fc 91       	ld	r31, X
    4c2c:	20 e0       	ldi	r18, 0x00	; 0
    4c2e:	30 e0       	ldi	r19, 0x00	; 0
    4c30:	40 e2       	ldi	r20, 0x20	; 32
    4c32:	51 e4       	ldi	r21, 0x41	; 65
    4c34:	64 a5       	ldd	r22, Z+44	; 0x2c
    4c36:	75 a5       	ldd	r23, Z+45	; 0x2d
    4c38:	86 a5       	ldd	r24, Z+46	; 0x2e
    4c3a:	97 a5       	ldd	r25, Z+47	; 0x2f
    4c3c:	15 d5       	rcall	.+2602   	; 0x5668 <__mulsf3>
    4c3e:	ed d3       	rcall	.+2010   	; 0x541a <__fixsfsi>
    4c40:	6b 83       	std	Y+3, r22	; 0x03
    4c42:	7c 83       	std	Y+4, r23	; 0x04
    4c44:	8b 81       	ldd	r24, Y+3	; 0x03
    4c46:	9c 81       	ldd	r25, Y+4	; 0x04
    4c48:	99 23       	and	r25, r25
    4c4a:	bc f4       	brge	.+46     	; 0x4c7a <prepareFrame+0x1f9c>
    4c4c:	8b 81       	ldd	r24, Y+3	; 0x03
    4c4e:	9c 81       	ldd	r25, Y+4	; 0x04
    4c50:	91 95       	neg	r25
    4c52:	81 95       	neg	r24
    4c54:	91 09       	sbc	r25, r1
    4c56:	8b 83       	std	Y+3, r24	; 0x03
    4c58:	9c 83       	std	Y+4, r25	; 0x04
    4c5a:	f8 01       	movw	r30, r16
    4c5c:	22 89       	ldd	r18, Z+18	; 0x12
    4c5e:	33 89       	ldd	r19, Z+19	; 0x13
    4c60:	89 81       	ldd	r24, Y+1	; 0x01
    4c62:	9a 81       	ldd	r25, Y+2	; 0x02
    4c64:	ac 01       	movw	r20, r24
    4c66:	4f 5f       	subi	r20, 0xFF	; 255
    4c68:	5f 4f       	sbci	r21, 0xFF	; 255
    4c6a:	49 83       	std	Y+1, r20	; 0x01
    4c6c:	5a 83       	std	Y+2, r21	; 0x02
    4c6e:	f9 01       	movw	r30, r18
    4c70:	e8 0f       	add	r30, r24
    4c72:	f9 1f       	adc	r31, r25
    4c74:	2d e2       	ldi	r18, 0x2D	; 45
    4c76:	20 83       	st	Z, r18
    4c78:	11 c0       	rjmp	.+34     	; 0x4c9c <prepareFrame+0x1fbe>
    4c7a:	d8 01       	movw	r26, r16
    4c7c:	52 96       	adiw	r26, 0x12	; 18
    4c7e:	2d 91       	ld	r18, X+
    4c80:	3c 91       	ld	r19, X
    4c82:	53 97       	sbiw	r26, 0x13	; 19
    4c84:	89 81       	ldd	r24, Y+1	; 0x01
    4c86:	9a 81       	ldd	r25, Y+2	; 0x02
    4c88:	ac 01       	movw	r20, r24
    4c8a:	4f 5f       	subi	r20, 0xFF	; 255
    4c8c:	5f 4f       	sbci	r21, 0xFF	; 255
    4c8e:	49 83       	std	Y+1, r20	; 0x01
    4c90:	5a 83       	std	Y+2, r21	; 0x02
    4c92:	f9 01       	movw	r30, r18
    4c94:	e8 0f       	add	r30, r24
    4c96:	f9 1f       	adc	r31, r25
    4c98:	2b e2       	ldi	r18, 0x2B	; 43
    4c9a:	20 83       	st	Z, r18
    4c9c:	d8 01       	movw	r26, r16
    4c9e:	52 96       	adiw	r26, 0x12	; 18
    4ca0:	ed 91       	ld	r30, X+
    4ca2:	fc 91       	ld	r31, X
    4ca4:	53 97       	sbiw	r26, 0x13	; 19
    4ca6:	29 81       	ldd	r18, Y+1	; 0x01
    4ca8:	3a 81       	ldd	r19, Y+2	; 0x02
    4caa:	c9 01       	movw	r24, r18
    4cac:	01 96       	adiw	r24, 0x01	; 1
    4cae:	89 83       	std	Y+1, r24	; 0x01
    4cb0:	9a 83       	std	Y+2, r25	; 0x02
    4cb2:	8b 81       	ldd	r24, Y+3	; 0x03
    4cb4:	9c 81       	ldd	r25, Y+4	; 0x04
    4cb6:	e2 0f       	add	r30, r18
    4cb8:	f3 1f       	adc	r31, r19
    4cba:	60 e1       	ldi	r22, 0x10	; 16
    4cbc:	77 e2       	ldi	r23, 0x27	; 39
    4cbe:	f9 d6       	rcall	.+3570   	; 0x5ab2 <__divmodhi4>
    4cc0:	cb 01       	movw	r24, r22
    4cc2:	2a e0       	ldi	r18, 0x0A	; 10
    4cc4:	30 e0       	ldi	r19, 0x00	; 0
    4cc6:	b9 01       	movw	r22, r18
    4cc8:	f4 d6       	rcall	.+3560   	; 0x5ab2 <__divmodhi4>
    4cca:	80 5d       	subi	r24, 0xD0	; 208
    4ccc:	80 83       	st	Z, r24
    4cce:	d8 01       	movw	r26, r16
    4cd0:	52 96       	adiw	r26, 0x12	; 18
    4cd2:	ed 91       	ld	r30, X+
    4cd4:	fc 91       	ld	r31, X
    4cd6:	53 97       	sbiw	r26, 0x13	; 19
    4cd8:	49 81       	ldd	r20, Y+1	; 0x01
    4cda:	5a 81       	ldd	r21, Y+2	; 0x02
    4cdc:	ca 01       	movw	r24, r20
    4cde:	01 96       	adiw	r24, 0x01	; 1
    4ce0:	89 83       	std	Y+1, r24	; 0x01
    4ce2:	9a 83       	std	Y+2, r25	; 0x02
    4ce4:	8b 81       	ldd	r24, Y+3	; 0x03
    4ce6:	9c 81       	ldd	r25, Y+4	; 0x04
    4ce8:	e4 0f       	add	r30, r20
    4cea:	f5 1f       	adc	r31, r21
    4cec:	68 ee       	ldi	r22, 0xE8	; 232
    4cee:	73 e0       	ldi	r23, 0x03	; 3
    4cf0:	e0 d6       	rcall	.+3520   	; 0x5ab2 <__divmodhi4>
    4cf2:	cb 01       	movw	r24, r22
    4cf4:	b9 01       	movw	r22, r18
    4cf6:	dd d6       	rcall	.+3514   	; 0x5ab2 <__divmodhi4>
    4cf8:	80 5d       	subi	r24, 0xD0	; 208
    4cfa:	80 83       	st	Z, r24
    4cfc:	d8 01       	movw	r26, r16
    4cfe:	52 96       	adiw	r26, 0x12	; 18
    4d00:	ed 91       	ld	r30, X+
    4d02:	fc 91       	ld	r31, X
    4d04:	53 97       	sbiw	r26, 0x13	; 19
    4d06:	49 81       	ldd	r20, Y+1	; 0x01
    4d08:	5a 81       	ldd	r21, Y+2	; 0x02
    4d0a:	ca 01       	movw	r24, r20
    4d0c:	01 96       	adiw	r24, 0x01	; 1
    4d0e:	89 83       	std	Y+1, r24	; 0x01
    4d10:	9a 83       	std	Y+2, r25	; 0x02
    4d12:	8b 81       	ldd	r24, Y+3	; 0x03
    4d14:	9c 81       	ldd	r25, Y+4	; 0x04
    4d16:	e4 0f       	add	r30, r20
    4d18:	f5 1f       	adc	r31, r21
    4d1a:	64 e6       	ldi	r22, 0x64	; 100
    4d1c:	70 e0       	ldi	r23, 0x00	; 0
    4d1e:	c9 d6       	rcall	.+3474   	; 0x5ab2 <__divmodhi4>
    4d20:	cb 01       	movw	r24, r22
    4d22:	b9 01       	movw	r22, r18
    4d24:	c6 d6       	rcall	.+3468   	; 0x5ab2 <__divmodhi4>
    4d26:	80 5d       	subi	r24, 0xD0	; 208
    4d28:	80 83       	st	Z, r24
    4d2a:	d8 01       	movw	r26, r16
    4d2c:	52 96       	adiw	r26, 0x12	; 18
    4d2e:	ed 91       	ld	r30, X+
    4d30:	fc 91       	ld	r31, X
    4d32:	53 97       	sbiw	r26, 0x13	; 19
    4d34:	49 81       	ldd	r20, Y+1	; 0x01
    4d36:	5a 81       	ldd	r21, Y+2	; 0x02
    4d38:	ca 01       	movw	r24, r20
    4d3a:	01 96       	adiw	r24, 0x01	; 1
    4d3c:	89 83       	std	Y+1, r24	; 0x01
    4d3e:	9a 83       	std	Y+2, r25	; 0x02
    4d40:	8b 81       	ldd	r24, Y+3	; 0x03
    4d42:	9c 81       	ldd	r25, Y+4	; 0x04
    4d44:	e4 0f       	add	r30, r20
    4d46:	f5 1f       	adc	r31, r21
    4d48:	b9 01       	movw	r22, r18
    4d4a:	b3 d6       	rcall	.+3430   	; 0x5ab2 <__divmodhi4>
    4d4c:	cb 01       	movw	r24, r22
    4d4e:	b9 01       	movw	r22, r18
    4d50:	b0 d6       	rcall	.+3424   	; 0x5ab2 <__divmodhi4>
    4d52:	80 5d       	subi	r24, 0xD0	; 208
    4d54:	80 83       	st	Z, r24
    4d56:	f8 01       	movw	r30, r16
    4d58:	42 89       	ldd	r20, Z+18	; 0x12
    4d5a:	53 89       	ldd	r21, Z+19	; 0x13
    4d5c:	89 81       	ldd	r24, Y+1	; 0x01
    4d5e:	9a 81       	ldd	r25, Y+2	; 0x02
    4d60:	bc 01       	movw	r22, r24
    4d62:	6f 5f       	subi	r22, 0xFF	; 255
    4d64:	7f 4f       	sbci	r23, 0xFF	; 255
    4d66:	69 83       	std	Y+1, r22	; 0x01
    4d68:	7a 83       	std	Y+2, r23	; 0x02
    4d6a:	fa 01       	movw	r30, r20
    4d6c:	e8 0f       	add	r30, r24
    4d6e:	f9 1f       	adc	r31, r25
    4d70:	4e e2       	ldi	r20, 0x2E	; 46
    4d72:	40 83       	st	Z, r20
    4d74:	d8 01       	movw	r26, r16
    4d76:	52 96       	adiw	r26, 0x12	; 18
    4d78:	ed 91       	ld	r30, X+
    4d7a:	fc 91       	ld	r31, X
    4d7c:	53 97       	sbiw	r26, 0x13	; 19
    4d7e:	49 81       	ldd	r20, Y+1	; 0x01
    4d80:	5a 81       	ldd	r21, Y+2	; 0x02
    4d82:	ca 01       	movw	r24, r20
    4d84:	01 96       	adiw	r24, 0x01	; 1
    4d86:	89 83       	std	Y+1, r24	; 0x01
    4d88:	9a 83       	std	Y+2, r25	; 0x02
    4d8a:	8b 81       	ldd	r24, Y+3	; 0x03
    4d8c:	9c 81       	ldd	r25, Y+4	; 0x04
    4d8e:	e4 0f       	add	r30, r20
    4d90:	f5 1f       	adc	r31, r21
    4d92:	b9 01       	movw	r22, r18
    4d94:	8e d6       	rcall	.+3356   	; 0x5ab2 <__divmodhi4>
    4d96:	80 5d       	subi	r24, 0xD0	; 208
    4d98:	80 83       	st	Z, r24
    4d9a:	f8 01       	movw	r30, r16
    4d9c:	22 89       	ldd	r18, Z+18	; 0x12
    4d9e:	33 89       	ldd	r19, Z+19	; 0x13
    4da0:	89 81       	ldd	r24, Y+1	; 0x01
    4da2:	9a 81       	ldd	r25, Y+2	; 0x02
    4da4:	ac 01       	movw	r20, r24
    4da6:	4f 5f       	subi	r20, 0xFF	; 255
    4da8:	5f 4f       	sbci	r21, 0xFF	; 255
    4daa:	49 83       	std	Y+1, r20	; 0x01
    4dac:	5a 83       	std	Y+2, r21	; 0x02
    4dae:	f9 01       	movw	r30, r18
    4db0:	e8 0f       	add	r30, r24
    4db2:	f9 1f       	adc	r31, r25
    4db4:	2c e2       	ldi	r18, 0x2C	; 44
    4db6:	20 83       	st	Z, r18
    4db8:	d8 01       	movw	r26, r16
    4dba:	12 96       	adiw	r26, 0x02	; 2
    4dbc:	ed 91       	ld	r30, X+
    4dbe:	fc 91       	ld	r31, X
    4dc0:	13 97       	sbiw	r26, 0x03	; 3
    4dc2:	20 e0       	ldi	r18, 0x00	; 0
    4dc4:	30 e0       	ldi	r19, 0x00	; 0
    4dc6:	40 e2       	ldi	r20, 0x20	; 32
    4dc8:	51 e4       	ldi	r21, 0x41	; 65
    4dca:	60 a5       	ldd	r22, Z+40	; 0x28
    4dcc:	71 a5       	ldd	r23, Z+41	; 0x29
    4dce:	82 a5       	ldd	r24, Z+42	; 0x2a
    4dd0:	93 a5       	ldd	r25, Z+43	; 0x2b
    4dd2:	4a d4       	rcall	.+2196   	; 0x5668 <__mulsf3>
    4dd4:	22 d3       	rcall	.+1604   	; 0x541a <__fixsfsi>
    4dd6:	6b 83       	std	Y+3, r22	; 0x03
    4dd8:	7c 83       	std	Y+4, r23	; 0x04
    4dda:	8b 81       	ldd	r24, Y+3	; 0x03
    4ddc:	9c 81       	ldd	r25, Y+4	; 0x04
    4dde:	99 23       	and	r25, r25
    4de0:	bc f4       	brge	.+46     	; 0x4e10 <prepareFrame+0x2132>
    4de2:	8b 81       	ldd	r24, Y+3	; 0x03
    4de4:	9c 81       	ldd	r25, Y+4	; 0x04
    4de6:	91 95       	neg	r25
    4de8:	81 95       	neg	r24
    4dea:	91 09       	sbc	r25, r1
    4dec:	8b 83       	std	Y+3, r24	; 0x03
    4dee:	9c 83       	std	Y+4, r25	; 0x04
    4df0:	f8 01       	movw	r30, r16
    4df2:	22 89       	ldd	r18, Z+18	; 0x12
    4df4:	33 89       	ldd	r19, Z+19	; 0x13
    4df6:	89 81       	ldd	r24, Y+1	; 0x01
    4df8:	9a 81       	ldd	r25, Y+2	; 0x02
    4dfa:	ac 01       	movw	r20, r24
    4dfc:	4f 5f       	subi	r20, 0xFF	; 255
    4dfe:	5f 4f       	sbci	r21, 0xFF	; 255
    4e00:	49 83       	std	Y+1, r20	; 0x01
    4e02:	5a 83       	std	Y+2, r21	; 0x02
    4e04:	f9 01       	movw	r30, r18
    4e06:	e8 0f       	add	r30, r24
    4e08:	f9 1f       	adc	r31, r25
    4e0a:	2d e2       	ldi	r18, 0x2D	; 45
    4e0c:	20 83       	st	Z, r18
    4e0e:	11 c0       	rjmp	.+34     	; 0x4e32 <prepareFrame+0x2154>
    4e10:	d8 01       	movw	r26, r16
    4e12:	52 96       	adiw	r26, 0x12	; 18
    4e14:	2d 91       	ld	r18, X+
    4e16:	3c 91       	ld	r19, X
    4e18:	53 97       	sbiw	r26, 0x13	; 19
    4e1a:	89 81       	ldd	r24, Y+1	; 0x01
    4e1c:	9a 81       	ldd	r25, Y+2	; 0x02
    4e1e:	ac 01       	movw	r20, r24
    4e20:	4f 5f       	subi	r20, 0xFF	; 255
    4e22:	5f 4f       	sbci	r21, 0xFF	; 255
    4e24:	49 83       	std	Y+1, r20	; 0x01
    4e26:	5a 83       	std	Y+2, r21	; 0x02
    4e28:	f9 01       	movw	r30, r18
    4e2a:	e8 0f       	add	r30, r24
    4e2c:	f9 1f       	adc	r31, r25
    4e2e:	2b e2       	ldi	r18, 0x2B	; 43
    4e30:	20 83       	st	Z, r18
    4e32:	d8 01       	movw	r26, r16
    4e34:	52 96       	adiw	r26, 0x12	; 18
    4e36:	ed 91       	ld	r30, X+
    4e38:	fc 91       	ld	r31, X
    4e3a:	53 97       	sbiw	r26, 0x13	; 19
    4e3c:	29 81       	ldd	r18, Y+1	; 0x01
    4e3e:	3a 81       	ldd	r19, Y+2	; 0x02
    4e40:	c9 01       	movw	r24, r18
    4e42:	01 96       	adiw	r24, 0x01	; 1
    4e44:	89 83       	std	Y+1, r24	; 0x01
    4e46:	9a 83       	std	Y+2, r25	; 0x02
    4e48:	8b 81       	ldd	r24, Y+3	; 0x03
    4e4a:	9c 81       	ldd	r25, Y+4	; 0x04
    4e4c:	e2 0f       	add	r30, r18
    4e4e:	f3 1f       	adc	r31, r19
    4e50:	60 e1       	ldi	r22, 0x10	; 16
    4e52:	77 e2       	ldi	r23, 0x27	; 39
    4e54:	2e d6       	rcall	.+3164   	; 0x5ab2 <__divmodhi4>
    4e56:	cb 01       	movw	r24, r22
    4e58:	2a e0       	ldi	r18, 0x0A	; 10
    4e5a:	30 e0       	ldi	r19, 0x00	; 0
    4e5c:	b9 01       	movw	r22, r18
    4e5e:	29 d6       	rcall	.+3154   	; 0x5ab2 <__divmodhi4>
    4e60:	80 5d       	subi	r24, 0xD0	; 208
    4e62:	80 83       	st	Z, r24
    4e64:	d8 01       	movw	r26, r16
    4e66:	52 96       	adiw	r26, 0x12	; 18
    4e68:	ed 91       	ld	r30, X+
    4e6a:	fc 91       	ld	r31, X
    4e6c:	53 97       	sbiw	r26, 0x13	; 19
    4e6e:	49 81       	ldd	r20, Y+1	; 0x01
    4e70:	5a 81       	ldd	r21, Y+2	; 0x02
    4e72:	ca 01       	movw	r24, r20
    4e74:	01 96       	adiw	r24, 0x01	; 1
    4e76:	89 83       	std	Y+1, r24	; 0x01
    4e78:	9a 83       	std	Y+2, r25	; 0x02
    4e7a:	8b 81       	ldd	r24, Y+3	; 0x03
    4e7c:	9c 81       	ldd	r25, Y+4	; 0x04
    4e7e:	e4 0f       	add	r30, r20
    4e80:	f5 1f       	adc	r31, r21
    4e82:	68 ee       	ldi	r22, 0xE8	; 232
    4e84:	73 e0       	ldi	r23, 0x03	; 3
    4e86:	15 d6       	rcall	.+3114   	; 0x5ab2 <__divmodhi4>
    4e88:	cb 01       	movw	r24, r22
    4e8a:	b9 01       	movw	r22, r18
    4e8c:	12 d6       	rcall	.+3108   	; 0x5ab2 <__divmodhi4>
    4e8e:	80 5d       	subi	r24, 0xD0	; 208
    4e90:	80 83       	st	Z, r24
    4e92:	d8 01       	movw	r26, r16
    4e94:	52 96       	adiw	r26, 0x12	; 18
    4e96:	ed 91       	ld	r30, X+
    4e98:	fc 91       	ld	r31, X
    4e9a:	53 97       	sbiw	r26, 0x13	; 19
    4e9c:	49 81       	ldd	r20, Y+1	; 0x01
    4e9e:	5a 81       	ldd	r21, Y+2	; 0x02
    4ea0:	ca 01       	movw	r24, r20
    4ea2:	01 96       	adiw	r24, 0x01	; 1
    4ea4:	89 83       	std	Y+1, r24	; 0x01
    4ea6:	9a 83       	std	Y+2, r25	; 0x02
    4ea8:	8b 81       	ldd	r24, Y+3	; 0x03
    4eaa:	9c 81       	ldd	r25, Y+4	; 0x04
    4eac:	e4 0f       	add	r30, r20
    4eae:	f5 1f       	adc	r31, r21
    4eb0:	64 e6       	ldi	r22, 0x64	; 100
    4eb2:	70 e0       	ldi	r23, 0x00	; 0
    4eb4:	fe d5       	rcall	.+3068   	; 0x5ab2 <__divmodhi4>
    4eb6:	cb 01       	movw	r24, r22
    4eb8:	b9 01       	movw	r22, r18
    4eba:	fb d5       	rcall	.+3062   	; 0x5ab2 <__divmodhi4>
    4ebc:	80 5d       	subi	r24, 0xD0	; 208
    4ebe:	80 83       	st	Z, r24
    4ec0:	d8 01       	movw	r26, r16
    4ec2:	52 96       	adiw	r26, 0x12	; 18
    4ec4:	ed 91       	ld	r30, X+
    4ec6:	fc 91       	ld	r31, X
    4ec8:	53 97       	sbiw	r26, 0x13	; 19
    4eca:	49 81       	ldd	r20, Y+1	; 0x01
    4ecc:	5a 81       	ldd	r21, Y+2	; 0x02
    4ece:	ca 01       	movw	r24, r20
    4ed0:	01 96       	adiw	r24, 0x01	; 1
    4ed2:	89 83       	std	Y+1, r24	; 0x01
    4ed4:	9a 83       	std	Y+2, r25	; 0x02
    4ed6:	8b 81       	ldd	r24, Y+3	; 0x03
    4ed8:	9c 81       	ldd	r25, Y+4	; 0x04
    4eda:	e4 0f       	add	r30, r20
    4edc:	f5 1f       	adc	r31, r21
    4ede:	b9 01       	movw	r22, r18
    4ee0:	e8 d5       	rcall	.+3024   	; 0x5ab2 <__divmodhi4>
    4ee2:	cb 01       	movw	r24, r22
    4ee4:	b9 01       	movw	r22, r18
    4ee6:	e5 d5       	rcall	.+3018   	; 0x5ab2 <__divmodhi4>
    4ee8:	80 5d       	subi	r24, 0xD0	; 208
    4eea:	80 83       	st	Z, r24
    4eec:	f8 01       	movw	r30, r16
    4eee:	42 89       	ldd	r20, Z+18	; 0x12
    4ef0:	53 89       	ldd	r21, Z+19	; 0x13
    4ef2:	89 81       	ldd	r24, Y+1	; 0x01
    4ef4:	9a 81       	ldd	r25, Y+2	; 0x02
    4ef6:	bc 01       	movw	r22, r24
    4ef8:	6f 5f       	subi	r22, 0xFF	; 255
    4efa:	7f 4f       	sbci	r23, 0xFF	; 255
    4efc:	69 83       	std	Y+1, r22	; 0x01
    4efe:	7a 83       	std	Y+2, r23	; 0x02
    4f00:	fa 01       	movw	r30, r20
    4f02:	e8 0f       	add	r30, r24
    4f04:	f9 1f       	adc	r31, r25
    4f06:	4e e2       	ldi	r20, 0x2E	; 46
    4f08:	40 83       	st	Z, r20
    4f0a:	d8 01       	movw	r26, r16
    4f0c:	52 96       	adiw	r26, 0x12	; 18
    4f0e:	ed 91       	ld	r30, X+
    4f10:	fc 91       	ld	r31, X
    4f12:	53 97       	sbiw	r26, 0x13	; 19
    4f14:	49 81       	ldd	r20, Y+1	; 0x01
    4f16:	5a 81       	ldd	r21, Y+2	; 0x02
    4f18:	ca 01       	movw	r24, r20
    4f1a:	01 96       	adiw	r24, 0x01	; 1
    4f1c:	89 83       	std	Y+1, r24	; 0x01
    4f1e:	9a 83       	std	Y+2, r25	; 0x02
    4f20:	8b 81       	ldd	r24, Y+3	; 0x03
    4f22:	9c 81       	ldd	r25, Y+4	; 0x04
    4f24:	e4 0f       	add	r30, r20
    4f26:	f5 1f       	adc	r31, r21
    4f28:	b9 01       	movw	r22, r18
    4f2a:	c3 d5       	rcall	.+2950   	; 0x5ab2 <__divmodhi4>
    4f2c:	80 5d       	subi	r24, 0xD0	; 208
    4f2e:	80 83       	st	Z, r24
    4f30:	f8 01       	movw	r30, r16
    4f32:	22 89       	ldd	r18, Z+18	; 0x12
    4f34:	33 89       	ldd	r19, Z+19	; 0x13
    4f36:	89 81       	ldd	r24, Y+1	; 0x01
    4f38:	9a 81       	ldd	r25, Y+2	; 0x02
    4f3a:	ac 01       	movw	r20, r24
    4f3c:	4f 5f       	subi	r20, 0xFF	; 255
    4f3e:	5f 4f       	sbci	r21, 0xFF	; 255
    4f40:	49 83       	std	Y+1, r20	; 0x01
    4f42:	5a 83       	std	Y+2, r21	; 0x02
    4f44:	f9 01       	movw	r30, r18
    4f46:	e8 0f       	add	r30, r24
    4f48:	f9 1f       	adc	r31, r25
    4f4a:	2c e2       	ldi	r18, 0x2C	; 44
    4f4c:	20 83       	st	Z, r18
    4f4e:	d8 01       	movw	r26, r16
    4f50:	52 96       	adiw	r26, 0x12	; 18
    4f52:	2d 91       	ld	r18, X+
    4f54:	3c 91       	ld	r19, X
    4f56:	53 97       	sbiw	r26, 0x13	; 19
    4f58:	89 81       	ldd	r24, Y+1	; 0x01
    4f5a:	9a 81       	ldd	r25, Y+2	; 0x02
    4f5c:	ac 01       	movw	r20, r24
    4f5e:	4f 5f       	subi	r20, 0xFF	; 255
    4f60:	5f 4f       	sbci	r21, 0xFF	; 255
    4f62:	49 83       	std	Y+1, r20	; 0x01
    4f64:	5a 83       	std	Y+2, r21	; 0x02
    4f66:	f9 01       	movw	r30, r18
    4f68:	e8 0f       	add	r30, r24
    4f6a:	f9 1f       	adc	r31, r25
    4f6c:	2d e0       	ldi	r18, 0x0D	; 13
    4f6e:	20 83       	st	Z, r18
    4f70:	52 96       	adiw	r26, 0x12	; 18
    4f72:	2d 91       	ld	r18, X+
    4f74:	3c 91       	ld	r19, X
    4f76:	53 97       	sbiw	r26, 0x13	; 19
    4f78:	89 81       	ldd	r24, Y+1	; 0x01
    4f7a:	9a 81       	ldd	r25, Y+2	; 0x02
    4f7c:	ac 01       	movw	r20, r24
    4f7e:	4f 5f       	subi	r20, 0xFF	; 255
    4f80:	5f 4f       	sbci	r21, 0xFF	; 255
    4f82:	49 83       	std	Y+1, r20	; 0x01
    4f84:	5a 83       	std	Y+2, r21	; 0x02
    4f86:	f9 01       	movw	r30, r18
    4f88:	e8 0f       	add	r30, r24
    4f8a:	f9 1f       	adc	r31, r25
    4f8c:	2a e0       	ldi	r18, 0x0A	; 10
    4f8e:	20 83       	st	Z, r18
    4f90:	52 96       	adiw	r26, 0x12	; 18
    4f92:	2d 91       	ld	r18, X+
    4f94:	3c 91       	ld	r19, X
    4f96:	53 97       	sbiw	r26, 0x13	; 19
    4f98:	89 81       	ldd	r24, Y+1	; 0x01
    4f9a:	9a 81       	ldd	r25, Y+2	; 0x02
    4f9c:	ac 01       	movw	r20, r24
    4f9e:	4f 5f       	subi	r20, 0xFF	; 255
    4fa0:	5f 4f       	sbci	r21, 0xFF	; 255
    4fa2:	49 83       	std	Y+1, r20	; 0x01
    4fa4:	5a 83       	std	Y+2, r21	; 0x02
    4fa6:	f9 01       	movw	r30, r18
    4fa8:	e8 0f       	add	r30, r24
    4faa:	f9 1f       	adc	r31, r25
    4fac:	10 82       	st	Z, r1
    4fae:	52 96       	adiw	r26, 0x12	; 18
    4fb0:	2d 91       	ld	r18, X+
    4fb2:	3c 91       	ld	r19, X
    4fb4:	53 97       	sbiw	r26, 0x13	; 19
    4fb6:	89 81       	ldd	r24, Y+1	; 0x01
    4fb8:	9a 81       	ldd	r25, Y+2	; 0x02
    4fba:	ac 01       	movw	r20, r24
    4fbc:	4f 5f       	subi	r20, 0xFF	; 255
    4fbe:	5f 4f       	sbci	r21, 0xFF	; 255
    4fc0:	49 83       	std	Y+1, r20	; 0x01
    4fc2:	5a 83       	std	Y+2, r21	; 0x02
    4fc4:	f9 01       	movw	r30, r18
    4fc6:	e8 0f       	add	r30, r24
    4fc8:	f9 1f       	adc	r31, r25
    4fca:	28 e5       	ldi	r18, 0x58	; 88
    4fcc:	20 83       	st	Z, r18
    4fce:	2a 96       	adiw	r28, 0x0a	; 10
    4fd0:	cd bf       	out	0x3d, r28	; 61
    4fd2:	de bf       	out	0x3e, r29	; 62
    4fd4:	df 91       	pop	r29
    4fd6:	cf 91       	pop	r28
    4fd8:	1f 91       	pop	r17
    4fda:	0f 91       	pop	r16
    4fdc:	ff 90       	pop	r15
    4fde:	ef 90       	pop	r14
    4fe0:	df 90       	pop	r13
    4fe2:	cf 90       	pop	r12
    4fe4:	bf 90       	pop	r11
    4fe6:	af 90       	pop	r10
    4fe8:	9f 90       	pop	r9
    4fea:	8f 90       	pop	r8
    4fec:	7f 90       	pop	r7
    4fee:	6f 90       	pop	r6
    4ff0:	5f 90       	pop	r5
    4ff2:	4f 90       	pop	r4
    4ff4:	3f 90       	pop	r3
    4ff6:	2f 90       	pop	r2
    4ff8:	08 95       	ret

00004ffa <GPSbuf_init>:
	}
 	(*GPSbuf).mutex = false;
	 */
}

void GPSbuf_init(GPS_t * gps){
    4ffa:	fc 01       	movw	r30, r24
	gps->altitude[0] = '0';
    4ffc:	80 e3       	ldi	r24, 0x30	; 48
    4ffe:	80 a3       	std	Z+32, r24	; 0x20
	gps->altitude[1] = '0';
    5000:	81 a3       	std	Z+33, r24	; 0x21
	gps->altitude[2] = '0';
    5002:	82 a3       	std	Z+34, r24	; 0x22
	gps->altitude[3] = '0';
    5004:	83 a3       	std	Z+35, r24	; 0x23
	gps->altitude[4] = '0';
    5006:	84 a3       	std	Z+36, r24	; 0x24
	gps->altitude[5] = '0';
    5008:	85 a3       	std	Z+37, r24	; 0x25
	gps->altitude[6] = '0';
    500a:	86 a3       	std	Z+38, r24	; 0x26
	gps->altitude[7] = '0';
    500c:	87 a3       	std	Z+39, r24	; 0x27
	gps->altitude[8] = '0';
    500e:	80 a7       	std	Z+40, r24	; 0x28
	gps->altitude[9] = '0';
    5010:	81 a7       	std	Z+41, r24	; 0x29

	gps->longitude[0] = '0';
    5012:	82 8b       	std	Z+18, r24	; 0x12
	gps->longitude[1] = '0';
    5014:	83 8b       	std	Z+19, r24	; 0x13
	gps->longitude[2] = '0';
    5016:	84 8b       	std	Z+20, r24	; 0x14
	gps->longitude[3] = '0';
    5018:	85 8b       	std	Z+21, r24	; 0x15
	gps->longitude[4] = '0';
    501a:	86 8b       	std	Z+22, r24	; 0x16
	gps->longitude[5] = '0';
    501c:	87 8b       	std	Z+23, r24	; 0x17
	gps->longitude[6] = '0';
    501e:	80 8f       	std	Z+24, r24	; 0x18
	gps->longitude[7] = '0';
    5020:	81 8f       	std	Z+25, r24	; 0x19
	gps->longitude[8] = '0';
    5022:	82 8f       	std	Z+26, r24	; 0x1a
	gps->longitude[9] = '0';
    5024:	83 8f       	std	Z+27, r24	; 0x1b
	gps->longitude[10] = '0';
    5026:	84 8f       	std	Z+28, r24	; 0x1c
	gps->longitude[11] = '0';
    5028:	85 8f       	std	Z+29, r24	; 0x1d
	gps->longitude[12] = '0';
    502a:	86 8f       	std	Z+30, r24	; 0x1e
	
	gps->latitude[0] = '0';
    502c:	84 83       	std	Z+4, r24	; 0x04
	gps->latitude[1] = '0';
    502e:	85 83       	std	Z+5, r24	; 0x05
	gps->latitude[2] = '0';
    5030:	86 83       	std	Z+6, r24	; 0x06
	gps->latitude[3] = '0';
    5032:	87 83       	std	Z+7, r24	; 0x07
	gps->latitude[4] = '0';
    5034:	80 87       	std	Z+8, r24	; 0x08
	gps->latitude[5] = '0';
    5036:	81 87       	std	Z+9, r24	; 0x09
	gps->latitude[6] = '0';
    5038:	82 87       	std	Z+10, r24	; 0x0a
	gps->latitude[7] = '0';
    503a:	83 87       	std	Z+11, r24	; 0x0b
	gps->latitude[8] = '0';
    503c:	84 87       	std	Z+12, r24	; 0x0c
	gps->latitude[9] = '0';
    503e:	85 87       	std	Z+13, r24	; 0x0d
	gps->latitude[10] = '0';
    5040:	86 87       	std	Z+14, r24	; 0x0e
	gps->latitude[11] = '0';
    5042:	87 87       	std	Z+15, r24	; 0x0f
	gps->latitude[12] = '0';
    5044:	80 8b       	std	Z+16, r24	; 0x10
	
	gps->fix = 0;
    5046:	14 a6       	std	Z+44, r1	; 0x2c
    5048:	08 95       	ret

0000504a <MinAngleVector3D>:
}

float MinAngleVector3D(float x, float y, float z){
    504a:	4f 92       	push	r4
    504c:	5f 92       	push	r5
    504e:	6f 92       	push	r6
    5050:	7f 92       	push	r7
    5052:	8f 92       	push	r8
    5054:	9f 92       	push	r9
    5056:	af 92       	push	r10
    5058:	bf 92       	push	r11
    505a:	cf 92       	push	r12
    505c:	df 92       	push	r13
    505e:	ef 92       	push	r14
    5060:	ff 92       	push	r15
    5062:	0f 93       	push	r16
    5064:	1f 93       	push	r17
    5066:	cf 93       	push	r28
    5068:	df 93       	push	r29
    506a:	cd b7       	in	r28, 0x3d	; 61
    506c:	de b7       	in	r29, 0x3e	; 62
    506e:	60 97       	sbiw	r28, 0x10	; 16
    5070:	cd bf       	out	0x3d, r28	; 61
    5072:	de bf       	out	0x3e, r29	; 62
    5074:	2b 01       	movw	r4, r22
    5076:	3c 01       	movw	r6, r24
    5078:	2d 83       	std	Y+5, r18	; 0x05
    507a:	3e 83       	std	Y+6, r19	; 0x06
    507c:	4f 83       	std	Y+7, r20	; 0x07
    507e:	58 87       	std	Y+8, r21	; 0x08
    5080:	47 01       	movw	r8, r14
    5082:	58 01       	movw	r10, r16
	float dot, length,cosa, angle1, angle2, angle3;
	//-----assume reference [1, 0 ,0]-------------------------
	dot = fabs(x);
	length = VectorLength3D(x,y,z);
    5084:	9b 01       	movw	r18, r22
    5086:	ac 01       	movw	r20, r24
    5088:	ef d2       	rcall	.+1502   	; 0x5668 <__mulsf3>
    508a:	6b 01       	movw	r12, r22
    508c:	7c 01       	movw	r14, r24
    508e:	2d 81       	ldd	r18, Y+5	; 0x05
    5090:	3e 81       	ldd	r19, Y+6	; 0x06
    5092:	4f 81       	ldd	r20, Y+7	; 0x07
    5094:	58 85       	ldd	r21, Y+8	; 0x08
    5096:	ca 01       	movw	r24, r20
    5098:	b9 01       	movw	r22, r18
    509a:	e6 d2       	rcall	.+1484   	; 0x5668 <__mulsf3>
    509c:	69 83       	std	Y+1, r22	; 0x01
    509e:	7a 83       	std	Y+2, r23	; 0x02
    50a0:	8b 83       	std	Y+3, r24	; 0x03
    50a2:	9c 83       	std	Y+4, r25	; 0x04
    50a4:	9b 01       	movw	r18, r22
    50a6:	ac 01       	movw	r20, r24
    50a8:	c7 01       	movw	r24, r14
    50aa:	b6 01       	movw	r22, r12
    50ac:	e6 d0       	rcall	.+460    	; 0x527a <__addsf3>
    50ae:	6d 87       	std	Y+13, r22	; 0x0d
    50b0:	7e 87       	std	Y+14, r23	; 0x0e
    50b2:	8f 87       	std	Y+15, r24	; 0x0f
    50b4:	98 8b       	std	Y+16, r25	; 0x10
    50b6:	a5 01       	movw	r20, r10
    50b8:	94 01       	movw	r18, r8
    50ba:	c5 01       	movw	r24, r10
    50bc:	b4 01       	movw	r22, r8
    50be:	d4 d2       	rcall	.+1448   	; 0x5668 <__mulsf3>
    50c0:	69 87       	std	Y+9, r22	; 0x09
    50c2:	7a 87       	std	Y+10, r23	; 0x0a
    50c4:	8b 87       	std	Y+11, r24	; 0x0b
    50c6:	9c 87       	std	Y+12, r25	; 0x0c
    50c8:	29 81       	ldd	r18, Y+1	; 0x01
    50ca:	3a 81       	ldd	r19, Y+2	; 0x02
    50cc:	4b 81       	ldd	r20, Y+3	; 0x03
    50ce:	5c 81       	ldd	r21, Y+4	; 0x04
    50d0:	c7 01       	movw	r24, r14
    50d2:	b6 01       	movw	r22, r12
    50d4:	d2 d0       	rcall	.+420    	; 0x527a <__addsf3>
    50d6:	6b 01       	movw	r12, r22
    50d8:	7c 01       	movw	r14, r24
    50da:	29 85       	ldd	r18, Y+9	; 0x09
    50dc:	3a 85       	ldd	r19, Y+10	; 0x0a
    50de:	4b 85       	ldd	r20, Y+11	; 0x0b
    50e0:	5c 85       	ldd	r21, Y+12	; 0x0c
    50e2:	c7 01       	movw	r24, r14
    50e4:	b6 01       	movw	r22, r12
    50e6:	c9 d0       	rcall	.+402    	; 0x527a <__addsf3>
    50e8:	72 d3       	rcall	.+1764   	; 0x57ce <sqrt>
    50ea:	69 83       	std	Y+1, r22	; 0x01
    50ec:	7a 83       	std	Y+2, r23	; 0x02
    50ee:	8b 83       	std	Y+3, r24	; 0x03
    50f0:	9c 83       	std	Y+4, r25	; 0x04
}

float MinAngleVector3D(float x, float y, float z){
	float dot, length,cosa, angle1, angle2, angle3;
	//-----assume reference [1, 0 ,0]-------------------------
	dot = fabs(x);
    50f2:	c3 01       	movw	r24, r6
    50f4:	b2 01       	movw	r22, r4
    50f6:	9f 77       	andi	r25, 0x7F	; 127
	length = VectorLength3D(x,y,z);
	cosa = dot/length;
    50f8:	29 81       	ldd	r18, Y+1	; 0x01
    50fa:	3a 81       	ldd	r19, Y+2	; 0x02
    50fc:	4b 81       	ldd	r20, Y+3	; 0x03
    50fe:	5c 81       	ldd	r21, Y+4	; 0x04
    5100:	24 d1       	rcall	.+584    	; 0x534a <__divsf3>
	angle1 = acos(cosa)/3.14*180.0;
    5102:	ac d0       	rcall	.+344    	; 0x525c <acos>
    5104:	23 ec       	ldi	r18, 0xC3	; 195
    5106:	35 ef       	ldi	r19, 0xF5	; 245
    5108:	48 e4       	ldi	r20, 0x48	; 72
    510a:	50 e4       	ldi	r21, 0x40	; 64
    510c:	1e d1       	rcall	.+572    	; 0x534a <__divsf3>
    510e:	20 e0       	ldi	r18, 0x00	; 0
    5110:	30 e0       	ldi	r19, 0x00	; 0
    5112:	44 e3       	ldi	r20, 0x34	; 52
    5114:	53 e4       	ldi	r21, 0x43	; 67
    5116:	a8 d2       	rcall	.+1360   	; 0x5668 <__mulsf3>
    5118:	f6 2e       	mov	r15, r22
    511a:	e7 2e       	mov	r14, r23
    511c:	d8 2e       	mov	r13, r24
    511e:	c9 2e       	mov	r12, r25
	//-----assume reference [0, 1 ,0]-------------------------
	dot = fabs(y);
    5120:	6d 81       	ldd	r22, Y+5	; 0x05
    5122:	7e 81       	ldd	r23, Y+6	; 0x06
    5124:	8f 81       	ldd	r24, Y+7	; 0x07
    5126:	98 85       	ldd	r25, Y+8	; 0x08
    5128:	9f 77       	andi	r25, 0x7F	; 127
	length = VectorLength3D(x,y,z);
	cosa = dot/length;
    512a:	29 81       	ldd	r18, Y+1	; 0x01
    512c:	3a 81       	ldd	r19, Y+2	; 0x02
    512e:	4b 81       	ldd	r20, Y+3	; 0x03
    5130:	5c 81       	ldd	r21, Y+4	; 0x04
    5132:	0b d1       	rcall	.+534    	; 0x534a <__divsf3>
	angle2 = acos(cosa)/3.14*180.0;
    5134:	93 d0       	rcall	.+294    	; 0x525c <acos>
    5136:	23 ec       	ldi	r18, 0xC3	; 195
    5138:	35 ef       	ldi	r19, 0xF5	; 245
    513a:	48 e4       	ldi	r20, 0x48	; 72
    513c:	50 e4       	ldi	r21, 0x40	; 64
    513e:	05 d1       	rcall	.+522    	; 0x534a <__divsf3>
    5140:	20 e0       	ldi	r18, 0x00	; 0
    5142:	30 e0       	ldi	r19, 0x00	; 0
    5144:	44 e3       	ldi	r20, 0x34	; 52
    5146:	53 e4       	ldi	r21, 0x43	; 67
    5148:	8f d2       	rcall	.+1310   	; 0x5668 <__mulsf3>
    514a:	66 2e       	mov	r6, r22
    514c:	77 2e       	mov	r7, r23
    514e:	18 2f       	mov	r17, r24
    5150:	09 2f       	mov	r16, r25
	//-----assume reference [0, 0 ,1]-------------------------
	dot = fabs(z);
    5152:	c5 01       	movw	r24, r10
    5154:	b4 01       	movw	r22, r8
    5156:	9f 77       	andi	r25, 0x7F	; 127
	length = VectorLength3D(x,y,z);
	cosa = dot/length;
    5158:	29 81       	ldd	r18, Y+1	; 0x01
    515a:	3a 81       	ldd	r19, Y+2	; 0x02
    515c:	4b 81       	ldd	r20, Y+3	; 0x03
    515e:	5c 81       	ldd	r21, Y+4	; 0x04
    5160:	f4 d0       	rcall	.+488    	; 0x534a <__divsf3>
	angle3 = acos(cosa)/3.14*180.0;
    5162:	7c d0       	rcall	.+248    	; 0x525c <acos>
    5164:	23 ec       	ldi	r18, 0xC3	; 195
    5166:	35 ef       	ldi	r19, 0xF5	; 245
    5168:	48 e4       	ldi	r20, 0x48	; 72
    516a:	50 e4       	ldi	r21, 0x40	; 64
    516c:	ee d0       	rcall	.+476    	; 0x534a <__divsf3>
    516e:	20 e0       	ldi	r18, 0x00	; 0
    5170:	30 e0       	ldi	r19, 0x00	; 0
    5172:	44 e3       	ldi	r20, 0x34	; 52
    5174:	53 e4       	ldi	r21, 0x43	; 67
    5176:	78 d2       	rcall	.+1264   	; 0x5668 <__mulsf3>
    5178:	b6 2e       	mov	r11, r22
    517a:	a7 2e       	mov	r10, r23
    517c:	98 2e       	mov	r9, r24
    517e:	89 2e       	mov	r8, r25
	//-----compare--------------------------------------------
	if((angle1 <= angle2) && (angle1 <= angle3)) return angle1;
    5180:	26 2d       	mov	r18, r6
    5182:	37 2d       	mov	r19, r7
    5184:	41 2f       	mov	r20, r17
    5186:	50 2f       	mov	r21, r16
    5188:	6f 2d       	mov	r22, r15
    518a:	7e 2d       	mov	r23, r14
    518c:	8d 2d       	mov	r24, r13
    518e:	9c 2d       	mov	r25, r12
    5190:	d8 d0       	rcall	.+432    	; 0x5342 <__cmpsf2>
    5192:	18 16       	cp	r1, r24
    5194:	5c f0       	brlt	.+22     	; 0x51ac <MinAngleVector3D+0x162>
    5196:	2b 2d       	mov	r18, r11
    5198:	3a 2d       	mov	r19, r10
    519a:	49 2d       	mov	r20, r9
    519c:	58 2d       	mov	r21, r8
    519e:	6f 2d       	mov	r22, r15
    51a0:	7e 2d       	mov	r23, r14
    51a2:	8d 2d       	mov	r24, r13
    51a4:	9c 2d       	mov	r25, r12
    51a6:	cd d0       	rcall	.+410    	; 0x5342 <__cmpsf2>
    51a8:	18 16       	cp	r1, r24
    51aa:	7c f5       	brge	.+94     	; 0x520a <MinAngleVector3D+0x1c0>
	else if((angle2 <= angle1) && (angle2 <= angle3)) return angle2;
    51ac:	26 2d       	mov	r18, r6
    51ae:	37 2d       	mov	r19, r7
    51b0:	41 2f       	mov	r20, r17
    51b2:	50 2f       	mov	r21, r16
    51b4:	6f 2d       	mov	r22, r15
    51b6:	7e 2d       	mov	r23, r14
    51b8:	8d 2d       	mov	r24, r13
    51ba:	9c 2d       	mov	r25, r12
    51bc:	51 d2       	rcall	.+1186   	; 0x5660 <__gesf2>
    51be:	88 23       	and	r24, r24
    51c0:	5c f0       	brlt	.+22     	; 0x51d8 <MinAngleVector3D+0x18e>
    51c2:	2b 2d       	mov	r18, r11
    51c4:	3a 2d       	mov	r19, r10
    51c6:	49 2d       	mov	r20, r9
    51c8:	58 2d       	mov	r21, r8
    51ca:	66 2d       	mov	r22, r6
    51cc:	77 2d       	mov	r23, r7
    51ce:	81 2f       	mov	r24, r17
    51d0:	90 2f       	mov	r25, r16
    51d2:	b7 d0       	rcall	.+366    	; 0x5342 <__cmpsf2>
    51d4:	18 16       	cp	r1, r24
    51d6:	f4 f4       	brge	.+60     	; 0x5214 <MinAngleVector3D+0x1ca>
	else if((angle3 <= angle2) && (angle3 <= angle1)) return angle3;
    51d8:	2b 2d       	mov	r18, r11
    51da:	3a 2d       	mov	r19, r10
    51dc:	49 2d       	mov	r20, r9
    51de:	58 2d       	mov	r21, r8
    51e0:	66 2d       	mov	r22, r6
    51e2:	77 2d       	mov	r23, r7
    51e4:	81 2f       	mov	r24, r17
    51e6:	90 2f       	mov	r25, r16
    51e8:	3b d2       	rcall	.+1142   	; 0x5660 <__gesf2>
    51ea:	88 23       	and	r24, r24
    51ec:	b4 f0       	brlt	.+44     	; 0x521a <MinAngleVector3D+0x1d0>
    51ee:	2b 2d       	mov	r18, r11
    51f0:	3a 2d       	mov	r19, r10
    51f2:	49 2d       	mov	r20, r9
    51f4:	58 2d       	mov	r21, r8
    51f6:	6f 2d       	mov	r22, r15
    51f8:	7e 2d       	mov	r23, r14
    51fa:	8d 2d       	mov	r24, r13
    51fc:	9c 2d       	mov	r25, r12
    51fe:	30 d2       	rcall	.+1120   	; 0x5660 <__gesf2>
    5200:	88 23       	and	r24, r24
    5202:	84 f0       	brlt	.+32     	; 0x5224 <MinAngleVector3D+0x1da>
    5204:	19 2d       	mov	r17, r9
    5206:	08 2d       	mov	r16, r8
    5208:	11 c0       	rjmp	.+34     	; 0x522c <MinAngleVector3D+0x1e2>
	dot = fabs(z);
	length = VectorLength3D(x,y,z);
	cosa = dot/length;
	angle3 = acos(cosa)/3.14*180.0;
	//-----compare--------------------------------------------
	if((angle1 <= angle2) && (angle1 <= angle3)) return angle1;
    520a:	bf 2c       	mov	r11, r15
    520c:	ae 2c       	mov	r10, r14
    520e:	1d 2d       	mov	r17, r13
    5210:	0c 2d       	mov	r16, r12
    5212:	0c c0       	rjmp	.+24     	; 0x522c <MinAngleVector3D+0x1e2>
	else if((angle2 <= angle1) && (angle2 <= angle3)) return angle2;
    5214:	b6 2c       	mov	r11, r6
    5216:	a7 2c       	mov	r10, r7
    5218:	09 c0       	rjmp	.+18     	; 0x522c <MinAngleVector3D+0x1e2>
	else if((angle3 <= angle2) && (angle3 <= angle1)) return angle3;
	else return 0;
    521a:	b1 2c       	mov	r11, r1
    521c:	a1 2c       	mov	r10, r1
    521e:	10 e0       	ldi	r17, 0x00	; 0
    5220:	00 e0       	ldi	r16, 0x00	; 0
    5222:	04 c0       	rjmp	.+8      	; 0x522c <MinAngleVector3D+0x1e2>
    5224:	b1 2c       	mov	r11, r1
    5226:	a1 2c       	mov	r10, r1
    5228:	10 e0       	ldi	r17, 0x00	; 0
    522a:	00 e0       	ldi	r16, 0x00	; 0
    522c:	6b 2d       	mov	r22, r11
    522e:	7a 2d       	mov	r23, r10
    5230:	81 2f       	mov	r24, r17
    5232:	90 2f       	mov	r25, r16
    5234:	60 96       	adiw	r28, 0x10	; 16
    5236:	cd bf       	out	0x3d, r28	; 61
    5238:	de bf       	out	0x3e, r29	; 62
    523a:	df 91       	pop	r29
    523c:	cf 91       	pop	r28
    523e:	1f 91       	pop	r17
    5240:	0f 91       	pop	r16
    5242:	ff 90       	pop	r15
    5244:	ef 90       	pop	r14
    5246:	df 90       	pop	r13
    5248:	cf 90       	pop	r12
    524a:	bf 90       	pop	r11
    524c:	af 90       	pop	r10
    524e:	9f 90       	pop	r9
    5250:	8f 90       	pop	r8
    5252:	7f 90       	pop	r7
    5254:	6f 90       	pop	r6
    5256:	5f 90       	pop	r5
    5258:	4f 90       	pop	r4
    525a:	08 95       	ret

0000525c <acos>:
    525c:	9f 93       	push	r25
    525e:	9f 77       	andi	r25, 0x7F	; 127
    5260:	4a d1       	rcall	.+660    	; 0x54f6 <__fp_arccos>
    5262:	0f 90       	pop	r0
    5264:	00 20       	and	r0, r0
    5266:	3a f4       	brpl	.+14     	; 0x5276 <acos+0x1a>
    5268:	90 58       	subi	r25, 0x80	; 128
    526a:	a2 ea       	ldi	r26, 0xA2	; 162
    526c:	2a ed       	ldi	r18, 0xDA	; 218
    526e:	3f e0       	ldi	r19, 0x0F	; 15
    5270:	49 e4       	ldi	r20, 0x49	; 73
    5272:	50 e4       	ldi	r21, 0x40	; 64
    5274:	13 d0       	rcall	.+38     	; 0x529c <__addsf3x>
    5276:	ba c1       	rjmp	.+884    	; 0x55ec <__fp_round>

00005278 <__subsf3>:
    5278:	50 58       	subi	r21, 0x80	; 128

0000527a <__addsf3>:
    527a:	bb 27       	eor	r27, r27
    527c:	aa 27       	eor	r26, r26
    527e:	0e d0       	rcall	.+28     	; 0x529c <__addsf3x>
    5280:	b5 c1       	rjmp	.+874    	; 0x55ec <__fp_round>
    5282:	a6 d1       	rcall	.+844    	; 0x55d0 <__fp_pscA>
    5284:	30 f0       	brcs	.+12     	; 0x5292 <__addsf3+0x18>
    5286:	ab d1       	rcall	.+854    	; 0x55de <__fp_pscB>
    5288:	20 f0       	brcs	.+8      	; 0x5292 <__addsf3+0x18>
    528a:	31 f4       	brne	.+12     	; 0x5298 <__addsf3+0x1e>
    528c:	9f 3f       	cpi	r25, 0xFF	; 255
    528e:	11 f4       	brne	.+4      	; 0x5294 <__addsf3+0x1a>
    5290:	1e f4       	brtc	.+6      	; 0x5298 <__addsf3+0x1e>
    5292:	76 c1       	rjmp	.+748    	; 0x5580 <__fp_nan>
    5294:	0e f4       	brtc	.+2      	; 0x5298 <__addsf3+0x1e>
    5296:	e0 95       	com	r30
    5298:	e7 fb       	bst	r30, 7
    529a:	6c c1       	rjmp	.+728    	; 0x5574 <__fp_inf>

0000529c <__addsf3x>:
    529c:	e9 2f       	mov	r30, r25
    529e:	b7 d1       	rcall	.+878    	; 0x560e <__fp_split3>
    52a0:	80 f3       	brcs	.-32     	; 0x5282 <__addsf3+0x8>
    52a2:	ba 17       	cp	r27, r26
    52a4:	62 07       	cpc	r22, r18
    52a6:	73 07       	cpc	r23, r19
    52a8:	84 07       	cpc	r24, r20
    52aa:	95 07       	cpc	r25, r21
    52ac:	18 f0       	brcs	.+6      	; 0x52b4 <__addsf3x+0x18>
    52ae:	71 f4       	brne	.+28     	; 0x52cc <__addsf3x+0x30>
    52b0:	9e f5       	brtc	.+102    	; 0x5318 <__addsf3x+0x7c>
    52b2:	cf c1       	rjmp	.+926    	; 0x5652 <__fp_zero>
    52b4:	0e f4       	brtc	.+2      	; 0x52b8 <__addsf3x+0x1c>
    52b6:	e0 95       	com	r30
    52b8:	0b 2e       	mov	r0, r27
    52ba:	ba 2f       	mov	r27, r26
    52bc:	a0 2d       	mov	r26, r0
    52be:	0b 01       	movw	r0, r22
    52c0:	b9 01       	movw	r22, r18
    52c2:	90 01       	movw	r18, r0
    52c4:	0c 01       	movw	r0, r24
    52c6:	ca 01       	movw	r24, r20
    52c8:	a0 01       	movw	r20, r0
    52ca:	11 24       	eor	r1, r1
    52cc:	ff 27       	eor	r31, r31
    52ce:	59 1b       	sub	r21, r25
    52d0:	99 f0       	breq	.+38     	; 0x52f8 <__addsf3x+0x5c>
    52d2:	59 3f       	cpi	r21, 0xF9	; 249
    52d4:	50 f4       	brcc	.+20     	; 0x52ea <__addsf3x+0x4e>
    52d6:	50 3e       	cpi	r21, 0xE0	; 224
    52d8:	68 f1       	brcs	.+90     	; 0x5334 <__addsf3x+0x98>
    52da:	1a 16       	cp	r1, r26
    52dc:	f0 40       	sbci	r31, 0x00	; 0
    52de:	a2 2f       	mov	r26, r18
    52e0:	23 2f       	mov	r18, r19
    52e2:	34 2f       	mov	r19, r20
    52e4:	44 27       	eor	r20, r20
    52e6:	58 5f       	subi	r21, 0xF8	; 248
    52e8:	f3 cf       	rjmp	.-26     	; 0x52d0 <__addsf3x+0x34>
    52ea:	46 95       	lsr	r20
    52ec:	37 95       	ror	r19
    52ee:	27 95       	ror	r18
    52f0:	a7 95       	ror	r26
    52f2:	f0 40       	sbci	r31, 0x00	; 0
    52f4:	53 95       	inc	r21
    52f6:	c9 f7       	brne	.-14     	; 0x52ea <__addsf3x+0x4e>
    52f8:	7e f4       	brtc	.+30     	; 0x5318 <__addsf3x+0x7c>
    52fa:	1f 16       	cp	r1, r31
    52fc:	ba 0b       	sbc	r27, r26
    52fe:	62 0b       	sbc	r22, r18
    5300:	73 0b       	sbc	r23, r19
    5302:	84 0b       	sbc	r24, r20
    5304:	ba f0       	brmi	.+46     	; 0x5334 <__addsf3x+0x98>
    5306:	91 50       	subi	r25, 0x01	; 1
    5308:	a1 f0       	breq	.+40     	; 0x5332 <__addsf3x+0x96>
    530a:	ff 0f       	add	r31, r31
    530c:	bb 1f       	adc	r27, r27
    530e:	66 1f       	adc	r22, r22
    5310:	77 1f       	adc	r23, r23
    5312:	88 1f       	adc	r24, r24
    5314:	c2 f7       	brpl	.-16     	; 0x5306 <__addsf3x+0x6a>
    5316:	0e c0       	rjmp	.+28     	; 0x5334 <__addsf3x+0x98>
    5318:	ba 0f       	add	r27, r26
    531a:	62 1f       	adc	r22, r18
    531c:	73 1f       	adc	r23, r19
    531e:	84 1f       	adc	r24, r20
    5320:	48 f4       	brcc	.+18     	; 0x5334 <__addsf3x+0x98>
    5322:	87 95       	ror	r24
    5324:	77 95       	ror	r23
    5326:	67 95       	ror	r22
    5328:	b7 95       	ror	r27
    532a:	f7 95       	ror	r31
    532c:	9e 3f       	cpi	r25, 0xFE	; 254
    532e:	08 f0       	brcs	.+2      	; 0x5332 <__addsf3x+0x96>
    5330:	b3 cf       	rjmp	.-154    	; 0x5298 <__addsf3+0x1e>
    5332:	93 95       	inc	r25
    5334:	88 0f       	add	r24, r24
    5336:	08 f0       	brcs	.+2      	; 0x533a <__addsf3x+0x9e>
    5338:	99 27       	eor	r25, r25
    533a:	ee 0f       	add	r30, r30
    533c:	97 95       	ror	r25
    533e:	87 95       	ror	r24
    5340:	08 95       	ret

00005342 <__cmpsf2>:
    5342:	f4 d0       	rcall	.+488    	; 0x552c <__fp_cmp>
    5344:	08 f4       	brcc	.+2      	; 0x5348 <__cmpsf2+0x6>
    5346:	81 e0       	ldi	r24, 0x01	; 1
    5348:	08 95       	ret

0000534a <__divsf3>:
    534a:	0c d0       	rcall	.+24     	; 0x5364 <__divsf3x>
    534c:	4f c1       	rjmp	.+670    	; 0x55ec <__fp_round>
    534e:	47 d1       	rcall	.+654    	; 0x55de <__fp_pscB>
    5350:	40 f0       	brcs	.+16     	; 0x5362 <__divsf3+0x18>
    5352:	3e d1       	rcall	.+636    	; 0x55d0 <__fp_pscA>
    5354:	30 f0       	brcs	.+12     	; 0x5362 <__divsf3+0x18>
    5356:	21 f4       	brne	.+8      	; 0x5360 <__divsf3+0x16>
    5358:	5f 3f       	cpi	r21, 0xFF	; 255
    535a:	19 f0       	breq	.+6      	; 0x5362 <__divsf3+0x18>
    535c:	0b c1       	rjmp	.+534    	; 0x5574 <__fp_inf>
    535e:	51 11       	cpse	r21, r1
    5360:	79 c1       	rjmp	.+754    	; 0x5654 <__fp_szero>
    5362:	0e c1       	rjmp	.+540    	; 0x5580 <__fp_nan>

00005364 <__divsf3x>:
    5364:	54 d1       	rcall	.+680    	; 0x560e <__fp_split3>
    5366:	98 f3       	brcs	.-26     	; 0x534e <__divsf3+0x4>

00005368 <__divsf3_pse>:
    5368:	99 23       	and	r25, r25
    536a:	c9 f3       	breq	.-14     	; 0x535e <__divsf3+0x14>
    536c:	55 23       	and	r21, r21
    536e:	b1 f3       	breq	.-20     	; 0x535c <__divsf3+0x12>
    5370:	95 1b       	sub	r25, r21
    5372:	55 0b       	sbc	r21, r21
    5374:	bb 27       	eor	r27, r27
    5376:	aa 27       	eor	r26, r26
    5378:	62 17       	cp	r22, r18
    537a:	73 07       	cpc	r23, r19
    537c:	84 07       	cpc	r24, r20
    537e:	38 f0       	brcs	.+14     	; 0x538e <__divsf3_pse+0x26>
    5380:	9f 5f       	subi	r25, 0xFF	; 255
    5382:	5f 4f       	sbci	r21, 0xFF	; 255
    5384:	22 0f       	add	r18, r18
    5386:	33 1f       	adc	r19, r19
    5388:	44 1f       	adc	r20, r20
    538a:	aa 1f       	adc	r26, r26
    538c:	a9 f3       	breq	.-22     	; 0x5378 <__divsf3_pse+0x10>
    538e:	33 d0       	rcall	.+102    	; 0x53f6 <__divsf3_pse+0x8e>
    5390:	0e 2e       	mov	r0, r30
    5392:	3a f0       	brmi	.+14     	; 0x53a2 <__divsf3_pse+0x3a>
    5394:	e0 e8       	ldi	r30, 0x80	; 128
    5396:	30 d0       	rcall	.+96     	; 0x53f8 <__divsf3_pse+0x90>
    5398:	91 50       	subi	r25, 0x01	; 1
    539a:	50 40       	sbci	r21, 0x00	; 0
    539c:	e6 95       	lsr	r30
    539e:	00 1c       	adc	r0, r0
    53a0:	ca f7       	brpl	.-14     	; 0x5394 <__divsf3_pse+0x2c>
    53a2:	29 d0       	rcall	.+82     	; 0x53f6 <__divsf3_pse+0x8e>
    53a4:	fe 2f       	mov	r31, r30
    53a6:	27 d0       	rcall	.+78     	; 0x53f6 <__divsf3_pse+0x8e>
    53a8:	66 0f       	add	r22, r22
    53aa:	77 1f       	adc	r23, r23
    53ac:	88 1f       	adc	r24, r24
    53ae:	bb 1f       	adc	r27, r27
    53b0:	26 17       	cp	r18, r22
    53b2:	37 07       	cpc	r19, r23
    53b4:	48 07       	cpc	r20, r24
    53b6:	ab 07       	cpc	r26, r27
    53b8:	b0 e8       	ldi	r27, 0x80	; 128
    53ba:	09 f0       	breq	.+2      	; 0x53be <__divsf3_pse+0x56>
    53bc:	bb 0b       	sbc	r27, r27
    53be:	80 2d       	mov	r24, r0
    53c0:	bf 01       	movw	r22, r30
    53c2:	ff 27       	eor	r31, r31
    53c4:	93 58       	subi	r25, 0x83	; 131
    53c6:	5f 4f       	sbci	r21, 0xFF	; 255
    53c8:	2a f0       	brmi	.+10     	; 0x53d4 <__divsf3_pse+0x6c>
    53ca:	9e 3f       	cpi	r25, 0xFE	; 254
    53cc:	51 05       	cpc	r21, r1
    53ce:	68 f0       	brcs	.+26     	; 0x53ea <__divsf3_pse+0x82>
    53d0:	d1 c0       	rjmp	.+418    	; 0x5574 <__fp_inf>
    53d2:	40 c1       	rjmp	.+640    	; 0x5654 <__fp_szero>
    53d4:	5f 3f       	cpi	r21, 0xFF	; 255
    53d6:	ec f3       	brlt	.-6      	; 0x53d2 <__divsf3_pse+0x6a>
    53d8:	98 3e       	cpi	r25, 0xE8	; 232
    53da:	dc f3       	brlt	.-10     	; 0x53d2 <__divsf3_pse+0x6a>
    53dc:	86 95       	lsr	r24
    53de:	77 95       	ror	r23
    53e0:	67 95       	ror	r22
    53e2:	b7 95       	ror	r27
    53e4:	f7 95       	ror	r31
    53e6:	9f 5f       	subi	r25, 0xFF	; 255
    53e8:	c9 f7       	brne	.-14     	; 0x53dc <__divsf3_pse+0x74>
    53ea:	88 0f       	add	r24, r24
    53ec:	91 1d       	adc	r25, r1
    53ee:	96 95       	lsr	r25
    53f0:	87 95       	ror	r24
    53f2:	97 f9       	bld	r25, 7
    53f4:	08 95       	ret
    53f6:	e1 e0       	ldi	r30, 0x01	; 1
    53f8:	66 0f       	add	r22, r22
    53fa:	77 1f       	adc	r23, r23
    53fc:	88 1f       	adc	r24, r24
    53fe:	bb 1f       	adc	r27, r27
    5400:	62 17       	cp	r22, r18
    5402:	73 07       	cpc	r23, r19
    5404:	84 07       	cpc	r24, r20
    5406:	ba 07       	cpc	r27, r26
    5408:	20 f0       	brcs	.+8      	; 0x5412 <__divsf3_pse+0xaa>
    540a:	62 1b       	sub	r22, r18
    540c:	73 0b       	sbc	r23, r19
    540e:	84 0b       	sbc	r24, r20
    5410:	ba 0b       	sbc	r27, r26
    5412:	ee 1f       	adc	r30, r30
    5414:	88 f7       	brcc	.-30     	; 0x53f8 <__divsf3_pse+0x90>
    5416:	e0 95       	com	r30
    5418:	08 95       	ret

0000541a <__fixsfsi>:
    541a:	04 d0       	rcall	.+8      	; 0x5424 <__fixunssfsi>
    541c:	68 94       	set
    541e:	b1 11       	cpse	r27, r1
    5420:	19 c1       	rjmp	.+562    	; 0x5654 <__fp_szero>
    5422:	08 95       	ret

00005424 <__fixunssfsi>:
    5424:	fc d0       	rcall	.+504    	; 0x561e <__fp_splitA>
    5426:	88 f0       	brcs	.+34     	; 0x544a <__fixunssfsi+0x26>
    5428:	9f 57       	subi	r25, 0x7F	; 127
    542a:	90 f0       	brcs	.+36     	; 0x5450 <__fixunssfsi+0x2c>
    542c:	b9 2f       	mov	r27, r25
    542e:	99 27       	eor	r25, r25
    5430:	b7 51       	subi	r27, 0x17	; 23
    5432:	a0 f0       	brcs	.+40     	; 0x545c <__fixunssfsi+0x38>
    5434:	d1 f0       	breq	.+52     	; 0x546a <__fixunssfsi+0x46>
    5436:	66 0f       	add	r22, r22
    5438:	77 1f       	adc	r23, r23
    543a:	88 1f       	adc	r24, r24
    543c:	99 1f       	adc	r25, r25
    543e:	1a f0       	brmi	.+6      	; 0x5446 <__fixunssfsi+0x22>
    5440:	ba 95       	dec	r27
    5442:	c9 f7       	brne	.-14     	; 0x5436 <__fixunssfsi+0x12>
    5444:	12 c0       	rjmp	.+36     	; 0x546a <__fixunssfsi+0x46>
    5446:	b1 30       	cpi	r27, 0x01	; 1
    5448:	81 f0       	breq	.+32     	; 0x546a <__fixunssfsi+0x46>
    544a:	03 d1       	rcall	.+518    	; 0x5652 <__fp_zero>
    544c:	b1 e0       	ldi	r27, 0x01	; 1
    544e:	08 95       	ret
    5450:	00 c1       	rjmp	.+512    	; 0x5652 <__fp_zero>
    5452:	67 2f       	mov	r22, r23
    5454:	78 2f       	mov	r23, r24
    5456:	88 27       	eor	r24, r24
    5458:	b8 5f       	subi	r27, 0xF8	; 248
    545a:	39 f0       	breq	.+14     	; 0x546a <__fixunssfsi+0x46>
    545c:	b9 3f       	cpi	r27, 0xF9	; 249
    545e:	cc f3       	brlt	.-14     	; 0x5452 <__fixunssfsi+0x2e>
    5460:	86 95       	lsr	r24
    5462:	77 95       	ror	r23
    5464:	67 95       	ror	r22
    5466:	b3 95       	inc	r27
    5468:	d9 f7       	brne	.-10     	; 0x5460 <__fixunssfsi+0x3c>
    546a:	3e f4       	brtc	.+14     	; 0x547a <__fixunssfsi+0x56>
    546c:	90 95       	com	r25
    546e:	80 95       	com	r24
    5470:	70 95       	com	r23
    5472:	61 95       	neg	r22
    5474:	7f 4f       	sbci	r23, 0xFF	; 255
    5476:	8f 4f       	sbci	r24, 0xFF	; 255
    5478:	9f 4f       	sbci	r25, 0xFF	; 255
    547a:	08 95       	ret

0000547c <__floatunsisf>:
    547c:	e8 94       	clt
    547e:	09 c0       	rjmp	.+18     	; 0x5492 <__floatsisf+0x12>

00005480 <__floatsisf>:
    5480:	97 fb       	bst	r25, 7
    5482:	3e f4       	brtc	.+14     	; 0x5492 <__floatsisf+0x12>
    5484:	90 95       	com	r25
    5486:	80 95       	com	r24
    5488:	70 95       	com	r23
    548a:	61 95       	neg	r22
    548c:	7f 4f       	sbci	r23, 0xFF	; 255
    548e:	8f 4f       	sbci	r24, 0xFF	; 255
    5490:	9f 4f       	sbci	r25, 0xFF	; 255
    5492:	99 23       	and	r25, r25
    5494:	a9 f0       	breq	.+42     	; 0x54c0 <__floatsisf+0x40>
    5496:	f9 2f       	mov	r31, r25
    5498:	96 e9       	ldi	r25, 0x96	; 150
    549a:	bb 27       	eor	r27, r27
    549c:	93 95       	inc	r25
    549e:	f6 95       	lsr	r31
    54a0:	87 95       	ror	r24
    54a2:	77 95       	ror	r23
    54a4:	67 95       	ror	r22
    54a6:	b7 95       	ror	r27
    54a8:	f1 11       	cpse	r31, r1
    54aa:	f8 cf       	rjmp	.-16     	; 0x549c <__floatsisf+0x1c>
    54ac:	fa f4       	brpl	.+62     	; 0x54ec <__floatsisf+0x6c>
    54ae:	bb 0f       	add	r27, r27
    54b0:	11 f4       	brne	.+4      	; 0x54b6 <__floatsisf+0x36>
    54b2:	60 ff       	sbrs	r22, 0
    54b4:	1b c0       	rjmp	.+54     	; 0x54ec <__floatsisf+0x6c>
    54b6:	6f 5f       	subi	r22, 0xFF	; 255
    54b8:	7f 4f       	sbci	r23, 0xFF	; 255
    54ba:	8f 4f       	sbci	r24, 0xFF	; 255
    54bc:	9f 4f       	sbci	r25, 0xFF	; 255
    54be:	16 c0       	rjmp	.+44     	; 0x54ec <__floatsisf+0x6c>
    54c0:	88 23       	and	r24, r24
    54c2:	11 f0       	breq	.+4      	; 0x54c8 <__floatsisf+0x48>
    54c4:	96 e9       	ldi	r25, 0x96	; 150
    54c6:	11 c0       	rjmp	.+34     	; 0x54ea <__floatsisf+0x6a>
    54c8:	77 23       	and	r23, r23
    54ca:	21 f0       	breq	.+8      	; 0x54d4 <__floatsisf+0x54>
    54cc:	9e e8       	ldi	r25, 0x8E	; 142
    54ce:	87 2f       	mov	r24, r23
    54d0:	76 2f       	mov	r23, r22
    54d2:	05 c0       	rjmp	.+10     	; 0x54de <__floatsisf+0x5e>
    54d4:	66 23       	and	r22, r22
    54d6:	71 f0       	breq	.+28     	; 0x54f4 <__floatsisf+0x74>
    54d8:	96 e8       	ldi	r25, 0x86	; 134
    54da:	86 2f       	mov	r24, r22
    54dc:	70 e0       	ldi	r23, 0x00	; 0
    54de:	60 e0       	ldi	r22, 0x00	; 0
    54e0:	2a f0       	brmi	.+10     	; 0x54ec <__floatsisf+0x6c>
    54e2:	9a 95       	dec	r25
    54e4:	66 0f       	add	r22, r22
    54e6:	77 1f       	adc	r23, r23
    54e8:	88 1f       	adc	r24, r24
    54ea:	da f7       	brpl	.-10     	; 0x54e2 <__floatsisf+0x62>
    54ec:	88 0f       	add	r24, r24
    54ee:	96 95       	lsr	r25
    54f0:	87 95       	ror	r24
    54f2:	97 f9       	bld	r25, 7
    54f4:	08 95       	ret

000054f6 <__fp_arccos>:
    54f6:	df 93       	push	r29
    54f8:	cf 93       	push	r28
    54fa:	1f 93       	push	r17
    54fc:	0f 93       	push	r16
    54fe:	8b 01       	movw	r16, r22
    5500:	ec 01       	movw	r28, r24
    5502:	e0 e2       	ldi	r30, 0x20	; 32
    5504:	f2 e0       	ldi	r31, 0x02	; 2
    5506:	3f d0       	rcall	.+126    	; 0x5586 <__fp_powser>
    5508:	71 d0       	rcall	.+226    	; 0x55ec <__fp_round>
    550a:	98 01       	movw	r18, r16
    550c:	ae 01       	movw	r20, r28
    550e:	8b 01       	movw	r16, r22
    5510:	ec 01       	movw	r28, r24
    5512:	60 e0       	ldi	r22, 0x00	; 0
    5514:	70 e0       	ldi	r23, 0x00	; 0
    5516:	80 e8       	ldi	r24, 0x80	; 128
    5518:	9f e3       	ldi	r25, 0x3F	; 63
    551a:	ae de       	rcall	.-676    	; 0x5278 <__subsf3>
    551c:	58 d1       	rcall	.+688    	; 0x57ce <sqrt>
    551e:	98 01       	movw	r18, r16
    5520:	ae 01       	movw	r20, r28
    5522:	0f 91       	pop	r16
    5524:	1f 91       	pop	r17
    5526:	cf 91       	pop	r28
    5528:	df 91       	pop	r29
    552a:	aa c0       	rjmp	.+340    	; 0x5680 <__mulsf3x>

0000552c <__fp_cmp>:
    552c:	99 0f       	add	r25, r25
    552e:	00 08       	sbc	r0, r0
    5530:	55 0f       	add	r21, r21
    5532:	aa 0b       	sbc	r26, r26
    5534:	e0 e8       	ldi	r30, 0x80	; 128
    5536:	fe ef       	ldi	r31, 0xFE	; 254
    5538:	16 16       	cp	r1, r22
    553a:	17 06       	cpc	r1, r23
    553c:	e8 07       	cpc	r30, r24
    553e:	f9 07       	cpc	r31, r25
    5540:	c0 f0       	brcs	.+48     	; 0x5572 <__fp_cmp+0x46>
    5542:	12 16       	cp	r1, r18
    5544:	13 06       	cpc	r1, r19
    5546:	e4 07       	cpc	r30, r20
    5548:	f5 07       	cpc	r31, r21
    554a:	98 f0       	brcs	.+38     	; 0x5572 <__fp_cmp+0x46>
    554c:	62 1b       	sub	r22, r18
    554e:	73 0b       	sbc	r23, r19
    5550:	84 0b       	sbc	r24, r20
    5552:	95 0b       	sbc	r25, r21
    5554:	39 f4       	brne	.+14     	; 0x5564 <__fp_cmp+0x38>
    5556:	0a 26       	eor	r0, r26
    5558:	61 f0       	breq	.+24     	; 0x5572 <__fp_cmp+0x46>
    555a:	23 2b       	or	r18, r19
    555c:	24 2b       	or	r18, r20
    555e:	25 2b       	or	r18, r21
    5560:	21 f4       	brne	.+8      	; 0x556a <__fp_cmp+0x3e>
    5562:	08 95       	ret
    5564:	0a 26       	eor	r0, r26
    5566:	09 f4       	brne	.+2      	; 0x556a <__fp_cmp+0x3e>
    5568:	a1 40       	sbci	r26, 0x01	; 1
    556a:	a6 95       	lsr	r26
    556c:	8f ef       	ldi	r24, 0xFF	; 255
    556e:	81 1d       	adc	r24, r1
    5570:	81 1d       	adc	r24, r1
    5572:	08 95       	ret

00005574 <__fp_inf>:
    5574:	97 f9       	bld	r25, 7
    5576:	9f 67       	ori	r25, 0x7F	; 127
    5578:	80 e8       	ldi	r24, 0x80	; 128
    557a:	70 e0       	ldi	r23, 0x00	; 0
    557c:	60 e0       	ldi	r22, 0x00	; 0
    557e:	08 95       	ret

00005580 <__fp_nan>:
    5580:	9f ef       	ldi	r25, 0xFF	; 255
    5582:	80 ec       	ldi	r24, 0xC0	; 192
    5584:	08 95       	ret

00005586 <__fp_powser>:
    5586:	df 93       	push	r29
    5588:	cf 93       	push	r28
    558a:	1f 93       	push	r17
    558c:	0f 93       	push	r16
    558e:	ff 92       	push	r15
    5590:	ef 92       	push	r14
    5592:	df 92       	push	r13
    5594:	7b 01       	movw	r14, r22
    5596:	8c 01       	movw	r16, r24
    5598:	68 94       	set
    559a:	05 c0       	rjmp	.+10     	; 0x55a6 <__fp_powser+0x20>
    559c:	da 2e       	mov	r13, r26
    559e:	ef 01       	movw	r28, r30
    55a0:	6f d0       	rcall	.+222    	; 0x5680 <__mulsf3x>
    55a2:	fe 01       	movw	r30, r28
    55a4:	e8 94       	clt
    55a6:	a5 91       	lpm	r26, Z+
    55a8:	25 91       	lpm	r18, Z+
    55aa:	35 91       	lpm	r19, Z+
    55ac:	45 91       	lpm	r20, Z+
    55ae:	55 91       	lpm	r21, Z+
    55b0:	ae f3       	brts	.-22     	; 0x559c <__fp_powser+0x16>
    55b2:	ef 01       	movw	r28, r30
    55b4:	73 de       	rcall	.-794    	; 0x529c <__addsf3x>
    55b6:	fe 01       	movw	r30, r28
    55b8:	97 01       	movw	r18, r14
    55ba:	a8 01       	movw	r20, r16
    55bc:	da 94       	dec	r13
    55be:	79 f7       	brne	.-34     	; 0x559e <__fp_powser+0x18>
    55c0:	df 90       	pop	r13
    55c2:	ef 90       	pop	r14
    55c4:	ff 90       	pop	r15
    55c6:	0f 91       	pop	r16
    55c8:	1f 91       	pop	r17
    55ca:	cf 91       	pop	r28
    55cc:	df 91       	pop	r29
    55ce:	08 95       	ret

000055d0 <__fp_pscA>:
    55d0:	00 24       	eor	r0, r0
    55d2:	0a 94       	dec	r0
    55d4:	16 16       	cp	r1, r22
    55d6:	17 06       	cpc	r1, r23
    55d8:	18 06       	cpc	r1, r24
    55da:	09 06       	cpc	r0, r25
    55dc:	08 95       	ret

000055de <__fp_pscB>:
    55de:	00 24       	eor	r0, r0
    55e0:	0a 94       	dec	r0
    55e2:	12 16       	cp	r1, r18
    55e4:	13 06       	cpc	r1, r19
    55e6:	14 06       	cpc	r1, r20
    55e8:	05 06       	cpc	r0, r21
    55ea:	08 95       	ret

000055ec <__fp_round>:
    55ec:	09 2e       	mov	r0, r25
    55ee:	03 94       	inc	r0
    55f0:	00 0c       	add	r0, r0
    55f2:	11 f4       	brne	.+4      	; 0x55f8 <__fp_round+0xc>
    55f4:	88 23       	and	r24, r24
    55f6:	52 f0       	brmi	.+20     	; 0x560c <__fp_round+0x20>
    55f8:	bb 0f       	add	r27, r27
    55fa:	40 f4       	brcc	.+16     	; 0x560c <__fp_round+0x20>
    55fc:	bf 2b       	or	r27, r31
    55fe:	11 f4       	brne	.+4      	; 0x5604 <__fp_round+0x18>
    5600:	60 ff       	sbrs	r22, 0
    5602:	04 c0       	rjmp	.+8      	; 0x560c <__fp_round+0x20>
    5604:	6f 5f       	subi	r22, 0xFF	; 255
    5606:	7f 4f       	sbci	r23, 0xFF	; 255
    5608:	8f 4f       	sbci	r24, 0xFF	; 255
    560a:	9f 4f       	sbci	r25, 0xFF	; 255
    560c:	08 95       	ret

0000560e <__fp_split3>:
    560e:	57 fd       	sbrc	r21, 7
    5610:	90 58       	subi	r25, 0x80	; 128
    5612:	44 0f       	add	r20, r20
    5614:	55 1f       	adc	r21, r21
    5616:	59 f0       	breq	.+22     	; 0x562e <__fp_splitA+0x10>
    5618:	5f 3f       	cpi	r21, 0xFF	; 255
    561a:	71 f0       	breq	.+28     	; 0x5638 <__fp_splitA+0x1a>
    561c:	47 95       	ror	r20

0000561e <__fp_splitA>:
    561e:	88 0f       	add	r24, r24
    5620:	97 fb       	bst	r25, 7
    5622:	99 1f       	adc	r25, r25
    5624:	61 f0       	breq	.+24     	; 0x563e <__fp_splitA+0x20>
    5626:	9f 3f       	cpi	r25, 0xFF	; 255
    5628:	79 f0       	breq	.+30     	; 0x5648 <__fp_splitA+0x2a>
    562a:	87 95       	ror	r24
    562c:	08 95       	ret
    562e:	12 16       	cp	r1, r18
    5630:	13 06       	cpc	r1, r19
    5632:	14 06       	cpc	r1, r20
    5634:	55 1f       	adc	r21, r21
    5636:	f2 cf       	rjmp	.-28     	; 0x561c <__fp_split3+0xe>
    5638:	46 95       	lsr	r20
    563a:	f1 df       	rcall	.-30     	; 0x561e <__fp_splitA>
    563c:	08 c0       	rjmp	.+16     	; 0x564e <__fp_splitA+0x30>
    563e:	16 16       	cp	r1, r22
    5640:	17 06       	cpc	r1, r23
    5642:	18 06       	cpc	r1, r24
    5644:	99 1f       	adc	r25, r25
    5646:	f1 cf       	rjmp	.-30     	; 0x562a <__fp_splitA+0xc>
    5648:	86 95       	lsr	r24
    564a:	71 05       	cpc	r23, r1
    564c:	61 05       	cpc	r22, r1
    564e:	08 94       	sec
    5650:	08 95       	ret

00005652 <__fp_zero>:
    5652:	e8 94       	clt

00005654 <__fp_szero>:
    5654:	bb 27       	eor	r27, r27
    5656:	66 27       	eor	r22, r22
    5658:	77 27       	eor	r23, r23
    565a:	cb 01       	movw	r24, r22
    565c:	97 f9       	bld	r25, 7
    565e:	08 95       	ret

00005660 <__gesf2>:
    5660:	65 df       	rcall	.-310    	; 0x552c <__fp_cmp>
    5662:	08 f4       	brcc	.+2      	; 0x5666 <__gesf2+0x6>
    5664:	8f ef       	ldi	r24, 0xFF	; 255
    5666:	08 95       	ret

00005668 <__mulsf3>:
    5668:	0b d0       	rcall	.+22     	; 0x5680 <__mulsf3x>
    566a:	c0 cf       	rjmp	.-128    	; 0x55ec <__fp_round>
    566c:	b1 df       	rcall	.-158    	; 0x55d0 <__fp_pscA>
    566e:	28 f0       	brcs	.+10     	; 0x567a <__mulsf3+0x12>
    5670:	b6 df       	rcall	.-148    	; 0x55de <__fp_pscB>
    5672:	18 f0       	brcs	.+6      	; 0x567a <__mulsf3+0x12>
    5674:	95 23       	and	r25, r21
    5676:	09 f0       	breq	.+2      	; 0x567a <__mulsf3+0x12>
    5678:	7d cf       	rjmp	.-262    	; 0x5574 <__fp_inf>
    567a:	82 cf       	rjmp	.-252    	; 0x5580 <__fp_nan>
    567c:	11 24       	eor	r1, r1
    567e:	ea cf       	rjmp	.-44     	; 0x5654 <__fp_szero>

00005680 <__mulsf3x>:
    5680:	c6 df       	rcall	.-116    	; 0x560e <__fp_split3>
    5682:	a0 f3       	brcs	.-24     	; 0x566c <__mulsf3+0x4>

00005684 <__mulsf3_pse>:
    5684:	95 9f       	mul	r25, r21
    5686:	d1 f3       	breq	.-12     	; 0x567c <__mulsf3+0x14>
    5688:	95 0f       	add	r25, r21
    568a:	50 e0       	ldi	r21, 0x00	; 0
    568c:	55 1f       	adc	r21, r21
    568e:	62 9f       	mul	r22, r18
    5690:	f0 01       	movw	r30, r0
    5692:	72 9f       	mul	r23, r18
    5694:	bb 27       	eor	r27, r27
    5696:	f0 0d       	add	r31, r0
    5698:	b1 1d       	adc	r27, r1
    569a:	63 9f       	mul	r22, r19
    569c:	aa 27       	eor	r26, r26
    569e:	f0 0d       	add	r31, r0
    56a0:	b1 1d       	adc	r27, r1
    56a2:	aa 1f       	adc	r26, r26
    56a4:	64 9f       	mul	r22, r20
    56a6:	66 27       	eor	r22, r22
    56a8:	b0 0d       	add	r27, r0
    56aa:	a1 1d       	adc	r26, r1
    56ac:	66 1f       	adc	r22, r22
    56ae:	82 9f       	mul	r24, r18
    56b0:	22 27       	eor	r18, r18
    56b2:	b0 0d       	add	r27, r0
    56b4:	a1 1d       	adc	r26, r1
    56b6:	62 1f       	adc	r22, r18
    56b8:	73 9f       	mul	r23, r19
    56ba:	b0 0d       	add	r27, r0
    56bc:	a1 1d       	adc	r26, r1
    56be:	62 1f       	adc	r22, r18
    56c0:	83 9f       	mul	r24, r19
    56c2:	a0 0d       	add	r26, r0
    56c4:	61 1d       	adc	r22, r1
    56c6:	22 1f       	adc	r18, r18
    56c8:	74 9f       	mul	r23, r20
    56ca:	33 27       	eor	r19, r19
    56cc:	a0 0d       	add	r26, r0
    56ce:	61 1d       	adc	r22, r1
    56d0:	23 1f       	adc	r18, r19
    56d2:	84 9f       	mul	r24, r20
    56d4:	60 0d       	add	r22, r0
    56d6:	21 1d       	adc	r18, r1
    56d8:	82 2f       	mov	r24, r18
    56da:	76 2f       	mov	r23, r22
    56dc:	6a 2f       	mov	r22, r26
    56de:	11 24       	eor	r1, r1
    56e0:	9f 57       	subi	r25, 0x7F	; 127
    56e2:	50 40       	sbci	r21, 0x00	; 0
    56e4:	8a f0       	brmi	.+34     	; 0x5708 <__mulsf3_pse+0x84>
    56e6:	e1 f0       	breq	.+56     	; 0x5720 <__mulsf3_pse+0x9c>
    56e8:	88 23       	and	r24, r24
    56ea:	4a f0       	brmi	.+18     	; 0x56fe <__mulsf3_pse+0x7a>
    56ec:	ee 0f       	add	r30, r30
    56ee:	ff 1f       	adc	r31, r31
    56f0:	bb 1f       	adc	r27, r27
    56f2:	66 1f       	adc	r22, r22
    56f4:	77 1f       	adc	r23, r23
    56f6:	88 1f       	adc	r24, r24
    56f8:	91 50       	subi	r25, 0x01	; 1
    56fa:	50 40       	sbci	r21, 0x00	; 0
    56fc:	a9 f7       	brne	.-22     	; 0x56e8 <__mulsf3_pse+0x64>
    56fe:	9e 3f       	cpi	r25, 0xFE	; 254
    5700:	51 05       	cpc	r21, r1
    5702:	70 f0       	brcs	.+28     	; 0x5720 <__mulsf3_pse+0x9c>
    5704:	37 cf       	rjmp	.-402    	; 0x5574 <__fp_inf>
    5706:	a6 cf       	rjmp	.-180    	; 0x5654 <__fp_szero>
    5708:	5f 3f       	cpi	r21, 0xFF	; 255
    570a:	ec f3       	brlt	.-6      	; 0x5706 <__mulsf3_pse+0x82>
    570c:	98 3e       	cpi	r25, 0xE8	; 232
    570e:	dc f3       	brlt	.-10     	; 0x5706 <__mulsf3_pse+0x82>
    5710:	86 95       	lsr	r24
    5712:	77 95       	ror	r23
    5714:	67 95       	ror	r22
    5716:	b7 95       	ror	r27
    5718:	f7 95       	ror	r31
    571a:	e7 95       	ror	r30
    571c:	9f 5f       	subi	r25, 0xFF	; 255
    571e:	c1 f7       	brne	.-16     	; 0x5710 <__mulsf3_pse+0x8c>
    5720:	fe 2b       	or	r31, r30
    5722:	88 0f       	add	r24, r24
    5724:	91 1d       	adc	r25, r1
    5726:	96 95       	lsr	r25
    5728:	87 95       	ror	r24
    572a:	97 f9       	bld	r25, 7
    572c:	08 95       	ret

0000572e <pow>:
    572e:	fa 01       	movw	r30, r20
    5730:	ee 0f       	add	r30, r30
    5732:	ff 1f       	adc	r31, r31
    5734:	30 96       	adiw	r30, 0x00	; 0
    5736:	21 05       	cpc	r18, r1
    5738:	31 05       	cpc	r19, r1
    573a:	99 f1       	breq	.+102    	; 0x57a2 <pow+0x74>
    573c:	61 15       	cp	r22, r1
    573e:	71 05       	cpc	r23, r1
    5740:	61 f4       	brne	.+24     	; 0x575a <pow+0x2c>
    5742:	80 38       	cpi	r24, 0x80	; 128
    5744:	bf e3       	ldi	r27, 0x3F	; 63
    5746:	9b 07       	cpc	r25, r27
    5748:	49 f1       	breq	.+82     	; 0x579c <pow+0x6e>
    574a:	68 94       	set
    574c:	90 38       	cpi	r25, 0x80	; 128
    574e:	81 05       	cpc	r24, r1
    5750:	61 f0       	breq	.+24     	; 0x576a <pow+0x3c>
    5752:	80 38       	cpi	r24, 0x80	; 128
    5754:	bf ef       	ldi	r27, 0xFF	; 255
    5756:	9b 07       	cpc	r25, r27
    5758:	41 f0       	breq	.+16     	; 0x576a <pow+0x3c>
    575a:	99 23       	and	r25, r25
    575c:	42 f5       	brpl	.+80     	; 0x57ae <pow+0x80>
    575e:	ff 3f       	cpi	r31, 0xFF	; 255
    5760:	e1 05       	cpc	r30, r1
    5762:	31 05       	cpc	r19, r1
    5764:	21 05       	cpc	r18, r1
    5766:	11 f1       	breq	.+68     	; 0x57ac <pow+0x7e>
    5768:	e8 94       	clt
    576a:	08 94       	sec
    576c:	e7 95       	ror	r30
    576e:	d9 01       	movw	r26, r18
    5770:	aa 23       	and	r26, r26
    5772:	29 f4       	brne	.+10     	; 0x577e <pow+0x50>
    5774:	ab 2f       	mov	r26, r27
    5776:	be 2f       	mov	r27, r30
    5778:	f8 5f       	subi	r31, 0xF8	; 248
    577a:	d0 f3       	brcs	.-12     	; 0x5770 <pow+0x42>
    577c:	10 c0       	rjmp	.+32     	; 0x579e <pow+0x70>
    577e:	ff 5f       	subi	r31, 0xFF	; 255
    5780:	70 f4       	brcc	.+28     	; 0x579e <pow+0x70>
    5782:	a6 95       	lsr	r26
    5784:	e0 f7       	brcc	.-8      	; 0x577e <pow+0x50>
    5786:	f7 39       	cpi	r31, 0x97	; 151
    5788:	50 f0       	brcs	.+20     	; 0x579e <pow+0x70>
    578a:	19 f0       	breq	.+6      	; 0x5792 <pow+0x64>
    578c:	ff 3a       	cpi	r31, 0xAF	; 175
    578e:	38 f4       	brcc	.+14     	; 0x579e <pow+0x70>
    5790:	9f 77       	andi	r25, 0x7F	; 127
    5792:	9f 93       	push	r25
    5794:	0c d0       	rcall	.+24     	; 0x57ae <pow+0x80>
    5796:	0f 90       	pop	r0
    5798:	07 fc       	sbrc	r0, 7
    579a:	90 58       	subi	r25, 0x80	; 128
    579c:	08 95       	ret
    579e:	3e f0       	brts	.+14     	; 0x57ae <pow+0x80>
    57a0:	ef ce       	rjmp	.-546    	; 0x5580 <__fp_nan>
    57a2:	60 e0       	ldi	r22, 0x00	; 0
    57a4:	70 e0       	ldi	r23, 0x00	; 0
    57a6:	80 e8       	ldi	r24, 0x80	; 128
    57a8:	9f e3       	ldi	r25, 0x3F	; 63
    57aa:	08 95       	ret
    57ac:	4f e7       	ldi	r20, 0x7F	; 127
    57ae:	9f 77       	andi	r25, 0x7F	; 127
    57b0:	5f 93       	push	r21
    57b2:	4f 93       	push	r20
    57b4:	3f 93       	push	r19
    57b6:	2f 93       	push	r18
    57b8:	09 d1       	rcall	.+530    	; 0x59cc <log>
    57ba:	2f 91       	pop	r18
    57bc:	3f 91       	pop	r19
    57be:	4f 91       	pop	r20
    57c0:	5f 91       	pop	r21
    57c2:	52 df       	rcall	.-348    	; 0x5668 <__mulsf3>
    57c4:	4e c0       	rjmp	.+156    	; 0x5862 <exp>
    57c6:	11 f4       	brne	.+4      	; 0x57cc <pow+0x9e>
    57c8:	0e f4       	brtc	.+2      	; 0x57cc <pow+0x9e>
    57ca:	da ce       	rjmp	.-588    	; 0x5580 <__fp_nan>
    57cc:	91 c0       	rjmp	.+290    	; 0x58f0 <__fp_mpack>

000057ce <sqrt>:
    57ce:	27 df       	rcall	.-434    	; 0x561e <__fp_splitA>
    57d0:	d0 f3       	brcs	.-12     	; 0x57c6 <pow+0x98>
    57d2:	99 23       	and	r25, r25
    57d4:	d9 f3       	breq	.-10     	; 0x57cc <pow+0x9e>
    57d6:	ce f3       	brts	.-14     	; 0x57ca <pow+0x9c>
    57d8:	9f 57       	subi	r25, 0x7F	; 127
    57da:	55 0b       	sbc	r21, r21
    57dc:	87 ff       	sbrs	r24, 7
    57de:	96 d0       	rcall	.+300    	; 0x590c <__fp_norm2>
    57e0:	00 24       	eor	r0, r0
    57e2:	a0 e6       	ldi	r26, 0x60	; 96
    57e4:	40 ea       	ldi	r20, 0xA0	; 160
    57e6:	90 01       	movw	r18, r0
    57e8:	80 58       	subi	r24, 0x80	; 128
    57ea:	56 95       	lsr	r21
    57ec:	97 95       	ror	r25
    57ee:	28 f4       	brcc	.+10     	; 0x57fa <sqrt+0x2c>
    57f0:	80 5c       	subi	r24, 0xC0	; 192
    57f2:	66 0f       	add	r22, r22
    57f4:	77 1f       	adc	r23, r23
    57f6:	88 1f       	adc	r24, r24
    57f8:	20 f0       	brcs	.+8      	; 0x5802 <sqrt+0x34>
    57fa:	26 17       	cp	r18, r22
    57fc:	37 07       	cpc	r19, r23
    57fe:	48 07       	cpc	r20, r24
    5800:	30 f4       	brcc	.+12     	; 0x580e <sqrt+0x40>
    5802:	62 1b       	sub	r22, r18
    5804:	73 0b       	sbc	r23, r19
    5806:	84 0b       	sbc	r24, r20
    5808:	20 29       	or	r18, r0
    580a:	31 29       	or	r19, r1
    580c:	4a 2b       	or	r20, r26
    580e:	a6 95       	lsr	r26
    5810:	17 94       	ror	r1
    5812:	07 94       	ror	r0
    5814:	20 25       	eor	r18, r0
    5816:	31 25       	eor	r19, r1
    5818:	4a 27       	eor	r20, r26
    581a:	58 f7       	brcc	.-42     	; 0x57f2 <sqrt+0x24>
    581c:	66 0f       	add	r22, r22
    581e:	77 1f       	adc	r23, r23
    5820:	88 1f       	adc	r24, r24
    5822:	20 f0       	brcs	.+8      	; 0x582c <sqrt+0x5e>
    5824:	26 17       	cp	r18, r22
    5826:	37 07       	cpc	r19, r23
    5828:	48 07       	cpc	r20, r24
    582a:	30 f4       	brcc	.+12     	; 0x5838 <sqrt+0x6a>
    582c:	62 0b       	sbc	r22, r18
    582e:	73 0b       	sbc	r23, r19
    5830:	84 0b       	sbc	r24, r20
    5832:	20 0d       	add	r18, r0
    5834:	31 1d       	adc	r19, r1
    5836:	41 1d       	adc	r20, r1
    5838:	a0 95       	com	r26
    583a:	81 f7       	brne	.-32     	; 0x581c <sqrt+0x4e>
    583c:	b9 01       	movw	r22, r18
    583e:	84 2f       	mov	r24, r20
    5840:	91 58       	subi	r25, 0x81	; 129
    5842:	88 0f       	add	r24, r24
    5844:	96 95       	lsr	r25
    5846:	87 95       	ror	r24
    5848:	08 95       	ret

0000584a <trunc>:
    584a:	67 d0       	rcall	.+206    	; 0x591a <__fp_trunc>
    584c:	20 f0       	brcs	.+8      	; 0x5856 <trunc+0xc>
    584e:	9f 37       	cpi	r25, 0x7F	; 127
    5850:	08 f4       	brcc	.+2      	; 0x5854 <trunc+0xa>
    5852:	00 cf       	rjmp	.-512    	; 0x5654 <__fp_szero>
    5854:	32 c0       	rjmp	.+100    	; 0x58ba <__fp_mintl>
    5856:	4c c0       	rjmp	.+152    	; 0x58f0 <__fp_mpack>
    5858:	19 f4       	brne	.+6      	; 0x5860 <trunc+0x16>
    585a:	0e f0       	brts	.+2      	; 0x585e <trunc+0x14>
    585c:	8b ce       	rjmp	.-746    	; 0x5574 <__fp_inf>
    585e:	f9 ce       	rjmp	.-526    	; 0x5652 <__fp_zero>
    5860:	8f ce       	rjmp	.-738    	; 0x5580 <__fp_nan>

00005862 <exp>:
    5862:	dd de       	rcall	.-582    	; 0x561e <__fp_splitA>
    5864:	c8 f3       	brcs	.-14     	; 0x5858 <trunc+0xe>
    5866:	96 38       	cpi	r25, 0x86	; 134
    5868:	c0 f7       	brcc	.-16     	; 0x585a <trunc+0x10>
    586a:	07 f8       	bld	r0, 7
    586c:	0f 92       	push	r0
    586e:	e8 94       	clt
    5870:	2b e3       	ldi	r18, 0x3B	; 59
    5872:	3a ea       	ldi	r19, 0xAA	; 170
    5874:	48 eb       	ldi	r20, 0xB8	; 184
    5876:	5f e7       	ldi	r21, 0x7F	; 127
    5878:	05 df       	rcall	.-502    	; 0x5684 <__mulsf3_pse>
    587a:	0f 92       	push	r0
    587c:	0f 92       	push	r0
    587e:	0f 92       	push	r0
    5880:	4d b7       	in	r20, 0x3d	; 61
    5882:	5e b7       	in	r21, 0x3e	; 62
    5884:	0f 92       	push	r0
    5886:	e2 d0       	rcall	.+452    	; 0x5a4c <modf>
    5888:	e8 e4       	ldi	r30, 0x48	; 72
    588a:	f2 e0       	ldi	r31, 0x02	; 2
    588c:	7c de       	rcall	.-776    	; 0x5586 <__fp_powser>
    588e:	4f 91       	pop	r20
    5890:	5f 91       	pop	r21
    5892:	ef 91       	pop	r30
    5894:	ff 91       	pop	r31
    5896:	e5 95       	asr	r30
    5898:	ee 1f       	adc	r30, r30
    589a:	ff 1f       	adc	r31, r31
    589c:	49 f0       	breq	.+18     	; 0x58b0 <exp+0x4e>
    589e:	fe 57       	subi	r31, 0x7E	; 126
    58a0:	e0 68       	ori	r30, 0x80	; 128
    58a2:	44 27       	eor	r20, r20
    58a4:	ee 0f       	add	r30, r30
    58a6:	44 1f       	adc	r20, r20
    58a8:	fa 95       	dec	r31
    58aa:	e1 f7       	brne	.-8      	; 0x58a4 <exp+0x42>
    58ac:	41 95       	neg	r20
    58ae:	55 0b       	sbc	r21, r21
    58b0:	54 d0       	rcall	.+168    	; 0x595a <ldexp>
    58b2:	0f 90       	pop	r0
    58b4:	07 fe       	sbrs	r0, 7
    58b6:	48 c0       	rjmp	.+144    	; 0x5948 <inverse>
    58b8:	08 95       	ret

000058ba <__fp_mintl>:
    58ba:	88 23       	and	r24, r24
    58bc:	71 f4       	brne	.+28     	; 0x58da <__fp_mintl+0x20>
    58be:	77 23       	and	r23, r23
    58c0:	21 f0       	breq	.+8      	; 0x58ca <__fp_mintl+0x10>
    58c2:	98 50       	subi	r25, 0x08	; 8
    58c4:	87 2b       	or	r24, r23
    58c6:	76 2f       	mov	r23, r22
    58c8:	07 c0       	rjmp	.+14     	; 0x58d8 <__fp_mintl+0x1e>
    58ca:	66 23       	and	r22, r22
    58cc:	11 f4       	brne	.+4      	; 0x58d2 <__fp_mintl+0x18>
    58ce:	99 27       	eor	r25, r25
    58d0:	0d c0       	rjmp	.+26     	; 0x58ec <__fp_mintl+0x32>
    58d2:	90 51       	subi	r25, 0x10	; 16
    58d4:	86 2b       	or	r24, r22
    58d6:	70 e0       	ldi	r23, 0x00	; 0
    58d8:	60 e0       	ldi	r22, 0x00	; 0
    58da:	2a f0       	brmi	.+10     	; 0x58e6 <__fp_mintl+0x2c>
    58dc:	9a 95       	dec	r25
    58de:	66 0f       	add	r22, r22
    58e0:	77 1f       	adc	r23, r23
    58e2:	88 1f       	adc	r24, r24
    58e4:	da f7       	brpl	.-10     	; 0x58dc <__fp_mintl+0x22>
    58e6:	88 0f       	add	r24, r24
    58e8:	96 95       	lsr	r25
    58ea:	87 95       	ror	r24
    58ec:	97 f9       	bld	r25, 7
    58ee:	08 95       	ret

000058f0 <__fp_mpack>:
    58f0:	9f 3f       	cpi	r25, 0xFF	; 255
    58f2:	31 f0       	breq	.+12     	; 0x5900 <__fp_mpack_finite+0xc>

000058f4 <__fp_mpack_finite>:
    58f4:	91 50       	subi	r25, 0x01	; 1
    58f6:	20 f4       	brcc	.+8      	; 0x5900 <__fp_mpack_finite+0xc>
    58f8:	87 95       	ror	r24
    58fa:	77 95       	ror	r23
    58fc:	67 95       	ror	r22
    58fe:	b7 95       	ror	r27
    5900:	88 0f       	add	r24, r24
    5902:	91 1d       	adc	r25, r1
    5904:	96 95       	lsr	r25
    5906:	87 95       	ror	r24
    5908:	97 f9       	bld	r25, 7
    590a:	08 95       	ret

0000590c <__fp_norm2>:
    590c:	91 50       	subi	r25, 0x01	; 1
    590e:	50 40       	sbci	r21, 0x00	; 0
    5910:	66 0f       	add	r22, r22
    5912:	77 1f       	adc	r23, r23
    5914:	88 1f       	adc	r24, r24
    5916:	d2 f7       	brpl	.-12     	; 0x590c <__fp_norm2>
    5918:	08 95       	ret

0000591a <__fp_trunc>:
    591a:	81 de       	rcall	.-766    	; 0x561e <__fp_splitA>
    591c:	a0 f0       	brcs	.+40     	; 0x5946 <__fp_trunc+0x2c>
    591e:	be e7       	ldi	r27, 0x7E	; 126
    5920:	b9 17       	cp	r27, r25
    5922:	88 f4       	brcc	.+34     	; 0x5946 <__fp_trunc+0x2c>
    5924:	bb 27       	eor	r27, r27
    5926:	9f 38       	cpi	r25, 0x8F	; 143
    5928:	60 f4       	brcc	.+24     	; 0x5942 <__fp_trunc+0x28>
    592a:	16 16       	cp	r1, r22
    592c:	b1 1d       	adc	r27, r1
    592e:	67 2f       	mov	r22, r23
    5930:	78 2f       	mov	r23, r24
    5932:	88 27       	eor	r24, r24
    5934:	98 5f       	subi	r25, 0xF8	; 248
    5936:	f7 cf       	rjmp	.-18     	; 0x5926 <__fp_trunc+0xc>
    5938:	86 95       	lsr	r24
    593a:	77 95       	ror	r23
    593c:	67 95       	ror	r22
    593e:	b1 1d       	adc	r27, r1
    5940:	93 95       	inc	r25
    5942:	96 39       	cpi	r25, 0x96	; 150
    5944:	c8 f3       	brcs	.-14     	; 0x5938 <__fp_trunc+0x1e>
    5946:	08 95       	ret

00005948 <inverse>:
    5948:	9b 01       	movw	r18, r22
    594a:	ac 01       	movw	r20, r24
    594c:	60 e0       	ldi	r22, 0x00	; 0
    594e:	70 e0       	ldi	r23, 0x00	; 0
    5950:	80 e8       	ldi	r24, 0x80	; 128
    5952:	9f e3       	ldi	r25, 0x3F	; 63
    5954:	fa cc       	rjmp	.-1548   	; 0x534a <__divsf3>
    5956:	0e ce       	rjmp	.-996    	; 0x5574 <__fp_inf>
    5958:	cb cf       	rjmp	.-106    	; 0x58f0 <__fp_mpack>

0000595a <ldexp>:
    595a:	61 de       	rcall	.-830    	; 0x561e <__fp_splitA>
    595c:	e8 f3       	brcs	.-6      	; 0x5958 <inverse+0x10>
    595e:	99 23       	and	r25, r25
    5960:	d9 f3       	breq	.-10     	; 0x5958 <inverse+0x10>
    5962:	94 0f       	add	r25, r20
    5964:	51 1d       	adc	r21, r1
    5966:	bb f3       	brvs	.-18     	; 0x5956 <inverse+0xe>
    5968:	91 50       	subi	r25, 0x01	; 1
    596a:	50 40       	sbci	r21, 0x00	; 0
    596c:	94 f0       	brlt	.+36     	; 0x5992 <ldexp+0x38>
    596e:	59 f0       	breq	.+22     	; 0x5986 <ldexp+0x2c>
    5970:	88 23       	and	r24, r24
    5972:	32 f0       	brmi	.+12     	; 0x5980 <ldexp+0x26>
    5974:	66 0f       	add	r22, r22
    5976:	77 1f       	adc	r23, r23
    5978:	88 1f       	adc	r24, r24
    597a:	91 50       	subi	r25, 0x01	; 1
    597c:	50 40       	sbci	r21, 0x00	; 0
    597e:	c1 f7       	brne	.-16     	; 0x5970 <ldexp+0x16>
    5980:	9e 3f       	cpi	r25, 0xFE	; 254
    5982:	51 05       	cpc	r21, r1
    5984:	44 f7       	brge	.-48     	; 0x5956 <inverse+0xe>
    5986:	88 0f       	add	r24, r24
    5988:	91 1d       	adc	r25, r1
    598a:	96 95       	lsr	r25
    598c:	87 95       	ror	r24
    598e:	97 f9       	bld	r25, 7
    5990:	08 95       	ret
    5992:	5f 3f       	cpi	r21, 0xFF	; 255
    5994:	ac f0       	brlt	.+42     	; 0x59c0 <ldexp+0x66>
    5996:	98 3e       	cpi	r25, 0xE8	; 232
    5998:	9c f0       	brlt	.+38     	; 0x59c0 <ldexp+0x66>
    599a:	bb 27       	eor	r27, r27
    599c:	86 95       	lsr	r24
    599e:	77 95       	ror	r23
    59a0:	67 95       	ror	r22
    59a2:	b7 95       	ror	r27
    59a4:	08 f4       	brcc	.+2      	; 0x59a8 <ldexp+0x4e>
    59a6:	b1 60       	ori	r27, 0x01	; 1
    59a8:	93 95       	inc	r25
    59aa:	c1 f7       	brne	.-16     	; 0x599c <ldexp+0x42>
    59ac:	bb 0f       	add	r27, r27
    59ae:	58 f7       	brcc	.-42     	; 0x5986 <ldexp+0x2c>
    59b0:	11 f4       	brne	.+4      	; 0x59b6 <ldexp+0x5c>
    59b2:	60 ff       	sbrs	r22, 0
    59b4:	e8 cf       	rjmp	.-48     	; 0x5986 <ldexp+0x2c>
    59b6:	6f 5f       	subi	r22, 0xFF	; 255
    59b8:	7f 4f       	sbci	r23, 0xFF	; 255
    59ba:	8f 4f       	sbci	r24, 0xFF	; 255
    59bc:	9f 4f       	sbci	r25, 0xFF	; 255
    59be:	e3 cf       	rjmp	.-58     	; 0x5986 <ldexp+0x2c>
    59c0:	49 ce       	rjmp	.-878    	; 0x5654 <__fp_szero>
    59c2:	0e f0       	brts	.+2      	; 0x59c6 <ldexp+0x6c>
    59c4:	95 cf       	rjmp	.-214    	; 0x58f0 <__fp_mpack>
    59c6:	dc cd       	rjmp	.-1096   	; 0x5580 <__fp_nan>
    59c8:	68 94       	set
    59ca:	d4 cd       	rjmp	.-1112   	; 0x5574 <__fp_inf>

000059cc <log>:
    59cc:	28 de       	rcall	.-944    	; 0x561e <__fp_splitA>
    59ce:	c8 f3       	brcs	.-14     	; 0x59c2 <ldexp+0x68>
    59d0:	99 23       	and	r25, r25
    59d2:	d1 f3       	breq	.-12     	; 0x59c8 <ldexp+0x6e>
    59d4:	c6 f3       	brts	.-16     	; 0x59c6 <ldexp+0x6c>
    59d6:	df 93       	push	r29
    59d8:	cf 93       	push	r28
    59da:	1f 93       	push	r17
    59dc:	0f 93       	push	r16
    59de:	ff 92       	push	r15
    59e0:	c9 2f       	mov	r28, r25
    59e2:	dd 27       	eor	r29, r29
    59e4:	88 23       	and	r24, r24
    59e6:	2a f0       	brmi	.+10     	; 0x59f2 <log+0x26>
    59e8:	21 97       	sbiw	r28, 0x01	; 1
    59ea:	66 0f       	add	r22, r22
    59ec:	77 1f       	adc	r23, r23
    59ee:	88 1f       	adc	r24, r24
    59f0:	da f7       	brpl	.-10     	; 0x59e8 <log+0x1c>
    59f2:	20 e0       	ldi	r18, 0x00	; 0
    59f4:	30 e0       	ldi	r19, 0x00	; 0
    59f6:	40 e8       	ldi	r20, 0x80	; 128
    59f8:	5f eb       	ldi	r21, 0xBF	; 191
    59fa:	9f e3       	ldi	r25, 0x3F	; 63
    59fc:	88 39       	cpi	r24, 0x98	; 152
    59fe:	20 f0       	brcs	.+8      	; 0x5a08 <log+0x3c>
    5a00:	80 3e       	cpi	r24, 0xE0	; 224
    5a02:	30 f0       	brcs	.+12     	; 0x5a10 <log+0x44>
    5a04:	21 96       	adiw	r28, 0x01	; 1
    5a06:	8f 77       	andi	r24, 0x7F	; 127
    5a08:	38 dc       	rcall	.-1936   	; 0x527a <__addsf3>
    5a0a:	e0 e7       	ldi	r30, 0x70	; 112
    5a0c:	f2 e0       	ldi	r31, 0x02	; 2
    5a0e:	03 c0       	rjmp	.+6      	; 0x5a16 <log+0x4a>
    5a10:	34 dc       	rcall	.-1944   	; 0x527a <__addsf3>
    5a12:	ed e9       	ldi	r30, 0x9D	; 157
    5a14:	f2 e0       	ldi	r31, 0x02	; 2
    5a16:	b7 dd       	rcall	.-1170   	; 0x5586 <__fp_powser>
    5a18:	8b 01       	movw	r16, r22
    5a1a:	be 01       	movw	r22, r28
    5a1c:	ec 01       	movw	r28, r24
    5a1e:	fb 2e       	mov	r15, r27
    5a20:	6f 57       	subi	r22, 0x7F	; 127
    5a22:	71 09       	sbc	r23, r1
    5a24:	75 95       	asr	r23
    5a26:	77 1f       	adc	r23, r23
    5a28:	88 0b       	sbc	r24, r24
    5a2a:	99 0b       	sbc	r25, r25
    5a2c:	29 dd       	rcall	.-1454   	; 0x5480 <__floatsisf>
    5a2e:	28 e1       	ldi	r18, 0x18	; 24
    5a30:	32 e7       	ldi	r19, 0x72	; 114
    5a32:	41 e3       	ldi	r20, 0x31	; 49
    5a34:	5f e3       	ldi	r21, 0x3F	; 63
    5a36:	24 de       	rcall	.-952    	; 0x5680 <__mulsf3x>
    5a38:	af 2d       	mov	r26, r15
    5a3a:	98 01       	movw	r18, r16
    5a3c:	ae 01       	movw	r20, r28
    5a3e:	ff 90       	pop	r15
    5a40:	0f 91       	pop	r16
    5a42:	1f 91       	pop	r17
    5a44:	cf 91       	pop	r28
    5a46:	df 91       	pop	r29
    5a48:	29 dc       	rcall	.-1966   	; 0x529c <__addsf3x>
    5a4a:	d0 cd       	rjmp	.-1120   	; 0x55ec <__fp_round>

00005a4c <modf>:
    5a4c:	fa 01       	movw	r30, r20
    5a4e:	dc 01       	movw	r26, r24
    5a50:	aa 0f       	add	r26, r26
    5a52:	bb 1f       	adc	r27, r27
    5a54:	9b 01       	movw	r18, r22
    5a56:	ac 01       	movw	r20, r24
    5a58:	bf 57       	subi	r27, 0x7F	; 127
    5a5a:	28 f4       	brcc	.+10     	; 0x5a66 <modf+0x1a>
    5a5c:	22 27       	eor	r18, r18
    5a5e:	33 27       	eor	r19, r19
    5a60:	44 27       	eor	r20, r20
    5a62:	50 78       	andi	r21, 0x80	; 128
    5a64:	1f c0       	rjmp	.+62     	; 0x5aa4 <modf+0x58>
    5a66:	b7 51       	subi	r27, 0x17	; 23
    5a68:	88 f4       	brcc	.+34     	; 0x5a8c <modf+0x40>
    5a6a:	ab 2f       	mov	r26, r27
    5a6c:	00 24       	eor	r0, r0
    5a6e:	46 95       	lsr	r20
    5a70:	37 95       	ror	r19
    5a72:	27 95       	ror	r18
    5a74:	01 1c       	adc	r0, r1
    5a76:	a3 95       	inc	r26
    5a78:	d2 f3       	brmi	.-12     	; 0x5a6e <modf+0x22>
    5a7a:	00 20       	and	r0, r0
    5a7c:	69 f0       	breq	.+26     	; 0x5a98 <modf+0x4c>
    5a7e:	22 0f       	add	r18, r18
    5a80:	33 1f       	adc	r19, r19
    5a82:	44 1f       	adc	r20, r20
    5a84:	b3 95       	inc	r27
    5a86:	da f3       	brmi	.-10     	; 0x5a7e <modf+0x32>
    5a88:	0d d0       	rcall	.+26     	; 0x5aa4 <modf+0x58>
    5a8a:	f6 cb       	rjmp	.-2068   	; 0x5278 <__subsf3>
    5a8c:	61 30       	cpi	r22, 0x01	; 1
    5a8e:	71 05       	cpc	r23, r1
    5a90:	a0 e8       	ldi	r26, 0x80	; 128
    5a92:	8a 07       	cpc	r24, r26
    5a94:	b9 46       	sbci	r27, 0x69	; 105
    5a96:	30 f4       	brcc	.+12     	; 0x5aa4 <modf+0x58>
    5a98:	9b 01       	movw	r18, r22
    5a9a:	ac 01       	movw	r20, r24
    5a9c:	66 27       	eor	r22, r22
    5a9e:	77 27       	eor	r23, r23
    5aa0:	88 27       	eor	r24, r24
    5aa2:	90 78       	andi	r25, 0x80	; 128
    5aa4:	30 96       	adiw	r30, 0x00	; 0
    5aa6:	21 f0       	breq	.+8      	; 0x5ab0 <modf+0x64>
    5aa8:	20 83       	st	Z, r18
    5aaa:	31 83       	std	Z+1, r19	; 0x01
    5aac:	42 83       	std	Z+2, r20	; 0x02
    5aae:	53 83       	std	Z+3, r21	; 0x03
    5ab0:	08 95       	ret

00005ab2 <__divmodhi4>:
    5ab2:	97 fb       	bst	r25, 7
    5ab4:	07 2e       	mov	r0, r23
    5ab6:	16 f4       	brtc	.+4      	; 0x5abc <__divmodhi4+0xa>
    5ab8:	00 94       	com	r0
    5aba:	06 d0       	rcall	.+12     	; 0x5ac8 <__divmodhi4_neg1>
    5abc:	77 fd       	sbrc	r23, 7
    5abe:	08 d0       	rcall	.+16     	; 0x5ad0 <__divmodhi4_neg2>
    5ac0:	60 d0       	rcall	.+192    	; 0x5b82 <__udivmodhi4>
    5ac2:	07 fc       	sbrc	r0, 7
    5ac4:	05 d0       	rcall	.+10     	; 0x5ad0 <__divmodhi4_neg2>
    5ac6:	3e f4       	brtc	.+14     	; 0x5ad6 <__divmodhi4_exit>

00005ac8 <__divmodhi4_neg1>:
    5ac8:	90 95       	com	r25
    5aca:	81 95       	neg	r24
    5acc:	9f 4f       	sbci	r25, 0xFF	; 255
    5ace:	08 95       	ret

00005ad0 <__divmodhi4_neg2>:
    5ad0:	70 95       	com	r23
    5ad2:	61 95       	neg	r22
    5ad4:	7f 4f       	sbci	r23, 0xFF	; 255

00005ad6 <__divmodhi4_exit>:
    5ad6:	08 95       	ret

00005ad8 <__udivmodsi4>:
    5ad8:	a1 e2       	ldi	r26, 0x21	; 33
    5ada:	1a 2e       	mov	r1, r26
    5adc:	aa 1b       	sub	r26, r26
    5ade:	bb 1b       	sub	r27, r27
    5ae0:	fd 01       	movw	r30, r26
    5ae2:	0d c0       	rjmp	.+26     	; 0x5afe <__udivmodsi4_ep>

00005ae4 <__udivmodsi4_loop>:
    5ae4:	aa 1f       	adc	r26, r26
    5ae6:	bb 1f       	adc	r27, r27
    5ae8:	ee 1f       	adc	r30, r30
    5aea:	ff 1f       	adc	r31, r31
    5aec:	a2 17       	cp	r26, r18
    5aee:	b3 07       	cpc	r27, r19
    5af0:	e4 07       	cpc	r30, r20
    5af2:	f5 07       	cpc	r31, r21
    5af4:	20 f0       	brcs	.+8      	; 0x5afe <__udivmodsi4_ep>
    5af6:	a2 1b       	sub	r26, r18
    5af8:	b3 0b       	sbc	r27, r19
    5afa:	e4 0b       	sbc	r30, r20
    5afc:	f5 0b       	sbc	r31, r21

00005afe <__udivmodsi4_ep>:
    5afe:	66 1f       	adc	r22, r22
    5b00:	77 1f       	adc	r23, r23
    5b02:	88 1f       	adc	r24, r24
    5b04:	99 1f       	adc	r25, r25
    5b06:	1a 94       	dec	r1
    5b08:	69 f7       	brne	.-38     	; 0x5ae4 <__udivmodsi4_loop>
    5b0a:	60 95       	com	r22
    5b0c:	70 95       	com	r23
    5b0e:	80 95       	com	r24
    5b10:	90 95       	com	r25
    5b12:	9b 01       	movw	r18, r22
    5b14:	ac 01       	movw	r20, r24
    5b16:	bd 01       	movw	r22, r26
    5b18:	cf 01       	movw	r24, r30
    5b1a:	08 95       	ret

00005b1c <__divmodsi4>:
    5b1c:	05 2e       	mov	r0, r21
    5b1e:	97 fb       	bst	r25, 7
    5b20:	16 f4       	brtc	.+4      	; 0x5b26 <__divmodsi4+0xa>
    5b22:	00 94       	com	r0
    5b24:	0f d0       	rcall	.+30     	; 0x5b44 <__negsi2>
    5b26:	57 fd       	sbrc	r21, 7
    5b28:	05 d0       	rcall	.+10     	; 0x5b34 <__divmodsi4_neg2>
    5b2a:	d6 df       	rcall	.-84     	; 0x5ad8 <__udivmodsi4>
    5b2c:	07 fc       	sbrc	r0, 7
    5b2e:	02 d0       	rcall	.+4      	; 0x5b34 <__divmodsi4_neg2>
    5b30:	46 f4       	brtc	.+16     	; 0x5b42 <__divmodsi4_exit>
    5b32:	08 c0       	rjmp	.+16     	; 0x5b44 <__negsi2>

00005b34 <__divmodsi4_neg2>:
    5b34:	50 95       	com	r21
    5b36:	40 95       	com	r20
    5b38:	30 95       	com	r19
    5b3a:	21 95       	neg	r18
    5b3c:	3f 4f       	sbci	r19, 0xFF	; 255
    5b3e:	4f 4f       	sbci	r20, 0xFF	; 255
    5b40:	5f 4f       	sbci	r21, 0xFF	; 255

00005b42 <__divmodsi4_exit>:
    5b42:	08 95       	ret

00005b44 <__negsi2>:
    5b44:	90 95       	com	r25
    5b46:	80 95       	com	r24
    5b48:	70 95       	com	r23
    5b4a:	61 95       	neg	r22
    5b4c:	7f 4f       	sbci	r23, 0xFF	; 255
    5b4e:	8f 4f       	sbci	r24, 0xFF	; 255
    5b50:	9f 4f       	sbci	r25, 0xFF	; 255
    5b52:	08 95       	ret

00005b54 <__tablejump2__>:
    5b54:	ee 0f       	add	r30, r30
    5b56:	ff 1f       	adc	r31, r31
    5b58:	88 1f       	adc	r24, r24
    5b5a:	8b bf       	out	0x3b, r24	; 59
    5b5c:	07 90       	elpm	r0, Z+
    5b5e:	f6 91       	elpm	r31, Z
    5b60:	e0 2d       	mov	r30, r0
    5b62:	19 94       	eijmp

00005b64 <__umulhisi3>:
    5b64:	a2 9f       	mul	r26, r18
    5b66:	b0 01       	movw	r22, r0
    5b68:	b3 9f       	mul	r27, r19
    5b6a:	c0 01       	movw	r24, r0
    5b6c:	a3 9f       	mul	r26, r19
    5b6e:	70 0d       	add	r23, r0
    5b70:	81 1d       	adc	r24, r1
    5b72:	11 24       	eor	r1, r1
    5b74:	91 1d       	adc	r25, r1
    5b76:	b2 9f       	mul	r27, r18
    5b78:	70 0d       	add	r23, r0
    5b7a:	81 1d       	adc	r24, r1
    5b7c:	11 24       	eor	r1, r1
    5b7e:	91 1d       	adc	r25, r1
    5b80:	08 95       	ret

00005b82 <__udivmodhi4>:
    5b82:	aa 1b       	sub	r26, r26
    5b84:	bb 1b       	sub	r27, r27
    5b86:	51 e1       	ldi	r21, 0x11	; 17
    5b88:	07 c0       	rjmp	.+14     	; 0x5b98 <__udivmodhi4_ep>

00005b8a <__udivmodhi4_loop>:
    5b8a:	aa 1f       	adc	r26, r26
    5b8c:	bb 1f       	adc	r27, r27
    5b8e:	a6 17       	cp	r26, r22
    5b90:	b7 07       	cpc	r27, r23
    5b92:	10 f0       	brcs	.+4      	; 0x5b98 <__udivmodhi4_ep>
    5b94:	a6 1b       	sub	r26, r22
    5b96:	b7 0b       	sbc	r27, r23

00005b98 <__udivmodhi4_ep>:
    5b98:	88 1f       	adc	r24, r24
    5b9a:	99 1f       	adc	r25, r25
    5b9c:	5a 95       	dec	r21
    5b9e:	a9 f7       	brne	.-22     	; 0x5b8a <__udivmodhi4_loop>
    5ba0:	80 95       	com	r24
    5ba2:	90 95       	com	r25
    5ba4:	bc 01       	movw	r22, r24
    5ba6:	cd 01       	movw	r24, r26
    5ba8:	08 95       	ret

00005baa <_exit>:
    5baa:	f8 94       	cli

00005bac <__stop_program>:
    5bac:	ff cf       	rjmp	.-2      	; 0x5bac <__stop_program>
