
CanSat_V3 - 1kHz.elf:     file format elf32-avr

Sections:
Idx Name          Size      VMA       LMA       File off  Algn
  0 .text         00004090  00000000  00000000  00000094  2**1
                  CONTENTS, ALLOC, LOAD, READONLY, CODE
  1 .data         00000118  00802000  00004090  00004124  2**0
                  CONTENTS, ALLOC, LOAD, DATA
  2 .bss          00000959  00802118  00802118  0000423c  2**0
                  ALLOC
  3 .comment      0000005c  00000000  00000000  0000423c  2**0
                  CONTENTS, READONLY
  4 .note.gnu.avr.deviceinfo 00000044  00000000  00000000  00004298  2**2
                  CONTENTS, READONLY
  5 .debug_aranges 00000410  00000000  00000000  000042dc  2**0
                  CONTENTS, READONLY, DEBUGGING
  6 .debug_info   0000ad7d  00000000  00000000  000046ec  2**0
                  CONTENTS, READONLY, DEBUGGING
  7 .debug_abbrev 0000453d  00000000  00000000  0000f469  2**0
                  CONTENTS, READONLY, DEBUGGING
  8 .debug_line   00003208  00000000  00000000  000139a6  2**0
                  CONTENTS, READONLY, DEBUGGING
  9 .debug_frame  00000eb4  00000000  00000000  00016bb0  2**2
                  CONTENTS, READONLY, DEBUGGING
 10 .debug_str    0000465f  00000000  00000000  00017a64  2**0
                  CONTENTS, READONLY, DEBUGGING
 11 .debug_loc    0000369f  00000000  00000000  0001c0c3  2**0
                  CONTENTS, READONLY, DEBUGGING
 12 .debug_ranges 00000370  00000000  00000000  0001f762  2**0
                  CONTENTS, READONLY, DEBUGGING

Disassembly of section .text:

00000000 <__vectors>:
       0:	65 c1       	rjmp	.+714    	; 0x2cc <__ctors_end>
       2:	00 00       	nop
       4:	84 c1       	rjmp	.+776    	; 0x30e <__bad_interrupt>
       6:	00 00       	nop
       8:	82 c1       	rjmp	.+772    	; 0x30e <__bad_interrupt>
       a:	00 00       	nop
       c:	80 c1       	rjmp	.+768    	; 0x30e <__bad_interrupt>
       e:	00 00       	nop
      10:	7e c1       	rjmp	.+764    	; 0x30e <__bad_interrupt>
      12:	00 00       	nop
      14:	7c c1       	rjmp	.+760    	; 0x30e <__bad_interrupt>
      16:	00 00       	nop
      18:	7a c1       	rjmp	.+756    	; 0x30e <__bad_interrupt>
      1a:	00 00       	nop
      1c:	78 c1       	rjmp	.+752    	; 0x30e <__bad_interrupt>
      1e:	00 00       	nop
      20:	76 c1       	rjmp	.+748    	; 0x30e <__bad_interrupt>
      22:	00 00       	nop
      24:	74 c1       	rjmp	.+744    	; 0x30e <__bad_interrupt>
      26:	00 00       	nop
      28:	72 c1       	rjmp	.+740    	; 0x30e <__bad_interrupt>
      2a:	00 00       	nop
      2c:	70 c1       	rjmp	.+736    	; 0x30e <__bad_interrupt>
      2e:	00 00       	nop
      30:	6e c1       	rjmp	.+732    	; 0x30e <__bad_interrupt>
      32:	00 00       	nop
      34:	6c c1       	rjmp	.+728    	; 0x30e <__bad_interrupt>
      36:	00 00       	nop
      38:	17 c5       	rjmp	.+2606   	; 0xa68 <__vector_14>
      3a:	00 00       	nop
      3c:	68 c1       	rjmp	.+720    	; 0x30e <__bad_interrupt>
      3e:	00 00       	nop
      40:	66 c1       	rjmp	.+716    	; 0x30e <__bad_interrupt>
      42:	00 00       	nop
      44:	64 c1       	rjmp	.+712    	; 0x30e <__bad_interrupt>
      46:	00 00       	nop
      48:	62 c1       	rjmp	.+708    	; 0x30e <__bad_interrupt>
      4a:	00 00       	nop
      4c:	60 c1       	rjmp	.+704    	; 0x30e <__bad_interrupt>
      4e:	00 00       	nop
      50:	5e c1       	rjmp	.+700    	; 0x30e <__bad_interrupt>
      52:	00 00       	nop
      54:	5c c1       	rjmp	.+696    	; 0x30e <__bad_interrupt>
      56:	00 00       	nop
      58:	5a c1       	rjmp	.+692    	; 0x30e <__bad_interrupt>
      5a:	00 00       	nop
      5c:	58 c1       	rjmp	.+688    	; 0x30e <__bad_interrupt>
      5e:	00 00       	nop
      60:	56 c1       	rjmp	.+684    	; 0x30e <__bad_interrupt>
      62:	00 00       	nop
      64:	54 c1       	rjmp	.+680    	; 0x30e <__bad_interrupt>
      66:	00 00       	nop
      68:	52 c1       	rjmp	.+676    	; 0x30e <__bad_interrupt>
      6a:	00 00       	nop
      6c:	50 c1       	rjmp	.+672    	; 0x30e <__bad_interrupt>
      6e:	00 00       	nop
      70:	4e c1       	rjmp	.+668    	; 0x30e <__bad_interrupt>
      72:	00 00       	nop
      74:	4c c1       	rjmp	.+664    	; 0x30e <__bad_interrupt>
      76:	00 00       	nop
      78:	4a c1       	rjmp	.+660    	; 0x30e <__bad_interrupt>
      7a:	00 00       	nop
      7c:	48 c1       	rjmp	.+656    	; 0x30e <__bad_interrupt>
      7e:	00 00       	nop
      80:	46 c1       	rjmp	.+652    	; 0x30e <__bad_interrupt>
      82:	00 00       	nop
      84:	44 c1       	rjmp	.+648    	; 0x30e <__bad_interrupt>
      86:	00 00       	nop
      88:	42 c1       	rjmp	.+644    	; 0x30e <__bad_interrupt>
      8a:	00 00       	nop
      8c:	40 c1       	rjmp	.+640    	; 0x30e <__bad_interrupt>
      8e:	00 00       	nop
      90:	3e c1       	rjmp	.+636    	; 0x30e <__bad_interrupt>
      92:	00 00       	nop
      94:	3c c1       	rjmp	.+632    	; 0x30e <__bad_interrupt>
      96:	00 00       	nop
      98:	3a c1       	rjmp	.+628    	; 0x30e <__bad_interrupt>
      9a:	00 00       	nop
      9c:	38 c1       	rjmp	.+624    	; 0x30e <__bad_interrupt>
      9e:	00 00       	nop
      a0:	36 c1       	rjmp	.+620    	; 0x30e <__bad_interrupt>
      a2:	00 00       	nop
      a4:	34 c1       	rjmp	.+616    	; 0x30e <__bad_interrupt>
      a6:	00 00       	nop
      a8:	32 c1       	rjmp	.+612    	; 0x30e <__bad_interrupt>
      aa:	00 00       	nop
      ac:	30 c1       	rjmp	.+608    	; 0x30e <__bad_interrupt>
      ae:	00 00       	nop
      b0:	2e c1       	rjmp	.+604    	; 0x30e <__bad_interrupt>
      b2:	00 00       	nop
      b4:	2c c1       	rjmp	.+600    	; 0x30e <__bad_interrupt>
      b6:	00 00       	nop
      b8:	2a c1       	rjmp	.+596    	; 0x30e <__bad_interrupt>
      ba:	00 00       	nop
      bc:	66 c5       	rjmp	.+2764   	; 0xb8a <__vector_47>
      be:	00 00       	nop
      c0:	26 c1       	rjmp	.+588    	; 0x30e <__bad_interrupt>
      c2:	00 00       	nop
      c4:	24 c1       	rjmp	.+584    	; 0x30e <__bad_interrupt>
      c6:	00 00       	nop
      c8:	22 c1       	rjmp	.+580    	; 0x30e <__bad_interrupt>
      ca:	00 00       	nop
      cc:	20 c1       	rjmp	.+576    	; 0x30e <__bad_interrupt>
      ce:	00 00       	nop
      d0:	1e c1       	rjmp	.+572    	; 0x30e <__bad_interrupt>
      d2:	00 00       	nop
      d4:	1c c1       	rjmp	.+568    	; 0x30e <__bad_interrupt>
      d6:	00 00       	nop
      d8:	1a c1       	rjmp	.+564    	; 0x30e <__bad_interrupt>
      da:	00 00       	nop
      dc:	18 c1       	rjmp	.+560    	; 0x30e <__bad_interrupt>
      de:	00 00       	nop
      e0:	16 c1       	rjmp	.+556    	; 0x30e <__bad_interrupt>
      e2:	00 00       	nop
      e4:	14 c1       	rjmp	.+552    	; 0x30e <__bad_interrupt>
      e6:	00 00       	nop
      e8:	12 c1       	rjmp	.+548    	; 0x30e <__bad_interrupt>
      ea:	00 00       	nop
      ec:	10 c1       	rjmp	.+544    	; 0x30e <__bad_interrupt>
      ee:	00 00       	nop
      f0:	0e c1       	rjmp	.+540    	; 0x30e <__bad_interrupt>
      f2:	00 00       	nop
      f4:	0c c1       	rjmp	.+536    	; 0x30e <__bad_interrupt>
      f6:	00 00       	nop
      f8:	0a c1       	rjmp	.+532    	; 0x30e <__bad_interrupt>
      fa:	00 00       	nop
      fc:	08 c1       	rjmp	.+528    	; 0x30e <__bad_interrupt>
      fe:	00 00       	nop
     100:	06 c1       	rjmp	.+524    	; 0x30e <__bad_interrupt>
     102:	00 00       	nop
     104:	04 c1       	rjmp	.+520    	; 0x30e <__bad_interrupt>
     106:	00 00       	nop
     108:	02 c1       	rjmp	.+516    	; 0x30e <__bad_interrupt>
     10a:	00 00       	nop
     10c:	00 c1       	rjmp	.+512    	; 0x30e <__bad_interrupt>
     10e:	00 00       	nop
     110:	fe c0       	rjmp	.+508    	; 0x30e <__bad_interrupt>
     112:	00 00       	nop
     114:	fc c0       	rjmp	.+504    	; 0x30e <__bad_interrupt>
     116:	00 00       	nop
     118:	fa c0       	rjmp	.+500    	; 0x30e <__bad_interrupt>
     11a:	00 00       	nop
     11c:	f8 c0       	rjmp	.+496    	; 0x30e <__bad_interrupt>
     11e:	00 00       	nop
     120:	f6 c0       	rjmp	.+492    	; 0x30e <__bad_interrupt>
     122:	00 00       	nop
     124:	f4 c0       	rjmp	.+488    	; 0x30e <__bad_interrupt>
     126:	00 00       	nop
     128:	f2 c0       	rjmp	.+484    	; 0x30e <__bad_interrupt>
     12a:	00 00       	nop
     12c:	f0 c0       	rjmp	.+480    	; 0x30e <__bad_interrupt>
     12e:	00 00       	nop
     130:	ee c0       	rjmp	.+476    	; 0x30e <__bad_interrupt>
     132:	00 00       	nop
     134:	c7 c4       	rjmp	.+2446   	; 0xac4 <__vector_77>
     136:	00 00       	nop
     138:	ea c0       	rjmp	.+468    	; 0x30e <__bad_interrupt>
     13a:	00 00       	nop
     13c:	e8 c0       	rjmp	.+464    	; 0x30e <__bad_interrupt>
     13e:	00 00       	nop
     140:	e6 c0       	rjmp	.+460    	; 0x30e <__bad_interrupt>
     142:	00 00       	nop
     144:	e4 c0       	rjmp	.+456    	; 0x30e <__bad_interrupt>
     146:	00 00       	nop
     148:	e2 c0       	rjmp	.+452    	; 0x30e <__bad_interrupt>
     14a:	00 00       	nop
     14c:	e0 c0       	rjmp	.+448    	; 0x30e <__bad_interrupt>
     14e:	00 00       	nop
     150:	de c0       	rjmp	.+444    	; 0x30e <__bad_interrupt>
     152:	00 00       	nop
     154:	dc c0       	rjmp	.+440    	; 0x30e <__bad_interrupt>
     156:	00 00       	nop
     158:	da c0       	rjmp	.+436    	; 0x30e <__bad_interrupt>
     15a:	00 00       	nop
     15c:	d8 c0       	rjmp	.+432    	; 0x30e <__bad_interrupt>
     15e:	00 00       	nop
     160:	87 c3       	rjmp	.+1806   	; 0x870 <__vector_88>
     162:	00 00       	nop
     164:	d4 c0       	rjmp	.+424    	; 0x30e <__bad_interrupt>
     166:	00 00       	nop
     168:	43 c3       	rjmp	.+1670   	; 0x7f0 <__vector_90>
     16a:	00 00       	nop
     16c:	d0 c0       	rjmp	.+416    	; 0x30e <__bad_interrupt>
     16e:	00 00       	nop
     170:	ce c0       	rjmp	.+412    	; 0x30e <__bad_interrupt>
     172:	00 00       	nop
     174:	cc c0       	rjmp	.+408    	; 0x30e <__bad_interrupt>
     176:	00 00       	nop
     178:	ca c0       	rjmp	.+404    	; 0x30e <__bad_interrupt>
     17a:	00 00       	nop
     17c:	c8 c0       	rjmp	.+400    	; 0x30e <__bad_interrupt>
     17e:	00 00       	nop
     180:	c6 c0       	rjmp	.+396    	; 0x30e <__bad_interrupt>
     182:	00 00       	nop
     184:	c4 c0       	rjmp	.+392    	; 0x30e <__bad_interrupt>
     186:	00 00       	nop
     188:	c2 c0       	rjmp	.+388    	; 0x30e <__bad_interrupt>
     18a:	00 00       	nop
     18c:	c0 c0       	rjmp	.+384    	; 0x30e <__bad_interrupt>
     18e:	00 00       	nop
     190:	be c0       	rjmp	.+380    	; 0x30e <__bad_interrupt>
     192:	00 00       	nop
     194:	bc c0       	rjmp	.+376    	; 0x30e <__bad_interrupt>
     196:	00 00       	nop
     198:	ba c0       	rjmp	.+372    	; 0x30e <__bad_interrupt>
     19a:	00 00       	nop
     19c:	b8 c0       	rjmp	.+368    	; 0x30e <__bad_interrupt>
     19e:	00 00       	nop
     1a0:	b6 c0       	rjmp	.+364    	; 0x30e <__bad_interrupt>
     1a2:	00 00       	nop
     1a4:	b4 c0       	rjmp	.+360    	; 0x30e <__bad_interrupt>
     1a6:	00 00       	nop
     1a8:	b2 c0       	rjmp	.+356    	; 0x30e <__bad_interrupt>
     1aa:	00 00       	nop
     1ac:	b0 c0       	rjmp	.+352    	; 0x30e <__bad_interrupt>
     1ae:	00 00       	nop
     1b0:	fd c4       	rjmp	.+2554   	; 0xbac <__vector_108>
     1b2:	00 00       	nop
     1b4:	ac c0       	rjmp	.+344    	; 0x30e <__bad_interrupt>
     1b6:	00 00       	nop
     1b8:	aa c0       	rjmp	.+340    	; 0x30e <__bad_interrupt>
     1ba:	00 00       	nop
     1bc:	a8 c0       	rjmp	.+336    	; 0x30e <__bad_interrupt>
     1be:	00 00       	nop
     1c0:	a6 c0       	rjmp	.+332    	; 0x30e <__bad_interrupt>
     1c2:	00 00       	nop
     1c4:	a4 c0       	rjmp	.+328    	; 0x30e <__bad_interrupt>
     1c6:	00 00       	nop
     1c8:	a2 c0       	rjmp	.+324    	; 0x30e <__bad_interrupt>
     1ca:	00 00       	nop
     1cc:	a0 c0       	rjmp	.+320    	; 0x30e <__bad_interrupt>
     1ce:	00 00       	nop
     1d0:	9e c0       	rjmp	.+316    	; 0x30e <__bad_interrupt>
     1d2:	00 00       	nop
     1d4:	9c c0       	rjmp	.+312    	; 0x30e <__bad_interrupt>
     1d6:	00 00       	nop
     1d8:	9a c0       	rjmp	.+308    	; 0x30e <__bad_interrupt>
     1da:	00 00       	nop
     1dc:	17 c2       	rjmp	.+1070   	; 0x60c <__vector_119>
     1de:	00 00       	nop
     1e0:	96 c0       	rjmp	.+300    	; 0x30e <__bad_interrupt>
     1e2:	00 00       	nop
     1e4:	94 c0       	rjmp	.+296    	; 0x30e <__bad_interrupt>
     1e6:	00 00       	nop
     1e8:	92 c0       	rjmp	.+292    	; 0x30e <__bad_interrupt>
     1ea:	00 00       	nop
     1ec:	90 c0       	rjmp	.+288    	; 0x30e <__bad_interrupt>
     1ee:	00 00       	nop
     1f0:	8e c0       	rjmp	.+284    	; 0x30e <__bad_interrupt>
     1f2:	00 00       	nop
     1f4:	8c c0       	rjmp	.+280    	; 0x30e <__bad_interrupt>
     1f6:	00 00       	nop
     1f8:	8a c0       	rjmp	.+276    	; 0x30e <__bad_interrupt>
     1fa:	00 00       	nop
     1fc:	81 03       	fmuls	r16, r17
     1fe:	76 03       	mulsu	r23, r22
     200:	8c 03       	fmulsu	r16, r20
     202:	71 03       	mulsu	r23, r17
     204:	a5 03       	fmuls	r18, r21
     206:	b5 03       	fmuls	r19, r21
     208:	c8 03       	fmulsu	r20, r16
     20a:	ca 03       	fmulsu	r20, r18
     20c:	7b 03       	fmul	r23, r19
     20e:	44 08       	sbc	r4, r4
     210:	ae 08       	sbc	r10, r14
     212:	f6 08       	sbc	r15, r6
     214:	25 09       	sbc	r18, r5
     216:	4c 09       	sbc	r20, r12
     218:	75 09       	sbc	r23, r5
     21a:	7a 09       	sbc	r23, r10
     21c:	9e 09       	sbc	r25, r14
     21e:	a3 09       	sbc	r26, r3
     220:	d3 09       	sbc	r29, r3
     222:	07 2c       	mov	r0, r7
     224:	7a a5       	ldd	r23, Y+42	; 0x2a
     226:	ba 6c       	ori	r27, 0xCA	; 202
     228:	c5 90       	lpm	r12, Z+
     22a:	da 3b       	cpi	r29, 0xBA	; 186
     22c:	93 65       	ori	r25, 0x53	; 83
     22e:	fc 8b       	std	Y+20, r31	; 0x14
     230:	bc 53       	subi	r27, 0x3C	; 60
     232:	f8 10       	cpse	r15, r8
     234:	fd 3c       	cpi	r31, 0xCD	; 205
     236:	56 92       	lac	Z, r5
     238:	83 4d       	sbci	r24, 0xD3	; 211
     23a:	bd 87       	std	Y+13, r27	; 0x0d
     23c:	9d 3a       	cpi	r25, 0xAD	; 173
     23e:	b6 3d       	cpi	r27, 0xD6	; 214
     240:	cb c9       	rjmp	.-3178   	; 0xfffff5d8 <__eeprom_end+0xff7ef5d8>
     242:	bf 5b       	subi	r27, 0xBF	; 191
     244:	be 73       	andi	r27, 0x3E	; 62
     246:	da 0f       	add	r29, r26
     248:	c9 3f       	cpi	r28, 0xF9	; 249
     24a:	07 63       	ori	r16, 0x37	; 55
     24c:	42 36       	cpi	r20, 0x62	; 98
     24e:	b7 9b       	sbis	0x16, 7	; 22
     250:	d8 a7       	std	Y+40, r29	; 0x28
     252:	1a 39       	cpi	r17, 0x9A	; 154
     254:	68 56       	subi	r22, 0x68	; 104
     256:	18 ae       	std	Y+56, r1	; 0x38
     258:	ba ab       	std	Y+50, r27	; 0x32
     25a:	55 8c       	ldd	r5, Z+29	; 0x1d
     25c:	1d 3c       	cpi	r17, 0xCD	; 205
     25e:	b7 cc       	rjmp	.-1682   	; 0xfffffbce <__eeprom_end+0xff7efbce>
     260:	57 63       	ori	r21, 0x37	; 55
     262:	bd 6d       	ori	r27, 0xDD	; 221
     264:	ed fd       	.word	0xfded	; ????
     266:	75 3e       	cpi	r23, 0xE5	; 229
     268:	f6 17       	cp	r31, r22
     26a:	72 31       	cpi	r23, 0x12	; 18
     26c:	bf 00       	.word	0x00bf	; ????
     26e:	00 00       	nop
     270:	80 3f       	cpi	r24, 0xF0	; 240
     272:	08 00       	.word	0x0008	; ????
     274:	00 00       	nop
     276:	be 92       	st	-X, r11
     278:	24 49       	sbci	r18, 0x94	; 148
     27a:	12 3e       	cpi	r17, 0xE2	; 226
     27c:	ab aa       	std	Y+51, r10	; 0x33
     27e:	aa 2a       	or	r10, r26
     280:	be cd       	rjmp	.-1156   	; 0xfffffdfe <__eeprom_end+0xff7efdfe>
     282:	cc cc       	rjmp	.-1640   	; 0xfffffc1c <__eeprom_end+0xff7efc1c>
     284:	4c 3e       	cpi	r20, 0xEC	; 236
     286:	00 00       	nop
     288:	00 80       	ld	r0, Z
     28a:	be ab       	std	Y+54, r27	; 0x36
     28c:	aa aa       	std	Y+50, r10	; 0x32
     28e:	aa 3e       	cpi	r26, 0xEA	; 234
     290:	00 00       	nop
     292:	00 00       	nop
     294:	bf 00       	.word	0x00bf	; ????
     296:	00 00       	nop
     298:	80 3f       	cpi	r24, 0xF0	; 240
     29a:	00 00       	nop
     29c:	00 00       	nop
     29e:	00 08       	sbc	r0, r0
     2a0:	41 78       	andi	r20, 0x81	; 129
     2a2:	d3 bb       	out	0x13, r29	; 19
     2a4:	43 87       	std	Z+11, r20	; 0x0b
     2a6:	d1 13       	cpse	r29, r17
     2a8:	3d 19       	sub	r19, r13
     2aa:	0e 3c       	cpi	r16, 0xCE	; 206
     2ac:	c3 bd       	out	0x23, r28	; 35
     2ae:	42 82       	std	Z+2, r4	; 0x02
     2b0:	ad 2b       	or	r26, r29
     2b2:	3e 68       	ori	r19, 0x8E	; 142
     2b4:	ec 82       	std	Y+4, r14	; 0x04
     2b6:	76 be       	out	0x36, r7	; 54
     2b8:	d9 8f       	std	Y+25, r29	; 0x19
     2ba:	e1 a9       	ldd	r30, Z+49	; 0x31
     2bc:	3e 4c       	sbci	r19, 0xCE	; 206
     2be:	80 ef       	ldi	r24, 0xF0	; 240
     2c0:	ff be       	out	0x3f, r15	; 63
     2c2:	01 c4       	rjmp	.+2050   	; 0xac6 <__vector_77+0x2>
     2c4:	ff 7f       	andi	r31, 0xFF	; 255
     2c6:	3f 00       	.word	0x003f	; ????
     2c8:	00 00       	nop
	...

000002cc <__ctors_end>:
     2cc:	11 24       	eor	r1, r1
     2ce:	1f be       	out	0x3f, r1	; 63
     2d0:	cf ef       	ldi	r28, 0xFF	; 255
     2d2:	cd bf       	out	0x3d, r28	; 61
     2d4:	df e5       	ldi	r29, 0x5F	; 95
     2d6:	de bf       	out	0x3e, r29	; 62
     2d8:	00 e0       	ldi	r16, 0x00	; 0
     2da:	0c bf       	out	0x3c, r16	; 60

000002dc <__do_copy_data>:
     2dc:	11 e2       	ldi	r17, 0x21	; 33
     2de:	a0 e0       	ldi	r26, 0x00	; 0
     2e0:	b0 e2       	ldi	r27, 0x20	; 32
     2e2:	e0 e9       	ldi	r30, 0x90	; 144
     2e4:	f0 e4       	ldi	r31, 0x40	; 64
     2e6:	00 e0       	ldi	r16, 0x00	; 0
     2e8:	0b bf       	out	0x3b, r16	; 59
     2ea:	02 c0       	rjmp	.+4      	; 0x2f0 <__do_copy_data+0x14>
     2ec:	07 90       	elpm	r0, Z+
     2ee:	0d 92       	st	X+, r0
     2f0:	a8 31       	cpi	r26, 0x18	; 24
     2f2:	b1 07       	cpc	r27, r17
     2f4:	d9 f7       	brne	.-10     	; 0x2ec <__do_copy_data+0x10>

000002f6 <__do_clear_bss>:
     2f6:	2a e2       	ldi	r18, 0x2A	; 42
     2f8:	a8 e1       	ldi	r26, 0x18	; 24
     2fa:	b1 e2       	ldi	r27, 0x21	; 33
     2fc:	01 c0       	rjmp	.+2      	; 0x300 <.do_clear_bss_start>

000002fe <.do_clear_bss_loop>:
     2fe:	1d 92       	st	X+, r1

00000300 <.do_clear_bss_start>:
     300:	a1 37       	cpi	r26, 0x71	; 113
     302:	b2 07       	cpc	r27, r18
     304:	e1 f7       	brne	.-8      	; 0x2fe <.do_clear_bss_loop>
     306:	0e 94 33 0e 	call	0x1c66	; 0x1c66 <main>
     30a:	0c 94 46 20 	jmp	0x408c	; 0x408c <_exit>

0000030e <__bad_interrupt>:
     30e:	6f c1       	rjmp	.+734    	; 0x5ee <__vector_default>

00000310 <AnalogUpdate>:
#include <math.h>
#include "struct.h"
#include "ADC.h"
#include "CanSat.h"

void AnalogUpdate(Analog_t * Analog){
     310:	2f 92       	push	r2
     312:	3f 92       	push	r3
     314:	4f 92       	push	r4
     316:	5f 92       	push	r5
     318:	6f 92       	push	r6
     31a:	7f 92       	push	r7
     31c:	8f 92       	push	r8
     31e:	9f 92       	push	r9
     320:	af 92       	push	r10
     322:	bf 92       	push	r11
     324:	cf 92       	push	r12
     326:	df 92       	push	r13
     328:	ef 92       	push	r14
     32a:	ff 92       	push	r15
     32c:	0f 93       	push	r16
     32e:	1f 93       	push	r17
     330:	cf 93       	push	r28
     332:	df 93       	push	r29
     334:	00 d0       	rcall	.+0      	; 0x336 <AnalogUpdate+0x26>
     336:	1f 92       	push	r1
     338:	cd b7       	in	r28, 0x3d	; 61
     33a:	de b7       	in	r29, 0x3e	; 62
     33c:	1c 01       	movw	r2, r24
	float Analog1, Analog2, Analog3, Vcc, Vbat, Vext, Vusb;
	
	ADCA.CH0.CTRL |= ADC_CH_INPUTMODE_SINGLEENDED_gc;	//singleended
     33e:	e0 e0       	ldi	r30, 0x00	; 0
     340:	f2 e0       	ldi	r31, 0x02	; 2
     342:	80 a1       	ldd	r24, Z+32	; 0x20
     344:	81 60       	ori	r24, 0x01	; 1
     346:	80 a3       	std	Z+32, r24	; 0x20
	//sensor 1
	//ADCA_CH0_CTRL = ADC_CH_INPUTMODE_DIFFWGAIN_gc | ADC_CH_GAIN_1X_gc;
	ADCA_CH0_MUXCTRL = ADC_CH_MUXPOS_PIN13_gc | ADC_CH_MUXNEG_GND_MODE4_gc;
     348:	8f e6       	ldi	r24, 0x6F	; 111
     34a:	80 93 21 02 	sts	0x0221, r24	; 0x800221 <__TEXT_REGION_LENGTH__+0x700221>
	ADCA.CH0.CTRL |= ADC_CH_START_bm;				//rozpocznij pomiar CH0
     34e:	80 a1       	ldd	r24, Z+32	; 0x20
     350:	80 68       	ori	r24, 0x80	; 128
     352:	80 a3       	std	Z+32, r24	; 0x20
	while(!(ADCA.INTFLAGS & ADC_CH0IF_bm));
     354:	86 81       	ldd	r24, Z+6	; 0x06
     356:	80 ff       	sbrs	r24, 0
     358:	fd cf       	rjmp	.-6      	; 0x354 <AnalogUpdate+0x44>
	ADCA.CH0.INTFLAGS = ADC_CH0IF_bm;	
     35a:	00 e0       	ldi	r16, 0x00	; 0
     35c:	12 e0       	ldi	r17, 0x02	; 2
     35e:	81 e0       	ldi	r24, 0x01	; 1
     360:	f8 01       	movw	r30, r16
     362:	83 a3       	std	Z+35, r24	; 0x23
	Analog1 = ADCA.CH0RES/16.0;
     364:	60 89       	ldd	r22, Z+16	; 0x10
     366:	71 89       	ldd	r23, Z+17	; 0x11
     368:	80 e0       	ldi	r24, 0x00	; 0
     36a:	90 e0       	ldi	r25, 0x00	; 0
     36c:	0e 94 52 1a 	call	0x34a4	; 0x34a4 <__floatunsisf>
     370:	20 e0       	ldi	r18, 0x00	; 0
     372:	30 e0       	ldi	r19, 0x00	; 0
     374:	40 e8       	ldi	r20, 0x80	; 128
     376:	5d e3       	ldi	r21, 0x3D	; 61
     378:	0e 94 48 1b 	call	0x3690	; 0x3690 <__mulsf3>
     37c:	2b 01       	movw	r4, r22
     37e:	3c 01       	movw	r6, r24
	
	//sensor 2
	//ADCA_CH0_CTRL = ADC_CH_INPUTMODE_DIFFWGAIN_gc | ADC_CH_GAIN_1X_gc;
	ADCA_CH0_MUXCTRL = ADC_CH_MUXPOS_PIN14_gc | ADC_CH_MUXNEG_GND_MODE4_gc;
     380:	87 e7       	ldi	r24, 0x77	; 119
     382:	80 93 21 02 	sts	0x0221, r24	; 0x800221 <__TEXT_REGION_LENGTH__+0x700221>
	ADCA.CH0.CTRL |= ADC_CH_START_bm;				//rozpocznij pomiar CH0
     386:	f8 01       	movw	r30, r16
     388:	80 a1       	ldd	r24, Z+32	; 0x20
     38a:	80 68       	ori	r24, 0x80	; 128
     38c:	80 a3       	std	Z+32, r24	; 0x20
	while(!(ADCA.INTFLAGS & ADC_CH0IF_bm));
     38e:	86 81       	ldd	r24, Z+6	; 0x06
     390:	80 ff       	sbrs	r24, 0
     392:	fd cf       	rjmp	.-6      	; 0x38e <AnalogUpdate+0x7e>
	ADCA.CH0.INTFLAGS = ADC_CH0IF_bm;
     394:	00 e0       	ldi	r16, 0x00	; 0
     396:	12 e0       	ldi	r17, 0x02	; 2
     398:	81 e0       	ldi	r24, 0x01	; 1
     39a:	f8 01       	movw	r30, r16
     39c:	83 a3       	std	Z+35, r24	; 0x23
	Analog2 = ADCA.CH0RES/16.0;
     39e:	60 89       	ldd	r22, Z+16	; 0x10
     3a0:	71 89       	ldd	r23, Z+17	; 0x11
     3a2:	80 e0       	ldi	r24, 0x00	; 0
     3a4:	90 e0       	ldi	r25, 0x00	; 0
     3a6:	0e 94 52 1a 	call	0x34a4	; 0x34a4 <__floatunsisf>
     3aa:	20 e0       	ldi	r18, 0x00	; 0
     3ac:	30 e0       	ldi	r19, 0x00	; 0
     3ae:	40 e8       	ldi	r20, 0x80	; 128
     3b0:	5d e3       	ldi	r21, 0x3D	; 61
     3b2:	0e 94 48 1b 	call	0x3690	; 0x3690 <__mulsf3>
     3b6:	4b 01       	movw	r8, r22
     3b8:	5c 01       	movw	r10, r24
	
	//sensor 3
	//ADCA_CH0_CTRL = ADC_CH_INPUTMODE_DIFFWGAIN_gc | ADC_CH_GAIN_1X_gc;
	ADCA_CH0_MUXCTRL = ADC_CH_MUXPOS_PIN15_gc | ADC_CH_MUXNEG_GND_MODE4_gc;
     3ba:	8f e7       	ldi	r24, 0x7F	; 127
     3bc:	80 93 21 02 	sts	0x0221, r24	; 0x800221 <__TEXT_REGION_LENGTH__+0x700221>
	ADCA.CH0.CTRL |= ADC_CH_START_bm;				//rozpocznij pomiar CH0
     3c0:	f8 01       	movw	r30, r16
     3c2:	80 a1       	ldd	r24, Z+32	; 0x20
     3c4:	80 68       	ori	r24, 0x80	; 128
     3c6:	80 a3       	std	Z+32, r24	; 0x20
	while(!(ADCA.INTFLAGS & ADC_CH0IF_bm));
     3c8:	86 81       	ldd	r24, Z+6	; 0x06
     3ca:	80 ff       	sbrs	r24, 0
     3cc:	fd cf       	rjmp	.-6      	; 0x3c8 <AnalogUpdate+0xb8>
	ADCA.CH0.INTFLAGS = ADC_CH0IF_bm;
     3ce:	00 e0       	ldi	r16, 0x00	; 0
     3d0:	12 e0       	ldi	r17, 0x02	; 2
     3d2:	81 e0       	ldi	r24, 0x01	; 1
     3d4:	f8 01       	movw	r30, r16
     3d6:	83 a3       	std	Z+35, r24	; 0x23
	Analog3 = ADCA.CH0RES/16.0;
     3d8:	60 89       	ldd	r22, Z+16	; 0x10
     3da:	71 89       	ldd	r23, Z+17	; 0x11
     3dc:	80 e0       	ldi	r24, 0x00	; 0
     3de:	90 e0       	ldi	r25, 0x00	; 0
     3e0:	0e 94 52 1a 	call	0x34a4	; 0x34a4 <__floatunsisf>
     3e4:	20 e0       	ldi	r18, 0x00	; 0
     3e6:	30 e0       	ldi	r19, 0x00	; 0
     3e8:	40 e8       	ldi	r20, 0x80	; 128
     3ea:	5d e3       	ldi	r21, 0x3D	; 61
     3ec:	0e 94 48 1b 	call	0x3690	; 0x3690 <__mulsf3>
     3f0:	6b 01       	movw	r12, r22
     3f2:	7c 01       	movw	r14, r24
	
	//Vbat
	ADCA_CH0_MUXCTRL = ADC_CH_MUXPOS_PIN7_gc;	    // 
     3f4:	88 e3       	ldi	r24, 0x38	; 56
     3f6:	80 93 21 02 	sts	0x0221, r24	; 0x800221 <__TEXT_REGION_LENGTH__+0x700221>
	ADCA.CH0.CTRL |= ADC_CH_START_bm;				//rozpocznij pomiar CH0
     3fa:	f8 01       	movw	r30, r16
     3fc:	80 a1       	ldd	r24, Z+32	; 0x20
     3fe:	80 68       	ori	r24, 0x80	; 128
     400:	80 a3       	std	Z+32, r24	; 0x20
	while(!(ADCA.INTFLAGS & ADC_CH0IF_bm));
     402:	86 81       	ldd	r24, Z+6	; 0x06
     404:	80 ff       	sbrs	r24, 0
     406:	fd cf       	rjmp	.-6      	; 0x402 <__LOCK_REGION_LENGTH__+0x2>
	ADCA.CH0.INTFLAGS = ADC_CH0IF_bm;
     408:	00 e0       	ldi	r16, 0x00	; 0
     40a:	12 e0       	ldi	r17, 0x02	; 2
     40c:	81 e0       	ldi	r24, 0x01	; 1
     40e:	f8 01       	movw	r30, r16
     410:	83 a3       	std	Z+35, r24	; 0x23
	Vbat = (ADCA.CH0RES/4096.0-0.05)*10.3;
     412:	60 89       	ldd	r22, Z+16	; 0x10
     414:	71 89       	ldd	r23, Z+17	; 0x11
     416:	80 e0       	ldi	r24, 0x00	; 0
     418:	90 e0       	ldi	r25, 0x00	; 0
     41a:	0e 94 52 1a 	call	0x34a4	; 0x34a4 <__floatunsisf>
     41e:	20 e0       	ldi	r18, 0x00	; 0
     420:	30 e0       	ldi	r19, 0x00	; 0
     422:	40 e8       	ldi	r20, 0x80	; 128
     424:	59 e3       	ldi	r21, 0x39	; 57
     426:	0e 94 48 1b 	call	0x3690	; 0x3690 <__mulsf3>
     42a:	2d ec       	ldi	r18, 0xCD	; 205
     42c:	3c ec       	ldi	r19, 0xCC	; 204
     42e:	4c e4       	ldi	r20, 0x4C	; 76
     430:	5d e3       	ldi	r21, 0x3D	; 61
     432:	0e 94 50 19 	call	0x32a0	; 0x32a0 <__subsf3>
     436:	2d ec       	ldi	r18, 0xCD	; 205
     438:	3c ec       	ldi	r19, 0xCC	; 204
     43a:	44 e2       	ldi	r20, 0x24	; 36
     43c:	51 e4       	ldi	r21, 0x41	; 65
     43e:	0e 94 48 1b 	call	0x3690	; 0x3690 <__mulsf3>
     442:	69 83       	std	Y+1, r22	; 0x01
     444:	7a 83       	std	Y+2, r23	; 0x02
     446:	8b 83       	std	Y+3, r24	; 0x03
     448:	9c 83       	std	Y+4, r25	; 0x04
	
	//Vex
	//ADCA_CH0_CTRL = ADC_CH_INPUTMODE_DIFFWGAIN_gc | ADC_CH_GAIN_1X_gc;
	ADCA_CH0_MUXCTRL = ADC_CH_MUXPOS_PIN1_gc | ADC_CH_MUXNEG_GND_MODE4_gc;
     44a:	8f e0       	ldi	r24, 0x0F	; 15
     44c:	80 93 21 02 	sts	0x0221, r24	; 0x800221 <__TEXT_REGION_LENGTH__+0x700221>
	ADCA.CH0.CTRL |= ADC_CH_START_bm;				//rozpocznij pomiar CH0
     450:	f8 01       	movw	r30, r16
     452:	80 a1       	ldd	r24, Z+32	; 0x20
     454:	80 68       	ori	r24, 0x80	; 128
     456:	80 a3       	std	Z+32, r24	; 0x20
	while(!(ADCA.INTFLAGS & ADC_CH0IF_bm));
     458:	86 81       	ldd	r24, Z+6	; 0x06
     45a:	80 ff       	sbrs	r24, 0
     45c:	fd cf       	rjmp	.-6      	; 0x458 <__LOCK_REGION_LENGTH__+0x58>
	ADCA.CH0.INTFLAGS = ADC_CH0IF_bm;
     45e:	e0 e0       	ldi	r30, 0x00	; 0
     460:	f2 e0       	ldi	r31, 0x02	; 2
     462:	81 e0       	ldi	r24, 0x01	; 1
     464:	83 a3       	std	Z+35, r24	; 0x23
	Vext = (ADCA.CH0RES/4096.0-0.05)*10.3;
     466:	80 89       	ldd	r24, Z+16	; 0x10
     468:	91 89       	ldd	r25, Z+17	; 0x11
	
	//Vusb
	//ADCA_CH0_CTRL = ADC_CH_INPUTMODE_DIFFWGAIN_gc | ADC_CH_GAIN_1X_gc;
	ADCA_CH0_MUXCTRL = ADC_CH_MUXPOS_PIN8_gc | ADC_CH_MUXNEG_GND_MODE4_gc;
     46a:	87 e4       	ldi	r24, 0x47	; 71
     46c:	80 93 21 02 	sts	0x0221, r24	; 0x800221 <__TEXT_REGION_LENGTH__+0x700221>
	ADCA.CH0.CTRL |= ADC_CH_START_bm;				//rozpocznij pomiar CH0
     470:	80 a1       	ldd	r24, Z+32	; 0x20
     472:	80 68       	ori	r24, 0x80	; 128
     474:	80 a3       	std	Z+32, r24	; 0x20
	while(!(ADCA.INTFLAGS & ADC_CH0IF_bm));
     476:	86 81       	ldd	r24, Z+6	; 0x06
     478:	80 ff       	sbrs	r24, 0
     47a:	fd cf       	rjmp	.-6      	; 0x476 <__LOCK_REGION_LENGTH__+0x76>
	ADCA.CH0.INTFLAGS = ADC_CH0IF_bm;
     47c:	e0 e0       	ldi	r30, 0x00	; 0
     47e:	f2 e0       	ldi	r31, 0x02	; 2
     480:	81 e0       	ldi	r24, 0x01	; 1
     482:	83 a3       	std	Z+35, r24	; 0x23
	Vusb = (ADCA.CH0RES/4096.0-0.05)*10.3;
     484:	80 89       	ldd	r24, Z+16	; 0x10
     486:	91 89       	ldd	r25, Z+17	; 0x11
	
	//Vcc
	ADCA.CH0.CTRL = ADC_CH_INPUTMODE_INTERNAL_gc;	//internal
     488:	10 a2       	std	Z+32, r1	; 0x20
	ADCA.CH0.MUXCTRL = ADC_CH_MUXINT_SCALEDVCC_gc;
     48a:	80 e1       	ldi	r24, 0x10	; 16
     48c:	81 a3       	std	Z+33, r24	; 0x21
	ADCA.CH0.CTRL |= ADC_CH_START_bm;				//rozpocznij pomiar 1/10 VCC
     48e:	80 a1       	ldd	r24, Z+32	; 0x20
     490:	80 68       	ori	r24, 0x80	; 128
     492:	80 a3       	std	Z+32, r24	; 0x20
	while(!(ADCA.INTFLAGS & ADC_CH0IF_bm));
     494:	86 81       	ldd	r24, Z+6	; 0x06
     496:	80 ff       	sbrs	r24, 0
     498:	fd cf       	rjmp	.-6      	; 0x494 <__LOCK_REGION_LENGTH__+0x94>
	ADCA.CH0.INTFLAGS = ADC_CH0IF_bm;
     49a:	e0 e0       	ldi	r30, 0x00	; 0
     49c:	f2 e0       	ldi	r31, 0x02	; 2
     49e:	81 e0       	ldi	r24, 0x01	; 1
     4a0:	83 a3       	std	Z+35, r24	; 0x23
	Vcc = ((ADCA.CH0RES/4096.0)-0.05)*10.35;
     4a2:	00 89       	ldd	r16, Z+16	; 0x10
     4a4:	11 89       	ldd	r17, Z+17	; 0x11
	
	//-----Analog to percent-----------------------
	Analog->AnalogIn1 = ((Analog1 * 100) / 255);
     4a6:	20 e0       	ldi	r18, 0x00	; 0
     4a8:	30 e0       	ldi	r19, 0x00	; 0
     4aa:	48 ec       	ldi	r20, 0xC8	; 200
     4ac:	52 e4       	ldi	r21, 0x42	; 66
     4ae:	c3 01       	movw	r24, r6
     4b0:	b2 01       	movw	r22, r4
     4b2:	0e 94 48 1b 	call	0x3690	; 0x3690 <__mulsf3>
     4b6:	20 e0       	ldi	r18, 0x00	; 0
     4b8:	30 e0       	ldi	r19, 0x00	; 0
     4ba:	4f e7       	ldi	r20, 0x7F	; 127
     4bc:	53 e4       	ldi	r21, 0x43	; 67
     4be:	0e 94 b9 19 	call	0x3372	; 0x3372 <__divsf3>
     4c2:	f1 01       	movw	r30, r2
     4c4:	60 8b       	std	Z+16, r22	; 0x10
     4c6:	71 8b       	std	Z+17, r23	; 0x11
     4c8:	82 8b       	std	Z+18, r24	; 0x12
     4ca:	93 8b       	std	Z+19, r25	; 0x13
	Analog->AnalogIn2 = ((Analog2 * 100) / 255);
     4cc:	20 e0       	ldi	r18, 0x00	; 0
     4ce:	30 e0       	ldi	r19, 0x00	; 0
     4d0:	48 ec       	ldi	r20, 0xC8	; 200
     4d2:	52 e4       	ldi	r21, 0x42	; 66
     4d4:	c5 01       	movw	r24, r10
     4d6:	b4 01       	movw	r22, r8
     4d8:	0e 94 48 1b 	call	0x3690	; 0x3690 <__mulsf3>
     4dc:	20 e0       	ldi	r18, 0x00	; 0
     4de:	30 e0       	ldi	r19, 0x00	; 0
     4e0:	4f e7       	ldi	r20, 0x7F	; 127
     4e2:	53 e4       	ldi	r21, 0x43	; 67
     4e4:	0e 94 b9 19 	call	0x3372	; 0x3372 <__divsf3>
     4e8:	f1 01       	movw	r30, r2
     4ea:	64 8b       	std	Z+20, r22	; 0x14
     4ec:	75 8b       	std	Z+21, r23	; 0x15
     4ee:	86 8b       	std	Z+22, r24	; 0x16
     4f0:	97 8b       	std	Z+23, r25	; 0x17
	Analog->AnalogIn3 = ((Analog3 * 100) / 255);
     4f2:	20 e0       	ldi	r18, 0x00	; 0
     4f4:	30 e0       	ldi	r19, 0x00	; 0
     4f6:	48 ec       	ldi	r20, 0xC8	; 200
     4f8:	52 e4       	ldi	r21, 0x42	; 66
     4fa:	c7 01       	movw	r24, r14
     4fc:	b6 01       	movw	r22, r12
     4fe:	0e 94 48 1b 	call	0x3690	; 0x3690 <__mulsf3>
     502:	20 e0       	ldi	r18, 0x00	; 0
     504:	30 e0       	ldi	r19, 0x00	; 0
     506:	4f e7       	ldi	r20, 0x7F	; 127
     508:	53 e4       	ldi	r21, 0x43	; 67
     50a:	0e 94 b9 19 	call	0x3372	; 0x3372 <__divsf3>
     50e:	f1 01       	movw	r30, r2
     510:	60 8f       	std	Z+24, r22	; 0x18
     512:	71 8f       	std	Z+25, r23	; 0x19
     514:	82 8f       	std	Z+26, r24	; 0x1a
     516:	93 8f       	std	Z+27, r25	; 0x1b
	
	//-----Exponenetal filtering-------------------
	Analog->Vbat = Analog->Vbat*(1.0-BAT_voltage_alpha) + Vbat*BAT_voltage_alpha;
     518:	23 e3       	ldi	r18, 0x33	; 51
     51a:	33 e3       	ldi	r19, 0x33	; 51
     51c:	43 e7       	ldi	r20, 0x73	; 115
     51e:	5f e3       	ldi	r21, 0x3F	; 63
     520:	64 81       	ldd	r22, Z+4	; 0x04
     522:	75 81       	ldd	r23, Z+5	; 0x05
     524:	86 81       	ldd	r24, Z+6	; 0x06
     526:	97 81       	ldd	r25, Z+7	; 0x07
     528:	0e 94 48 1b 	call	0x3690	; 0x3690 <__mulsf3>
     52c:	6b 01       	movw	r12, r22
     52e:	7c 01       	movw	r14, r24
     530:	2d ec       	ldi	r18, 0xCD	; 205
     532:	3c ec       	ldi	r19, 0xCC	; 204
     534:	4c e4       	ldi	r20, 0x4C	; 76
     536:	5d e3       	ldi	r21, 0x3D	; 61
     538:	69 81       	ldd	r22, Y+1	; 0x01
     53a:	7a 81       	ldd	r23, Y+2	; 0x02
     53c:	8b 81       	ldd	r24, Y+3	; 0x03
     53e:	9c 81       	ldd	r25, Y+4	; 0x04
     540:	0e 94 48 1b 	call	0x3690	; 0x3690 <__mulsf3>
     544:	9b 01       	movw	r18, r22
     546:	ac 01       	movw	r20, r24
     548:	c7 01       	movw	r24, r14
     54a:	b6 01       	movw	r22, r12
     54c:	0e 94 51 19 	call	0x32a2	; 0x32a2 <__addsf3>
     550:	f1 01       	movw	r30, r2
     552:	64 83       	std	Z+4, r22	; 0x04
     554:	75 83       	std	Z+5, r23	; 0x05
     556:	86 83       	std	Z+6, r24	; 0x06
     558:	97 83       	std	Z+7, r25	; 0x07
	Analog->Vcc = Analog->Vcc*(1.0-BAT_voltage_alpha) + Vcc*BAT_voltage_alpha;
     55a:	23 e3       	ldi	r18, 0x33	; 51
     55c:	33 e3       	ldi	r19, 0x33	; 51
     55e:	43 e7       	ldi	r20, 0x73	; 115
     560:	5f e3       	ldi	r21, 0x3F	; 63
     562:	64 8d       	ldd	r22, Z+28	; 0x1c
     564:	75 8d       	ldd	r23, Z+29	; 0x1d
     566:	86 8d       	ldd	r24, Z+30	; 0x1e
     568:	97 8d       	ldd	r25, Z+31	; 0x1f
     56a:	0e 94 48 1b 	call	0x3690	; 0x3690 <__mulsf3>
     56e:	6b 01       	movw	r12, r22
     570:	7c 01       	movw	r14, r24
	ADCA.CH0.CTRL = ADC_CH_INPUTMODE_INTERNAL_gc;	//internal
	ADCA.CH0.MUXCTRL = ADC_CH_MUXINT_SCALEDVCC_gc;
	ADCA.CH0.CTRL |= ADC_CH_START_bm;				//rozpocznij pomiar 1/10 VCC
	while(!(ADCA.INTFLAGS & ADC_CH0IF_bm));
	ADCA.CH0.INTFLAGS = ADC_CH0IF_bm;
	Vcc = ((ADCA.CH0RES/4096.0)-0.05)*10.35;
     572:	b8 01       	movw	r22, r16
     574:	80 e0       	ldi	r24, 0x00	; 0
     576:	90 e0       	ldi	r25, 0x00	; 0
     578:	0e 94 52 1a 	call	0x34a4	; 0x34a4 <__floatunsisf>
     57c:	20 e0       	ldi	r18, 0x00	; 0
     57e:	30 e0       	ldi	r19, 0x00	; 0
     580:	40 e8       	ldi	r20, 0x80	; 128
     582:	59 e3       	ldi	r21, 0x39	; 57
     584:	0e 94 48 1b 	call	0x3690	; 0x3690 <__mulsf3>
     588:	2d ec       	ldi	r18, 0xCD	; 205
     58a:	3c ec       	ldi	r19, 0xCC	; 204
     58c:	4c e4       	ldi	r20, 0x4C	; 76
     58e:	5d e3       	ldi	r21, 0x3D	; 61
     590:	0e 94 50 19 	call	0x32a0	; 0x32a0 <__subsf3>
     594:	2a e9       	ldi	r18, 0x9A	; 154
     596:	39 e9       	ldi	r19, 0x99	; 153
     598:	45 e2       	ldi	r20, 0x25	; 37
     59a:	51 e4       	ldi	r21, 0x41	; 65
     59c:	0e 94 48 1b 	call	0x3690	; 0x3690 <__mulsf3>
	Analog->AnalogIn2 = ((Analog2 * 100) / 255);
	Analog->AnalogIn3 = ((Analog3 * 100) / 255);
	
	//-----Exponenetal filtering-------------------
	Analog->Vbat = Analog->Vbat*(1.0-BAT_voltage_alpha) + Vbat*BAT_voltage_alpha;
	Analog->Vcc = Analog->Vcc*(1.0-BAT_voltage_alpha) + Vcc*BAT_voltage_alpha;
     5a0:	2d ec       	ldi	r18, 0xCD	; 205
     5a2:	3c ec       	ldi	r19, 0xCC	; 204
     5a4:	4c e4       	ldi	r20, 0x4C	; 76
     5a6:	5d e3       	ldi	r21, 0x3D	; 61
     5a8:	0e 94 48 1b 	call	0x3690	; 0x3690 <__mulsf3>
     5ac:	9b 01       	movw	r18, r22
     5ae:	ac 01       	movw	r20, r24
     5b0:	c7 01       	movw	r24, r14
     5b2:	b6 01       	movw	r22, r12
     5b4:	0e 94 51 19 	call	0x32a2	; 0x32a2 <__addsf3>
     5b8:	f1 01       	movw	r30, r2
     5ba:	64 8f       	std	Z+28, r22	; 0x1c
     5bc:	75 8f       	std	Z+29, r23	; 0x1d
     5be:	86 8f       	std	Z+30, r24	; 0x1e
     5c0:	97 8f       	std	Z+31, r25	; 0x1f
}
     5c2:	24 96       	adiw	r28, 0x04	; 4
     5c4:	cd bf       	out	0x3d, r28	; 61
     5c6:	de bf       	out	0x3e, r29	; 62
     5c8:	df 91       	pop	r29
     5ca:	cf 91       	pop	r28
     5cc:	1f 91       	pop	r17
     5ce:	0f 91       	pop	r16
     5d0:	ff 90       	pop	r15
     5d2:	ef 90       	pop	r14
     5d4:	df 90       	pop	r13
     5d6:	cf 90       	pop	r12
     5d8:	bf 90       	pop	r11
     5da:	af 90       	pop	r10
     5dc:	9f 90       	pop	r9
     5de:	8f 90       	pop	r8
     5e0:	7f 90       	pop	r7
     5e2:	6f 90       	pop	r6
     5e4:	5f 90       	pop	r5
     5e6:	4f 90       	pop	r4
     5e8:	3f 90       	pop	r3
     5ea:	2f 90       	pop	r2
     5ec:	08 95       	ret

000005ee <__vector_default>:
    }
    buzzer_d.trigger = false;														//odblokowanie buzzera
    SPIaddress = 0;
}

void FLASH_saveData(allData_t * allData_d){
     5ee:	1f 92       	push	r1
     5f0:	0f 92       	push	r0
     5f2:	0f b6       	in	r0, 0x3f	; 63
     5f4:	0f 92       	push	r0
     5f6:	11 24       	eor	r1, r1
     5f8:	8f 93       	push	r24
     5fa:	88 e0       	ldi	r24, 0x08	; 8
     5fc:	80 93 07 06 	sts	0x0607, r24	; 0x800607 <__TEXT_REGION_LENGTH__+0x700607>
     600:	8f 91       	pop	r24
     602:	0f 90       	pop	r0
     604:	0f be       	out	0x3f, r0	; 63
     606:	0f 90       	pop	r0
     608:	1f 90       	pop	r1
     60a:	18 95       	reti

0000060c <__vector_119>:
     60c:	1f 92       	push	r1
     60e:	0f 92       	push	r0
     610:	0f b6       	in	r0, 0x3f	; 63
     612:	0f 92       	push	r0
     614:	11 24       	eor	r1, r1
     616:	0b b6       	in	r0, 0x3b	; 59
     618:	0f 92       	push	r0
     61a:	2f 93       	push	r18
     61c:	3f 93       	push	r19
     61e:	4f 93       	push	r20
     620:	5f 93       	push	r21
     622:	6f 93       	push	r22
     624:	7f 93       	push	r23
     626:	8f 93       	push	r24
     628:	9f 93       	push	r25
     62a:	af 93       	push	r26
     62c:	bf 93       	push	r27
     62e:	ef 93       	push	r30
     630:	ff 93       	push	r31
     632:	cf 93       	push	r28
     634:	df 93       	push	r29
     636:	1f 92       	push	r1
     638:	cd b7       	in	r28, 0x3d	; 61
     63a:	de b7       	in	r29, 0x3e	; 62
     63c:	00 00       	nop
     63e:	80 91 a0 0b 	lds	r24, 0x0BA0	; 0x800ba0 <__TEXT_REGION_LENGTH__+0x700ba0>
     642:	89 83       	std	Y+1, r24	; 0x01
     644:	89 81       	ldd	r24, Y+1	; 0x01
     646:	84 32       	cpi	r24, 0x24	; 36
     648:	61 f4       	brne	.+24     	; 0x662 <__vector_119+0x56>
     64a:	81 e0       	ldi	r24, 0x01	; 1
     64c:	80 93 06 24 	sts	0x2406, r24	; 0x802406 <GPS_b+0x44>
     650:	82 ec       	ldi	r24, 0xC2	; 194
     652:	93 e2       	ldi	r25, 0x23	; 35
     654:	0e 94 11 18 	call	0x3022	; 0x3022 <GPSbuf_init>
     658:	10 92 03 24 	sts	0x2403, r1	; 0x802403 <GPS_b+0x41>
     65c:	10 92 04 24 	sts	0x2404, r1	; 0x802404 <GPS_b+0x42>
     660:	b1 c0       	rjmp	.+354    	; 0x7c4 <__vector_119+0x1b8>
     662:	89 81       	ldd	r24, Y+1	; 0x01
     664:	8a 32       	cpi	r24, 0x2A	; 42
     666:	29 f4       	brne	.+10     	; 0x672 <__vector_119+0x66>
     668:	10 92 06 24 	sts	0x2406, r1	; 0x802406 <GPS_b+0x44>
     66c:	10 92 03 24 	sts	0x2403, r1	; 0x802403 <GPS_b+0x41>
     670:	a9 c0       	rjmp	.+338    	; 0x7c4 <__vector_119+0x1b8>
     672:	80 91 06 24 	lds	r24, 0x2406	; 0x802406 <GPS_b+0x44>
     676:	88 23       	and	r24, r24
     678:	09 f4       	brne	.+2      	; 0x67c <__vector_119+0x70>
     67a:	a4 c0       	rjmp	.+328    	; 0x7c4 <__vector_119+0x1b8>
     67c:	89 81       	ldd	r24, Y+1	; 0x01
     67e:	8c 32       	cpi	r24, 0x2C	; 44
     680:	71 f4       	brne	.+28     	; 0x69e <__vector_119+0x92>
     682:	a3 e0       	ldi	r26, 0x03	; 3
     684:	b4 e2       	ldi	r27, 0x24	; 36
     686:	ec 91       	ld	r30, X
     688:	f0 e0       	ldi	r31, 0x00	; 0
     68a:	ee 53       	subi	r30, 0x3E	; 62
     68c:	fc 4d       	sbci	r31, 0xDC	; 220
     68e:	85 a7       	std	Z+45, r24	; 0x2d
     690:	1c 92       	st	X, r1
     692:	e4 e0       	ldi	r30, 0x04	; 4
     694:	f4 e2       	ldi	r31, 0x24	; 36
     696:	80 81       	ld	r24, Z
     698:	8f 5f       	subi	r24, 0xFF	; 255
     69a:	80 83       	st	Z, r24
     69c:	10 c0       	rjmp	.+32     	; 0x6be <__vector_119+0xb2>
     69e:	a3 e0       	ldi	r26, 0x03	; 3
     6a0:	b4 e2       	ldi	r27, 0x24	; 36
     6a2:	ec 91       	ld	r30, X
     6a4:	81 e0       	ldi	r24, 0x01	; 1
     6a6:	8e 0f       	add	r24, r30
     6a8:	8c 93       	st	X, r24
     6aa:	89 81       	ldd	r24, Y+1	; 0x01
     6ac:	f0 e0       	ldi	r31, 0x00	; 0
     6ae:	ee 53       	subi	r30, 0x3E	; 62
     6b0:	fc 4d       	sbci	r31, 0xDC	; 220
     6b2:	85 a7       	std	Z+45, r24	; 0x2d
     6b4:	80 91 07 24 	lds	r24, 0x2407	; 0x802407 <GPS_b+0x45>
     6b8:	88 23       	and	r24, r24
     6ba:	09 f4       	brne	.+2      	; 0x6be <__vector_119+0xb2>
     6bc:	83 c0       	rjmp	.+262    	; 0x7c4 <__vector_119+0x1b8>
     6be:	10 92 07 24 	sts	0x2407, r1	; 0x802407 <GPS_b+0x45>
     6c2:	e0 91 04 24 	lds	r30, 0x2404	; 0x802404 <GPS_b+0x42>
     6c6:	8e 2f       	mov	r24, r30
     6c8:	90 e0       	ldi	r25, 0x00	; 0
     6ca:	fc 01       	movw	r30, r24
     6cc:	32 97       	sbiw	r30, 0x02	; 2
     6ce:	e9 30       	cpi	r30, 0x09	; 9
     6d0:	f1 05       	cpc	r31, r1
     6d2:	08 f0       	brcs	.+2      	; 0x6d6 <__vector_119+0xca>
     6d4:	77 c0       	rjmp	.+238    	; 0x7c4 <__vector_119+0x1b8>
     6d6:	88 27       	eor	r24, r24
     6d8:	e2 50       	subi	r30, 0x02	; 2
     6da:	ff 4f       	sbci	r31, 0xFF	; 255
     6dc:	8f 4f       	sbci	r24, 0xFF	; 255
     6de:	0c 94 72 1d 	jmp	0x3ae4	; 0x3ae4 <__tablejump2__>
     6e2:	80 91 ef 23 	lds	r24, 0x23EF	; 0x8023ef <GPS_b+0x2d>
     6e6:	8c 32       	cpi	r24, 0x2C	; 44
     6e8:	39 f5       	brne	.+78     	; 0x738 <__vector_119+0x12c>
     6ea:	6c c0       	rjmp	.+216    	; 0x7c4 <__vector_119+0x1b8>
     6ec:	80 91 ef 23 	lds	r24, 0x23EF	; 0x8023ef <GPS_b+0x2d>
     6f0:	8c 32       	cpi	r24, 0x2C	; 44
     6f2:	49 f4       	brne	.+18     	; 0x706 <__vector_119+0xfa>
     6f4:	67 c0       	rjmp	.+206    	; 0x7c4 <__vector_119+0x1b8>
     6f6:	80 91 ef 23 	lds	r24, 0x23EF	; 0x8023ef <GPS_b+0x2d>
     6fa:	8c 32       	cpi	r24, 0x2C	; 44
     6fc:	09 f0       	breq	.+2      	; 0x700 <__vector_119+0xf4>
     6fe:	4c c0       	rjmp	.+152    	; 0x798 <__vector_119+0x18c>
     700:	58 c0       	rjmp	.+176    	; 0x7b2 <__vector_119+0x1a6>
     702:	00 00       	nop
     704:	5f c0       	rjmp	.+190    	; 0x7c4 <__vector_119+0x1b8>
     706:	a7 ec       	ldi	r26, 0xC7	; 199
     708:	b3 e2       	ldi	r27, 0x23	; 35
     70a:	e0 ef       	ldi	r30, 0xF0	; 240
     70c:	f3 e2       	ldi	r31, 0x23	; 35
     70e:	8d 93       	st	X+, r24
     710:	81 91       	ld	r24, Z+
     712:	8c 32       	cpi	r24, 0x2C	; 44
     714:	e1 f7       	brne	.-8      	; 0x70e <__vector_119+0x102>
     716:	56 c0       	rjmp	.+172    	; 0x7c4 <__vector_119+0x1b8>
     718:	80 91 ef 23 	lds	r24, 0x23EF	; 0x8023ef <GPS_b+0x2d>
     71c:	8e 34       	cpi	r24, 0x4E	; 78
     71e:	19 f4       	brne	.+6      	; 0x726 <__vector_119+0x11a>
     720:	80 93 c6 23 	sts	0x23C6, r24	; 0x8023c6 <GPS_b+0x4>
     724:	4f c0       	rjmp	.+158    	; 0x7c4 <__vector_119+0x1b8>
     726:	83 35       	cpi	r24, 0x53	; 83
     728:	19 f4       	brne	.+6      	; 0x730 <__vector_119+0x124>
     72a:	80 93 c6 23 	sts	0x23C6, r24	; 0x8023c6 <GPS_b+0x4>
     72e:	4a c0       	rjmp	.+148    	; 0x7c4 <__vector_119+0x1b8>
     730:	88 e5       	ldi	r24, 0x58	; 88
     732:	80 93 c6 23 	sts	0x23C6, r24	; 0x8023c6 <GPS_b+0x4>
     736:	46 c0       	rjmp	.+140    	; 0x7c4 <__vector_119+0x1b8>
     738:	a5 ed       	ldi	r26, 0xD5	; 213
     73a:	b3 e2       	ldi	r27, 0x23	; 35
     73c:	e0 ef       	ldi	r30, 0xF0	; 240
     73e:	f3 e2       	ldi	r31, 0x23	; 35
     740:	8d 93       	st	X+, r24
     742:	81 91       	ld	r24, Z+
     744:	8c 32       	cpi	r24, 0x2C	; 44
     746:	e1 f7       	brne	.-8      	; 0x740 <__vector_119+0x134>
     748:	3d c0       	rjmp	.+122    	; 0x7c4 <__vector_119+0x1b8>
     74a:	80 91 ef 23 	lds	r24, 0x23EF	; 0x8023ef <GPS_b+0x2d>
     74e:	85 34       	cpi	r24, 0x45	; 69
     750:	19 f4       	brne	.+6      	; 0x758 <__vector_119+0x14c>
     752:	80 93 d4 23 	sts	0x23D4, r24	; 0x8023d4 <GPS_b+0x12>
     756:	36 c0       	rjmp	.+108    	; 0x7c4 <__vector_119+0x1b8>
     758:	87 35       	cpi	r24, 0x57	; 87
     75a:	19 f4       	brne	.+6      	; 0x762 <__vector_119+0x156>
     75c:	80 93 d4 23 	sts	0x23D4, r24	; 0x8023d4 <GPS_b+0x12>
     760:	31 c0       	rjmp	.+98     	; 0x7c4 <__vector_119+0x1b8>
     762:	88 e5       	ldi	r24, 0x58	; 88
     764:	80 93 d4 23 	sts	0x23D4, r24	; 0x8023d4 <GPS_b+0x12>
     768:	2d c0       	rjmp	.+90     	; 0x7c4 <__vector_119+0x1b8>
     76a:	80 91 ef 23 	lds	r24, 0x23EF	; 0x8023ef <GPS_b+0x2d>
     76e:	80 33       	cpi	r24, 0x30	; 48
     770:	19 f4       	brne	.+6      	; 0x778 <__vector_119+0x16c>
     772:	10 92 ee 23 	sts	0x23EE, r1	; 0x8023ee <GPS_b+0x2c>
     776:	26 c0       	rjmp	.+76     	; 0x7c4 <__vector_119+0x1b8>
     778:	81 33       	cpi	r24, 0x31	; 49
     77a:	21 f4       	brne	.+8      	; 0x784 <__vector_119+0x178>
     77c:	81 e0       	ldi	r24, 0x01	; 1
     77e:	80 93 ee 23 	sts	0x23EE, r24	; 0x8023ee <GPS_b+0x2c>
     782:	20 c0       	rjmp	.+64     	; 0x7c4 <__vector_119+0x1b8>
     784:	82 33       	cpi	r24, 0x32	; 50
     786:	f1 f4       	brne	.+60     	; 0x7c4 <__vector_119+0x1b8>
     788:	82 e0       	ldi	r24, 0x02	; 2
     78a:	80 93 ee 23 	sts	0x23EE, r24	; 0x8023ee <GPS_b+0x2c>
     78e:	1a c0       	rjmp	.+52     	; 0x7c4 <__vector_119+0x1b8>
     790:	00 00       	nop
     792:	18 c0       	rjmp	.+48     	; 0x7c4 <__vector_119+0x1b8>
     794:	00 00       	nop
     796:	16 c0       	rjmp	.+44     	; 0x7c4 <__vector_119+0x1b8>
     798:	a2 ee       	ldi	r26, 0xE2	; 226
     79a:	b3 e2       	ldi	r27, 0x23	; 35
     79c:	e0 ef       	ldi	r30, 0xF0	; 240
     79e:	f3 e2       	ldi	r31, 0x23	; 35
     7a0:	29 ef       	ldi	r18, 0xF9	; 249
     7a2:	33 e2       	ldi	r19, 0x23	; 35
     7a4:	8d 93       	st	X+, r24
     7a6:	81 91       	ld	r24, Z+
     7a8:	8c 32       	cpi	r24, 0x2C	; 44
     7aa:	19 f0       	breq	.+6      	; 0x7b2 <__vector_119+0x1a6>
     7ac:	e2 17       	cp	r30, r18
     7ae:	f3 07       	cpc	r31, r19
     7b0:	c9 f7       	brne	.-14     	; 0x7a4 <__vector_119+0x198>
     7b2:	88 e4       	ldi	r24, 0x48	; 72
     7b4:	e2 ec       	ldi	r30, 0xC2	; 194
     7b6:	f3 e2       	ldi	r31, 0x23	; 35
     7b8:	aa e7       	ldi	r26, 0x7A	; 122
     7ba:	b3 e2       	ldi	r27, 0x23	; 35
     7bc:	01 90       	ld	r0, Z+
     7be:	0d 92       	st	X+, r0
     7c0:	8a 95       	dec	r24
     7c2:	e1 f7       	brne	.-8      	; 0x7bc <__vector_119+0x1b0>
     7c4:	0f 90       	pop	r0
     7c6:	df 91       	pop	r29
     7c8:	cf 91       	pop	r28
     7ca:	ff 91       	pop	r31
     7cc:	ef 91       	pop	r30
     7ce:	bf 91       	pop	r27
     7d0:	af 91       	pop	r26
     7d2:	9f 91       	pop	r25
     7d4:	8f 91       	pop	r24
     7d6:	7f 91       	pop	r23
     7d8:	6f 91       	pop	r22
     7da:	5f 91       	pop	r21
     7dc:	4f 91       	pop	r20
     7de:	3f 91       	pop	r19
     7e0:	2f 91       	pop	r18
     7e2:	0f 90       	pop	r0
     7e4:	0b be       	out	0x3b, r0	; 59
     7e6:	0f 90       	pop	r0
     7e8:	0f be       	out	0x3f, r0	; 63
     7ea:	0f 90       	pop	r0
     7ec:	1f 90       	pop	r1
     7ee:	18 95       	reti

000007f0 <__vector_90>:
     7f0:	1f 92       	push	r1
     7f2:	0f 92       	push	r0
     7f4:	0f b6       	in	r0, 0x3f	; 63
     7f6:	0f 92       	push	r0
     7f8:	11 24       	eor	r1, r1
     7fa:	0b b6       	in	r0, 0x3b	; 59
     7fc:	0f 92       	push	r0
     7fe:	8f 93       	push	r24
     800:	9f 93       	push	r25
     802:	ef 93       	push	r30
     804:	ff 93       	push	r31
     806:	e0 91 e7 28 	lds	r30, 0x28E7	; 0x8028e7 <frame_d+0x258>
     80a:	f0 91 e8 28 	lds	r31, 0x28E8	; 0x8028e8 <frame_d+0x259>
     80e:	e1 57       	subi	r30, 0x71	; 113
     810:	f9 4d       	sbci	r31, 0xD9	; 217
     812:	80 81       	ld	r24, Z
     814:	88 23       	and	r24, r24
     816:	f9 f0       	breq	.+62     	; 0x856 <__vector_90+0x66>
     818:	83 32       	cpi	r24, 0x23	; 35
     81a:	e9 f0       	breq	.+58     	; 0x856 <__vector_90+0x66>
     81c:	91 e0       	ldi	r25, 0x01	; 1
     81e:	90 93 e9 28 	sts	0x28E9, r25	; 0x8028e9 <frame_d+0x25a>
     822:	85 32       	cpi	r24, 0x25	; 37
     824:	21 f4       	brne	.+8      	; 0x82e <__vector_90+0x3e>
     826:	8a e0       	ldi	r24, 0x0A	; 10
     828:	80 93 a0 09 	sts	0x09A0, r24	; 0x8009a0 <__TEXT_REGION_LENGTH__+0x7009a0>
     82c:	02 c0       	rjmp	.+4      	; 0x832 <__vector_90+0x42>
     82e:	80 93 a0 09 	sts	0x09A0, r24	; 0x8009a0 <__TEXT_REGION_LENGTH__+0x7009a0>
     832:	80 91 e7 28 	lds	r24, 0x28E7	; 0x8028e7 <frame_d+0x258>
     836:	90 91 e8 28 	lds	r25, 0x28E8	; 0x8028e8 <frame_d+0x259>
     83a:	87 39       	cpi	r24, 0x97	; 151
     83c:	91 05       	cpc	r25, r1
     83e:	30 f4       	brcc	.+12     	; 0x84c <__vector_90+0x5c>
     840:	01 96       	adiw	r24, 0x01	; 1
     842:	80 93 e7 28 	sts	0x28E7, r24	; 0x8028e7 <frame_d+0x258>
     846:	90 93 e8 28 	sts	0x28E8, r25	; 0x8028e8 <frame_d+0x259>
     84a:	07 c0       	rjmp	.+14     	; 0x85a <__vector_90+0x6a>
     84c:	fc 01       	movw	r30, r24
     84e:	e1 57       	subi	r30, 0x71	; 113
     850:	f9 4d       	sbci	r31, 0xD9	; 217
     852:	10 82       	st	Z, r1
     854:	02 c0       	rjmp	.+4      	; 0x85a <__vector_90+0x6a>
     856:	10 92 e9 28 	sts	0x28E9, r1	; 0x8028e9 <frame_d+0x25a>
     85a:	ff 91       	pop	r31
     85c:	ef 91       	pop	r30
     85e:	9f 91       	pop	r25
     860:	8f 91       	pop	r24
     862:	0f 90       	pop	r0
     864:	0b be       	out	0x3b, r0	; 59
     866:	0f 90       	pop	r0
     868:	0f be       	out	0x3f, r0	; 63
     86a:	0f 90       	pop	r0
     86c:	1f 90       	pop	r1
     86e:	18 95       	reti

00000870 <__vector_88>:
     870:	1f 92       	push	r1
     872:	0f 92       	push	r0
     874:	0f b6       	in	r0, 0x3f	; 63
     876:	0f 92       	push	r0
     878:	11 24       	eor	r1, r1
     87a:	0b b6       	in	r0, 0x3b	; 59
     87c:	0f 92       	push	r0
     87e:	2f 93       	push	r18
     880:	3f 93       	push	r19
     882:	4f 93       	push	r20
     884:	5f 93       	push	r21
     886:	6f 93       	push	r22
     888:	7f 93       	push	r23
     88a:	8f 93       	push	r24
     88c:	9f 93       	push	r25
     88e:	af 93       	push	r26
     890:	bf 93       	push	r27
     892:	ef 93       	push	r30
     894:	ff 93       	push	r31
     896:	cf 93       	push	r28
     898:	df 93       	push	r29
     89a:	1f 92       	push	r1
     89c:	cd b7       	in	r28, 0x3d	; 61
     89e:	de b7       	in	r29, 0x3e	; 62
     8a0:	80 e1       	ldi	r24, 0x10	; 16
     8a2:	80 93 05 06 	sts	0x0605, r24	; 0x800605 <__TEXT_REGION_LENGTH__+0x700605>
     8a6:	80 91 a0 09 	lds	r24, 0x09A0	; 0x8009a0 <__TEXT_REGION_LENGTH__+0x7009a0>
     8aa:	89 83       	std	Y+1, r24	; 0x01
     8ac:	89 81       	ldd	r24, Y+1	; 0x01
     8ae:	84 32       	cpi	r24, 0x24	; 36
     8b0:	21 f4       	brne	.+8      	; 0x8ba <__vector_88+0x4a>
     8b2:	81 e0       	ldi	r24, 0x01	; 1
     8b4:	80 93 16 29 	sts	0x2916, r24	; 0x802916 <stan_d+0x2>
     8b8:	c1 c0       	rjmp	.+386    	; 0xa3c <__vector_88+0x1cc>
     8ba:	89 81       	ldd	r24, Y+1	; 0x01
     8bc:	82 35       	cpi	r24, 0x52	; 82
     8be:	81 f4       	brne	.+32     	; 0x8e0 <__vector_88+0x70>
     8c0:	80 91 16 29 	lds	r24, 0x2916	; 0x802916 <stan_d+0x2>
     8c4:	88 23       	and	r24, r24
     8c6:	09 f4       	brne	.+2      	; 0x8ca <__vector_88+0x5a>
     8c8:	93 c0       	rjmp	.+294    	; 0x9f0 <__vector_88+0x180>
     8ca:	8f b7       	in	r24, 0x3f	; 63
     8cc:	f8 94       	cli
     8ce:	10 92 16 29 	sts	0x2916, r1	; 0x802916 <stan_d+0x2>
     8d2:	98 ed       	ldi	r25, 0xD8	; 216
     8d4:	94 bf       	out	0x34, r25	; 52
     8d6:	91 e0       	ldi	r25, 0x01	; 1
     8d8:	90 93 79 00 	sts	0x0079, r25	; 0x800079 <__TEXT_REGION_LENGTH__+0x700079>
     8dc:	8f bf       	out	0x3f, r24	; 63
     8de:	ae c0       	rjmp	.+348    	; 0xa3c <__vector_88+0x1cc>
     8e0:	89 81       	ldd	r24, Y+1	; 0x01
     8e2:	83 34       	cpi	r24, 0x43	; 67
     8e4:	81 f4       	brne	.+32     	; 0x906 <__vector_88+0x96>
     8e6:	80 91 16 29 	lds	r24, 0x2916	; 0x802916 <stan_d+0x2>
     8ea:	88 23       	and	r24, r24
     8ec:	09 f4       	brne	.+2      	; 0x8f0 <__vector_88+0x80>
     8ee:	86 c0       	rjmp	.+268    	; 0x9fc <__vector_88+0x18c>
     8f0:	e7 e2       	ldi	r30, 0x27	; 39
     8f2:	f3 e2       	ldi	r31, 0x23	; 35
     8f4:	10 a2       	std	Z+32, r1	; 0x20
     8f6:	11 a2       	std	Z+33, r1	; 0x21
     8f8:	81 e0       	ldi	r24, 0x01	; 1
     8fa:	82 a3       	std	Z+34, r24	; 0x22
     8fc:	e4 e1       	ldi	r30, 0x14	; 20
     8fe:	f9 e2       	ldi	r31, 0x29	; 41
     900:	83 83       	std	Z+3, r24	; 0x03
     902:	12 82       	std	Z+2, r1	; 0x02
     904:	9b c0       	rjmp	.+310    	; 0xa3c <__vector_88+0x1cc>
     906:	89 81       	ldd	r24, Y+1	; 0x01
     908:	80 35       	cpi	r24, 0x50	; 80
     90a:	01 f5       	brne	.+64     	; 0x94c <__vector_88+0xdc>
     90c:	80 91 16 29 	lds	r24, 0x2916	; 0x802916 <stan_d+0x2>
     910:	88 23       	and	r24, r24
     912:	09 f4       	brne	.+2      	; 0x916 <__vector_88+0xa6>
     914:	79 c0       	rjmp	.+242    	; 0xa08 <__vector_88+0x198>
     916:	0e 94 b8 0f 	call	0x1f70	; 0x1f70 <SPI_ChipErase>
     91a:	10 92 1c 21 	sts	0x211C, r1	; 0x80211c <SPIaddress>
     91e:	10 92 1d 21 	sts	0x211D, r1	; 0x80211d <SPIaddress+0x1>
     922:	10 92 1e 21 	sts	0x211E, r1	; 0x80211e <SPIaddress+0x2>
     926:	10 92 1f 21 	sts	0x211F, r1	; 0x80211f <SPIaddress+0x3>
     92a:	10 92 16 29 	sts	0x2916, r1	; 0x802916 <stan_d+0x2>
     92e:	e3 e2       	ldi	r30, 0x23	; 35
     930:	f3 e2       	ldi	r31, 0x23	; 35
     932:	81 e0       	ldi	r24, 0x01	; 1
     934:	81 83       	std	Z+1, r24	; 0x01
     936:	80 83       	st	Z, r24
     938:	2f ef       	ldi	r18, 0xFF	; 255
     93a:	87 ea       	ldi	r24, 0xA7	; 167
     93c:	91 e6       	ldi	r25, 0x61	; 97
     93e:	21 50       	subi	r18, 0x01	; 1
     940:	80 40       	sbci	r24, 0x00	; 0
     942:	90 40       	sbci	r25, 0x00	; 0
     944:	e1 f7       	brne	.-8      	; 0x93e <__vector_88+0xce>
     946:	00 c0       	rjmp	.+0      	; 0x948 <__vector_88+0xd8>
     948:	00 00       	nop
     94a:	78 c0       	rjmp	.+240    	; 0xa3c <__vector_88+0x1cc>
     94c:	89 81       	ldd	r24, Y+1	; 0x01
     94e:	88 35       	cpi	r24, 0x58	; 88
     950:	59 f4       	brne	.+22     	; 0x968 <__vector_88+0xf8>
     952:	80 91 16 29 	lds	r24, 0x2916	; 0x802916 <stan_d+0x2>
     956:	88 23       	and	r24, r24
     958:	09 f4       	brne	.+2      	; 0x95c <__vector_88+0xec>
     95a:	5c c0       	rjmp	.+184    	; 0xa14 <__vector_88+0x1a4>
     95c:	e4 e1       	ldi	r30, 0x14	; 20
     95e:	f9 e2       	ldi	r31, 0x29	; 41
     960:	81 e0       	ldi	r24, 0x01	; 1
     962:	85 83       	std	Z+5, r24	; 0x05
     964:	12 82       	std	Z+2, r1	; 0x02
     966:	6a c0       	rjmp	.+212    	; 0xa3c <__vector_88+0x1cc>
     968:	89 81       	ldd	r24, Y+1	; 0x01
     96a:	8b 34       	cpi	r24, 0x4B	; 75
     96c:	51 f4       	brne	.+20     	; 0x982 <__vector_88+0x112>
     96e:	80 91 16 29 	lds	r24, 0x2916	; 0x802916 <stan_d+0x2>
     972:	88 23       	and	r24, r24
     974:	09 f4       	brne	.+2      	; 0x978 <__vector_88+0x108>
     976:	53 c0       	rjmp	.+166    	; 0xa1e <__vector_88+0x1ae>
     978:	e4 e1       	ldi	r30, 0x14	; 20
     97a:	f9 e2       	ldi	r31, 0x29	; 41
     97c:	15 82       	std	Z+5, r1	; 0x05
     97e:	12 82       	std	Z+2, r1	; 0x02
     980:	5d c0       	rjmp	.+186    	; 0xa3c <__vector_88+0x1cc>
     982:	89 81       	ldd	r24, Y+1	; 0x01
     984:	83 35       	cpi	r24, 0x53	; 83
     986:	59 f4       	brne	.+22     	; 0x99e <__vector_88+0x12e>
     988:	80 91 16 29 	lds	r24, 0x2916	; 0x802916 <stan_d+0x2>
     98c:	88 23       	and	r24, r24
     98e:	09 f4       	brne	.+2      	; 0x992 <__vector_88+0x122>
     990:	4b c0       	rjmp	.+150    	; 0xa28 <__vector_88+0x1b8>
     992:	e4 e1       	ldi	r30, 0x14	; 20
     994:	f9 e2       	ldi	r31, 0x29	; 41
     996:	81 e0       	ldi	r24, 0x01	; 1
     998:	84 83       	std	Z+4, r24	; 0x04
     99a:	12 82       	std	Z+2, r1	; 0x02
     99c:	4f c0       	rjmp	.+158    	; 0xa3c <__vector_88+0x1cc>
     99e:	89 81       	ldd	r24, Y+1	; 0x01
     9a0:	86 34       	cpi	r24, 0x46	; 70
     9a2:	51 f4       	brne	.+20     	; 0x9b8 <__vector_88+0x148>
     9a4:	80 91 16 29 	lds	r24, 0x2916	; 0x802916 <stan_d+0x2>
     9a8:	88 23       	and	r24, r24
     9aa:	09 f4       	brne	.+2      	; 0x9ae <__vector_88+0x13e>
     9ac:	42 c0       	rjmp	.+132    	; 0xa32 <__vector_88+0x1c2>
     9ae:	e4 e1       	ldi	r30, 0x14	; 20
     9b0:	f9 e2       	ldi	r31, 0x29	; 41
     9b2:	14 82       	std	Z+4, r1	; 0x04
     9b4:	12 82       	std	Z+2, r1	; 0x02
     9b6:	42 c0       	rjmp	.+132    	; 0xa3c <__vector_88+0x1cc>
     9b8:	89 81       	ldd	r24, Y+1	; 0x01
     9ba:	81 34       	cpi	r24, 0x41	; 65
     9bc:	51 f4       	brne	.+20     	; 0x9d2 <__vector_88+0x162>
     9be:	80 91 16 29 	lds	r24, 0x2916	; 0x802916 <stan_d+0x2>
     9c2:	88 23       	and	r24, r24
     9c4:	c9 f1       	breq	.+114    	; 0xa38 <__vector_88+0x1c8>
     9c6:	e4 e1       	ldi	r30, 0x14	; 20
     9c8:	f9 e2       	ldi	r31, 0x29	; 41
     9ca:	81 e0       	ldi	r24, 0x01	; 1
     9cc:	86 83       	std	Z+6, r24	; 0x06
     9ce:	12 82       	std	Z+2, r1	; 0x02
     9d0:	35 c0       	rjmp	.+106    	; 0xa3c <__vector_88+0x1cc>
     9d2:	89 81       	ldd	r24, Y+1	; 0x01
     9d4:	84 34       	cpi	r24, 0x44	; 68
     9d6:	49 f4       	brne	.+18     	; 0x9ea <__vector_88+0x17a>
     9d8:	80 91 16 29 	lds	r24, 0x2916	; 0x802916 <stan_d+0x2>
     9dc:	88 23       	and	r24, r24
     9de:	29 f0       	breq	.+10     	; 0x9ea <__vector_88+0x17a>
     9e0:	e4 e1       	ldi	r30, 0x14	; 20
     9e2:	f9 e2       	ldi	r31, 0x29	; 41
     9e4:	16 82       	std	Z+6, r1	; 0x06
     9e6:	12 82       	std	Z+2, r1	; 0x02
     9e8:	29 c0       	rjmp	.+82     	; 0xa3c <__vector_88+0x1cc>
     9ea:	10 92 16 29 	sts	0x2916, r1	; 0x802916 <stan_d+0x2>
     9ee:	26 c0       	rjmp	.+76     	; 0xa3c <__vector_88+0x1cc>
     9f0:	89 81       	ldd	r24, Y+1	; 0x01
     9f2:	89 81       	ldd	r24, Y+1	; 0x01
     9f4:	80 35       	cpi	r24, 0x50	; 80
     9f6:	09 f0       	breq	.+2      	; 0x9fa <__vector_88+0x18a>
     9f8:	a9 cf       	rjmp	.-174    	; 0x94c <__vector_88+0xdc>
     9fa:	06 c0       	rjmp	.+12     	; 0xa08 <__vector_88+0x198>
     9fc:	89 81       	ldd	r24, Y+1	; 0x01
     9fe:	89 81       	ldd	r24, Y+1	; 0x01
     a00:	88 35       	cpi	r24, 0x58	; 88
     a02:	09 f0       	breq	.+2      	; 0xa06 <__vector_88+0x196>
     a04:	b1 cf       	rjmp	.-158    	; 0x968 <__vector_88+0xf8>
     a06:	06 c0       	rjmp	.+12     	; 0xa14 <__vector_88+0x1a4>
     a08:	89 81       	ldd	r24, Y+1	; 0x01
     a0a:	89 81       	ldd	r24, Y+1	; 0x01
     a0c:	8b 34       	cpi	r24, 0x4B	; 75
     a0e:	09 f0       	breq	.+2      	; 0xa12 <__vector_88+0x1a2>
     a10:	b8 cf       	rjmp	.-144    	; 0x982 <__vector_88+0x112>
     a12:	05 c0       	rjmp	.+10     	; 0xa1e <__vector_88+0x1ae>
     a14:	89 81       	ldd	r24, Y+1	; 0x01
     a16:	89 81       	ldd	r24, Y+1	; 0x01
     a18:	83 35       	cpi	r24, 0x53	; 83
     a1a:	09 f6       	brne	.-126    	; 0x99e <__vector_88+0x12e>
     a1c:	05 c0       	rjmp	.+10     	; 0xa28 <__vector_88+0x1b8>
     a1e:	89 81       	ldd	r24, Y+1	; 0x01
     a20:	89 81       	ldd	r24, Y+1	; 0x01
     a22:	86 34       	cpi	r24, 0x46	; 70
     a24:	49 f6       	brne	.-110    	; 0x9b8 <__vector_88+0x148>
     a26:	05 c0       	rjmp	.+10     	; 0xa32 <__vector_88+0x1c2>
     a28:	89 81       	ldd	r24, Y+1	; 0x01
     a2a:	89 81       	ldd	r24, Y+1	; 0x01
     a2c:	81 34       	cpi	r24, 0x41	; 65
     a2e:	89 f6       	brne	.-94     	; 0x9d2 <__vector_88+0x162>
     a30:	03 c0       	rjmp	.+6      	; 0xa38 <__vector_88+0x1c8>
     a32:	89 81       	ldd	r24, Y+1	; 0x01
     a34:	89 81       	ldd	r24, Y+1	; 0x01
     a36:	d9 cf       	rjmp	.-78     	; 0x9ea <__vector_88+0x17a>
     a38:	89 81       	ldd	r24, Y+1	; 0x01
     a3a:	d7 cf       	rjmp	.-82     	; 0x9ea <__vector_88+0x17a>
     a3c:	0f 90       	pop	r0
     a3e:	df 91       	pop	r29
     a40:	cf 91       	pop	r28
     a42:	ff 91       	pop	r31
     a44:	ef 91       	pop	r30
     a46:	bf 91       	pop	r27
     a48:	af 91       	pop	r26
     a4a:	9f 91       	pop	r25
     a4c:	8f 91       	pop	r24
     a4e:	7f 91       	pop	r23
     a50:	6f 91       	pop	r22
     a52:	5f 91       	pop	r21
     a54:	4f 91       	pop	r20
     a56:	3f 91       	pop	r19
     a58:	2f 91       	pop	r18
     a5a:	0f 90       	pop	r0
     a5c:	0b be       	out	0x3b, r0	; 59
     a5e:	0f 90       	pop	r0
     a60:	0f be       	out	0x3f, r0	; 63
     a62:	0f 90       	pop	r0
     a64:	1f 90       	pop	r1
     a66:	18 95       	reti

00000a68 <__vector_14>:
     a68:	1f 92       	push	r1
     a6a:	0f 92       	push	r0
     a6c:	0f b6       	in	r0, 0x3f	; 63
     a6e:	0f 92       	push	r0
     a70:	11 24       	eor	r1, r1
     a72:	0b b6       	in	r0, 0x3b	; 59
     a74:	0f 92       	push	r0
     a76:	8f 93       	push	r24
     a78:	9f 93       	push	r25
     a7a:	af 93       	push	r26
     a7c:	bf 93       	push	r27
     a7e:	ef 93       	push	r30
     a80:	ff 93       	push	r31
     a82:	ed ed       	ldi	r30, 0xDD	; 221
     a84:	f9 e2       	ldi	r31, 0x29	; 41
     a86:	a2 85       	ldd	r26, Z+10	; 0x0a
     a88:	b3 85       	ldd	r27, Z+11	; 0x0b
     a8a:	81 e0       	ldi	r24, 0x01	; 1
     a8c:	8c 93       	st	X, r24
     a8e:	06 88       	ldd	r0, Z+22	; 0x16
     a90:	f7 89       	ldd	r31, Z+23	; 0x17
     a92:	e0 2d       	mov	r30, r0
     a94:	80 81       	ld	r24, Z
     a96:	91 81       	ldd	r25, Z+1	; 0x01
     a98:	a2 81       	ldd	r26, Z+2	; 0x02
     a9a:	b3 81       	ldd	r27, Z+3	; 0x03
     a9c:	01 96       	adiw	r24, 0x01	; 1
     a9e:	a1 1d       	adc	r26, r1
     aa0:	b1 1d       	adc	r27, r1
     aa2:	80 83       	st	Z, r24
     aa4:	91 83       	std	Z+1, r25	; 0x01
     aa6:	a2 83       	std	Z+2, r26	; 0x02
     aa8:	b3 83       	std	Z+3, r27	; 0x03
     aaa:	ff 91       	pop	r31
     aac:	ef 91       	pop	r30
     aae:	bf 91       	pop	r27
     ab0:	af 91       	pop	r26
     ab2:	9f 91       	pop	r25
     ab4:	8f 91       	pop	r24
     ab6:	0f 90       	pop	r0
     ab8:	0b be       	out	0x3b, r0	; 59
     aba:	0f 90       	pop	r0
     abc:	0f be       	out	0x3f, r0	; 63
     abe:	0f 90       	pop	r0
     ac0:	1f 90       	pop	r1
     ac2:	18 95       	reti

00000ac4 <__vector_77>:
     ac4:	1f 92       	push	r1
     ac6:	0f 92       	push	r0
     ac8:	0f b6       	in	r0, 0x3f	; 63
     aca:	0f 92       	push	r0
     acc:	11 24       	eor	r1, r1
     ace:	0b b6       	in	r0, 0x3b	; 59
     ad0:	0f 92       	push	r0
     ad2:	8f 93       	push	r24
     ad4:	9f 93       	push	r25
     ad6:	ef 93       	push	r30
     ad8:	ff 93       	push	r31
     ada:	80 91 23 23 	lds	r24, 0x2323	; 0x802323 <buzzer_d>
     ade:	88 23       	and	r24, r24
     ae0:	09 f4       	brne	.+2      	; 0xae4 <__vector_77+0x20>
     ae2:	43 c0       	rjmp	.+134    	; 0xb6a <__vector_77+0xa6>
     ae4:	80 91 24 23 	lds	r24, 0x2324	; 0x802324 <buzzer_d+0x1>
     ae8:	82 30       	cpi	r24, 0x02	; 2
     aea:	19 f1       	breq	.+70     	; 0xb32 <__vector_77+0x6e>
     aec:	28 f4       	brcc	.+10     	; 0xaf8 <__vector_77+0x34>
     aee:	88 23       	and	r24, r24
     af0:	49 f0       	breq	.+18     	; 0xb04 <__vector_77+0x40>
     af2:	81 30       	cpi	r24, 0x01	; 1
     af4:	81 f0       	breq	.+32     	; 0xb16 <__vector_77+0x52>
     af6:	3e c0       	rjmp	.+124    	; 0xb74 <__vector_77+0xb0>
     af8:	84 30       	cpi	r24, 0x04	; 4
     afa:	19 f1       	breq	.+70     	; 0xb42 <__vector_77+0x7e>
     afc:	f0 f0       	brcs	.+60     	; 0xb3a <__vector_77+0x76>
     afe:	85 30       	cpi	r24, 0x05	; 5
     b00:	31 f1       	breq	.+76     	; 0xb4e <__vector_77+0x8a>
     b02:	38 c0       	rjmp	.+112    	; 0xb74 <__vector_77+0xb0>
     b04:	e3 e2       	ldi	r30, 0x23	; 35
     b06:	f3 e2       	ldi	r31, 0x23	; 35
     b08:	10 82       	st	Z, r1
     b0a:	13 82       	std	Z+3, r1	; 0x03
     b0c:	12 82       	std	Z+2, r1	; 0x02
     b0e:	80 e4       	ldi	r24, 0x40	; 64
     b10:	80 93 a6 06 	sts	0x06A6, r24	; 0x8006a6 <__TEXT_REGION_LENGTH__+0x7006a6>
     b14:	2f c0       	rjmp	.+94     	; 0xb74 <__vector_77+0xb0>
     b16:	80 91 26 23 	lds	r24, 0x2326	; 0x802326 <buzzer_d+0x3>
     b1a:	87 30       	cpi	r24, 0x07	; 7
     b1c:	18 f0       	brcs	.+6      	; 0xb24 <__vector_77+0x60>
     b1e:	10 92 24 23 	sts	0x2324, r1	; 0x802324 <buzzer_d+0x1>
     b22:	28 c0       	rjmp	.+80     	; 0xb74 <__vector_77+0xb0>
     b24:	90 e4       	ldi	r25, 0x40	; 64
     b26:	90 93 a7 06 	sts	0x06A7, r25	; 0x8006a7 <__TEXT_REGION_LENGTH__+0x7006a7>
     b2a:	8f 5f       	subi	r24, 0xFF	; 255
     b2c:	80 93 26 23 	sts	0x2326, r24	; 0x802326 <buzzer_d+0x3>
     b30:	21 c0       	rjmp	.+66     	; 0xb74 <__vector_77+0xb0>
     b32:	80 e4       	ldi	r24, 0x40	; 64
     b34:	80 93 a7 06 	sts	0x06A7, r24	; 0x8006a7 <__TEXT_REGION_LENGTH__+0x7006a7>
     b38:	1d c0       	rjmp	.+58     	; 0xb74 <__vector_77+0xb0>
     b3a:	80 e4       	ldi	r24, 0x40	; 64
     b3c:	80 93 a5 06 	sts	0x06A5, r24	; 0x8006a5 <__TEXT_REGION_LENGTH__+0x7006a5>
     b40:	19 c0       	rjmp	.+50     	; 0xb74 <__vector_77+0xb0>
     b42:	80 e4       	ldi	r24, 0x40	; 64
     b44:	80 93 a5 06 	sts	0x06A5, r24	; 0x8006a5 <__TEXT_REGION_LENGTH__+0x7006a5>
     b48:	10 92 24 23 	sts	0x2324, r1	; 0x802324 <buzzer_d+0x1>
     b4c:	13 c0       	rjmp	.+38     	; 0xb74 <__vector_77+0xb0>
     b4e:	80 91 26 23 	lds	r24, 0x2326	; 0x802326 <buzzer_d+0x3>
     b52:	85 30       	cpi	r24, 0x05	; 5
     b54:	18 f0       	brcs	.+6      	; 0xb5c <__vector_77+0x98>
     b56:	10 92 24 23 	sts	0x2324, r1	; 0x802324 <buzzer_d+0x1>
     b5a:	0c c0       	rjmp	.+24     	; 0xb74 <__vector_77+0xb0>
     b5c:	90 e4       	ldi	r25, 0x40	; 64
     b5e:	90 93 a7 06 	sts	0x06A7, r25	; 0x8006a7 <__TEXT_REGION_LENGTH__+0x7006a7>
     b62:	8f 5f       	subi	r24, 0xFF	; 255
     b64:	80 93 26 23 	sts	0x2326, r24	; 0x802326 <buzzer_d+0x3>
     b68:	05 c0       	rjmp	.+10     	; 0xb74 <__vector_77+0xb0>
     b6a:	10 92 24 23 	sts	0x2324, r1	; 0x802324 <buzzer_d+0x1>
     b6e:	80 e4       	ldi	r24, 0x40	; 64
     b70:	80 93 a6 06 	sts	0x06A6, r24	; 0x8006a6 <__TEXT_REGION_LENGTH__+0x7006a6>
     b74:	ff 91       	pop	r31
     b76:	ef 91       	pop	r30
     b78:	9f 91       	pop	r25
     b7a:	8f 91       	pop	r24
     b7c:	0f 90       	pop	r0
     b7e:	0b be       	out	0x3b, r0	; 59
     b80:	0f 90       	pop	r0
     b82:	0f be       	out	0x3f, r0	; 63
     b84:	0f 90       	pop	r0
     b86:	1f 90       	pop	r1
     b88:	18 95       	reti

00000b8a <__vector_47>:
     b8a:	1f 92       	push	r1
     b8c:	0f 92       	push	r0
     b8e:	0f b6       	in	r0, 0x3f	; 63
     b90:	0f 92       	push	r0
     b92:	11 24       	eor	r1, r1
     b94:	8f 93       	push	r24
     b96:	80 e1       	ldi	r24, 0x10	; 16
     b98:	80 93 06 06 	sts	0x0606, r24	; 0x800606 <__TEXT_REGION_LENGTH__+0x700606>
     b9c:	10 92 16 29 	sts	0x2916, r1	; 0x802916 <stan_d+0x2>
     ba0:	8f 91       	pop	r24
     ba2:	0f 90       	pop	r0
     ba4:	0f be       	out	0x3f, r0	; 63
     ba6:	0f 90       	pop	r0
     ba8:	1f 90       	pop	r1
     baa:	18 95       	reti

00000bac <__vector_108>:
     bac:	1f 92       	push	r1
     bae:	0f 92       	push	r0
     bb0:	0f b6       	in	r0, 0x3f	; 63
     bb2:	0f 92       	push	r0
     bb4:	11 24       	eor	r1, r1
     bb6:	0b b6       	in	r0, 0x3b	; 59
     bb8:	0f 92       	push	r0
     bba:	2f 93       	push	r18
     bbc:	3f 93       	push	r19
     bbe:	4f 93       	push	r20
     bc0:	5f 93       	push	r21
     bc2:	6f 93       	push	r22
     bc4:	7f 93       	push	r23
     bc6:	8f 93       	push	r24
     bc8:	9f 93       	push	r25
     bca:	af 93       	push	r26
     bcc:	bf 93       	push	r27
     bce:	ef 93       	push	r30
     bd0:	ff 93       	push	r31
     bd2:	80 e2       	ldi	r24, 0x20	; 32
     bd4:	80 93 07 06 	sts	0x0607, r24	; 0x800607 <__TEXT_REGION_LENGTH__+0x700607>
     bd8:	10 92 ea 28 	sts	0x28EA, r1	; 0x8028ea <frame_d+0x25b>
     bdc:	80 91 18 29 	lds	r24, 0x2918	; 0x802918 <stan_d+0x4>
     be0:	88 23       	and	r24, r24
     be2:	41 f1       	breq	.+80     	; 0xc34 <__vector_108+0x88>
     be4:	80 91 d3 29 	lds	r24, 0x29D3	; 0x8029d3 <RTC_d+0x4>
     be8:	90 91 d4 29 	lds	r25, 0x29D4	; 0x8029d4 <RTC_d+0x5>
     bec:	a0 91 d5 29 	lds	r26, 0x29D5	; 0x8029d5 <RTC_d+0x6>
     bf0:	b0 91 d6 29 	lds	r27, 0x29D6	; 0x8029d6 <RTC_d+0x7>
     bf4:	8f 39       	cpi	r24, 0x9F	; 159
     bf6:	26 e8       	ldi	r18, 0x86	; 134
     bf8:	92 07       	cpc	r25, r18
     bfa:	21 e0       	ldi	r18, 0x01	; 1
     bfc:	a2 07       	cpc	r26, r18
     bfe:	b1 05       	cpc	r27, r1
     c00:	60 f4       	brcc	.+24     	; 0xc1a <__vector_108+0x6e>
     c02:	01 96       	adiw	r24, 0x01	; 1
     c04:	a1 1d       	adc	r26, r1
     c06:	b1 1d       	adc	r27, r1
     c08:	80 93 d3 29 	sts	0x29D3, r24	; 0x8029d3 <RTC_d+0x4>
     c0c:	90 93 d4 29 	sts	0x29D4, r25	; 0x8029d4 <RTC_d+0x5>
     c10:	a0 93 d5 29 	sts	0x29D5, r26	; 0x8029d5 <RTC_d+0x6>
     c14:	b0 93 d6 29 	sts	0x29D6, r27	; 0x8029d6 <RTC_d+0x7>
     c18:	08 c0       	rjmp	.+16     	; 0xc2a <__vector_108+0x7e>
     c1a:	10 92 d3 29 	sts	0x29D3, r1	; 0x8029d3 <RTC_d+0x4>
     c1e:	10 92 d4 29 	sts	0x29D4, r1	; 0x8029d4 <RTC_d+0x5>
     c22:	10 92 d5 29 	sts	0x29D5, r1	; 0x8029d5 <RTC_d+0x6>
     c26:	10 92 d6 29 	sts	0x29D6, r1	; 0x8029d6 <RTC_d+0x7>
     c2a:	10 92 62 26 	sts	0x2662, r1	; 0x802662 <frame_b+0x258>
     c2e:	10 92 63 26 	sts	0x2663, r1	; 0x802663 <frame_b+0x259>
     c32:	de dd       	rcall	.-1092   	; 0x7f0 <__vector_90>
     c34:	ff 91       	pop	r31
     c36:	ef 91       	pop	r30
     c38:	bf 91       	pop	r27
     c3a:	af 91       	pop	r26
     c3c:	9f 91       	pop	r25
     c3e:	8f 91       	pop	r24
     c40:	7f 91       	pop	r23
     c42:	6f 91       	pop	r22
     c44:	5f 91       	pop	r21
     c46:	4f 91       	pop	r20
     c48:	3f 91       	pop	r19
     c4a:	2f 91       	pop	r18
     c4c:	0f 90       	pop	r0
     c4e:	0b be       	out	0x3b, r0	; 59
     c50:	0f 90       	pop	r0
     c52:	0f be       	out	0x3f, r0	; 63
     c54:	0f 90       	pop	r0
     c56:	1f 90       	pop	r1
     c58:	18 95       	reti

00000c5a <Buzzer3Beep>:
     c5a:	e3 e2       	ldi	r30, 0x23	; 35
     c5c:	f3 e2       	ldi	r31, 0x23	; 35
     c5e:	81 e0       	ldi	r24, 0x01	; 1
     c60:	81 83       	std	Z+1, r24	; 0x01
     c62:	80 83       	st	Z, r24
     c64:	08 95       	ret

00000c66 <Buzzer2Hz>:
     c66:	e3 e2       	ldi	r30, 0x23	; 35
     c68:	f3 e2       	ldi	r31, 0x23	; 35
     c6a:	82 e0       	ldi	r24, 0x02	; 2
     c6c:	81 83       	std	Z+1, r24	; 0x01
     c6e:	81 e0       	ldi	r24, 0x01	; 1
     c70:	80 83       	st	Z, r24
     c72:	08 95       	ret

00000c74 <Buzzer1Beep>:
     c74:	e3 e2       	ldi	r30, 0x23	; 35
     c76:	f3 e2       	ldi	r31, 0x23	; 35
     c78:	84 e0       	ldi	r24, 0x04	; 4
     c7a:	81 83       	std	Z+1, r24	; 0x01
     c7c:	81 e0       	ldi	r24, 0x01	; 1
     c7e:	80 83       	st	Z, r24
     c80:	08 95       	ret

00000c82 <Buzzer2Beep>:
     c82:	e3 e2       	ldi	r30, 0x23	; 35
     c84:	f3 e2       	ldi	r31, 0x23	; 35
     c86:	85 e0       	ldi	r24, 0x05	; 5
     c88:	81 83       	std	Z+1, r24	; 0x01
     c8a:	81 e0       	ldi	r24, 0x01	; 1
     c8c:	80 83       	st	Z, r24
     c8e:	08 95       	ret

00000c90 <SensorCal>:
	}
	*/
}

//----------------------Kalibracja wsystkich czujnikw-----------------
void SensorCal(void) {
     c90:	cf 92       	push	r12
     c92:	df 92       	push	r13
     c94:	ef 92       	push	r14
     c96:	ff 92       	push	r15
     c98:	cf 93       	push	r28
     c9a:	df 93       	push	r29
    if(Calibration_d.counter < 1) {
     c9c:	80 91 47 23 	lds	r24, 0x2347	; 0x802347 <Calibration_d+0x20>
     ca0:	90 91 48 23 	lds	r25, 0x2348	; 0x802348 <Calibration_d+0x21>
     ca4:	89 2b       	or	r24, r25
     ca6:	29 f5       	brne	.+74     	; 0xcf2 <SensorCal+0x62>
        Calibration_d.BMP_pressure = 0;
     ca8:	e7 e2       	ldi	r30, 0x27	; 39
     caa:	f3 e2       	ldi	r31, 0x23	; 35
     cac:	10 82       	st	Z, r1
     cae:	11 82       	std	Z+1, r1	; 0x01
     cb0:	12 82       	std	Z+2, r1	; 0x02
     cb2:	13 82       	std	Z+3, r1	; 0x03
        Calibration_d.LPS_pressure = 0;
     cb4:	14 82       	std	Z+4, r1	; 0x04
     cb6:	15 82       	std	Z+5, r1	; 0x05
     cb8:	16 82       	std	Z+6, r1	; 0x06
     cba:	17 82       	std	Z+7, r1	; 0x07
        Calibration_d.MPU_gyro_x = 0;
     cbc:	10 86       	std	Z+8, r1	; 0x08
     cbe:	11 86       	std	Z+9, r1	; 0x09
     cc0:	12 86       	std	Z+10, r1	; 0x0a
     cc2:	13 86       	std	Z+11, r1	; 0x0b
        Calibration_d.MPU_gyro_y = 0;
     cc4:	14 86       	std	Z+12, r1	; 0x0c
     cc6:	15 86       	std	Z+13, r1	; 0x0d
     cc8:	16 86       	std	Z+14, r1	; 0x0e
     cca:	17 86       	std	Z+15, r1	; 0x0f
        Calibration_d.MPU_gyro_z = 0;
     ccc:	10 8a       	std	Z+16, r1	; 0x10
     cce:	11 8a       	std	Z+17, r1	; 0x11
     cd0:	12 8a       	std	Z+18, r1	; 0x12
     cd2:	13 8a       	std	Z+19, r1	; 0x13
        Calibration_d.LSM_gyro_x = 0;
     cd4:	14 8a       	std	Z+20, r1	; 0x14
     cd6:	15 8a       	std	Z+21, r1	; 0x15
     cd8:	16 8a       	std	Z+22, r1	; 0x16
     cda:	17 8a       	std	Z+23, r1	; 0x17
        Calibration_d.LSM_gyro_y = 0;
     cdc:	10 8e       	std	Z+24, r1	; 0x18
     cde:	11 8e       	std	Z+25, r1	; 0x19
     ce0:	12 8e       	std	Z+26, r1	; 0x1a
     ce2:	13 8e       	std	Z+27, r1	; 0x1b
        Calibration_d.LSM_gyro_z = 0;
     ce4:	14 8e       	std	Z+28, r1	; 0x1c
     ce6:	15 8e       	std	Z+29, r1	; 0x1d
     ce8:	16 8e       	std	Z+30, r1	; 0x1e
     cea:	17 8e       	std	Z+31, r1	; 0x1f
        LED_PORT.OUTSET = LED5;
     cec:	80 e4       	ldi	r24, 0x40	; 64
     cee:	80 93 05 06 	sts	0x0605, r24	; 0x800605 <__TEXT_REGION_LENGTH__+0x700605>
    }
    if(Calibration_d.counter < calibrationCNT) {
     cf2:	e0 90 47 23 	lds	r14, 0x2347	; 0x802347 <Calibration_d+0x20>
     cf6:	f0 90 48 23 	lds	r15, 0x2348	; 0x802348 <Calibration_d+0x21>
     cfa:	82 e3       	ldi	r24, 0x32	; 50
     cfc:	e8 16       	cp	r14, r24
     cfe:	f1 04       	cpc	r15, r1
     d00:	08 f0       	brcs	.+2      	; 0xd04 <SensorCal+0x74>
     d02:	8a c0       	rjmp	.+276    	; 0xe18 <SensorCal+0x188>
        Calibration_d.LPS_pressure += LPS25H_d.pressure;
     d04:	c7 e2       	ldi	r28, 0x27	; 39
     d06:	d3 e2       	ldi	r29, 0x23	; 35
     d08:	20 91 60 23 	lds	r18, 0x2360	; 0x802360 <LPS25H_d+0x4>
     d0c:	30 91 61 23 	lds	r19, 0x2361	; 0x802361 <LPS25H_d+0x5>
     d10:	40 91 62 23 	lds	r20, 0x2362	; 0x802362 <LPS25H_d+0x6>
     d14:	50 91 63 23 	lds	r21, 0x2363	; 0x802363 <LPS25H_d+0x7>
     d18:	6c 81       	ldd	r22, Y+4	; 0x04
     d1a:	7d 81       	ldd	r23, Y+5	; 0x05
     d1c:	8e 81       	ldd	r24, Y+6	; 0x06
     d1e:	9f 81       	ldd	r25, Y+7	; 0x07
     d20:	0e 94 51 19 	call	0x32a2	; 0x32a2 <__addsf3>
     d24:	6c 83       	std	Y+4, r22	; 0x04
     d26:	7d 83       	std	Y+5, r23	; 0x05
     d28:	8e 83       	std	Y+6, r24	; 0x06
     d2a:	9f 83       	std	Y+7, r25	; 0x07
        Calibration_d.MPU_gyro_x += MPU9150_d.raw_gyro_x;
     d2c:	e7 e7       	ldi	r30, 0x77	; 119
     d2e:	f9 e2       	ldi	r31, 0x29	; 41
     d30:	86 81       	ldd	r24, Z+6	; 0x06
     d32:	97 81       	ldd	r25, Z+7	; 0x07
     d34:	09 2e       	mov	r0, r25
     d36:	00 0c       	add	r0, r0
     d38:	aa 0b       	sbc	r26, r26
     d3a:	bb 0b       	sbc	r27, r27
     d3c:	48 85       	ldd	r20, Y+8	; 0x08
     d3e:	59 85       	ldd	r21, Y+9	; 0x09
     d40:	6a 85       	ldd	r22, Y+10	; 0x0a
     d42:	7b 85       	ldd	r23, Y+11	; 0x0b
     d44:	84 0f       	add	r24, r20
     d46:	95 1f       	adc	r25, r21
     d48:	a6 1f       	adc	r26, r22
     d4a:	b7 1f       	adc	r27, r23
     d4c:	88 87       	std	Y+8, r24	; 0x08
     d4e:	99 87       	std	Y+9, r25	; 0x09
     d50:	aa 87       	std	Y+10, r26	; 0x0a
     d52:	bb 87       	std	Y+11, r27	; 0x0b
        Calibration_d.MPU_gyro_y += MPU9150_d.raw_gyro_y;
     d54:	80 85       	ldd	r24, Z+8	; 0x08
     d56:	91 85       	ldd	r25, Z+9	; 0x09
     d58:	09 2e       	mov	r0, r25
     d5a:	00 0c       	add	r0, r0
     d5c:	aa 0b       	sbc	r26, r26
     d5e:	bb 0b       	sbc	r27, r27
     d60:	4c 85       	ldd	r20, Y+12	; 0x0c
     d62:	5d 85       	ldd	r21, Y+13	; 0x0d
     d64:	6e 85       	ldd	r22, Y+14	; 0x0e
     d66:	7f 85       	ldd	r23, Y+15	; 0x0f
     d68:	84 0f       	add	r24, r20
     d6a:	95 1f       	adc	r25, r21
     d6c:	a6 1f       	adc	r26, r22
     d6e:	b7 1f       	adc	r27, r23
     d70:	8c 87       	std	Y+12, r24	; 0x0c
     d72:	9d 87       	std	Y+13, r25	; 0x0d
     d74:	ae 87       	std	Y+14, r26	; 0x0e
     d76:	bf 87       	std	Y+15, r27	; 0x0f
        Calibration_d.MPU_gyro_z += MPU9150_d.raw_gyro_z;
     d78:	82 85       	ldd	r24, Z+10	; 0x0a
     d7a:	93 85       	ldd	r25, Z+11	; 0x0b
     d7c:	09 2e       	mov	r0, r25
     d7e:	00 0c       	add	r0, r0
     d80:	aa 0b       	sbc	r26, r26
     d82:	bb 0b       	sbc	r27, r27
     d84:	48 89       	ldd	r20, Y+16	; 0x10
     d86:	59 89       	ldd	r21, Y+17	; 0x11
     d88:	6a 89       	ldd	r22, Y+18	; 0x12
     d8a:	7b 89       	ldd	r23, Y+19	; 0x13
     d8c:	84 0f       	add	r24, r20
     d8e:	95 1f       	adc	r25, r21
     d90:	a6 1f       	adc	r26, r22
     d92:	b7 1f       	adc	r27, r23
     d94:	88 8b       	std	Y+16, r24	; 0x10
     d96:	99 8b       	std	Y+17, r25	; 0x11
     d98:	aa 8b       	std	Y+18, r26	; 0x12
     d9a:	bb 8b       	std	Y+19, r27	; 0x13
        Calibration_d.LSM_gyro_x += LSM9DS0_d.raw_gyro_x;
     d9c:	ed e1       	ldi	r30, 0x1D	; 29
     d9e:	f9 e2       	ldi	r31, 0x29	; 41
     da0:	86 81       	ldd	r24, Z+6	; 0x06
     da2:	97 81       	ldd	r25, Z+7	; 0x07
     da4:	09 2e       	mov	r0, r25
     da6:	00 0c       	add	r0, r0
     da8:	aa 0b       	sbc	r26, r26
     daa:	bb 0b       	sbc	r27, r27
     dac:	4c 89       	ldd	r20, Y+20	; 0x14
     dae:	5d 89       	ldd	r21, Y+21	; 0x15
     db0:	6e 89       	ldd	r22, Y+22	; 0x16
     db2:	7f 89       	ldd	r23, Y+23	; 0x17
     db4:	84 0f       	add	r24, r20
     db6:	95 1f       	adc	r25, r21
     db8:	a6 1f       	adc	r26, r22
     dba:	b7 1f       	adc	r27, r23
     dbc:	8c 8b       	std	Y+20, r24	; 0x14
     dbe:	9d 8b       	std	Y+21, r25	; 0x15
     dc0:	ae 8b       	std	Y+22, r26	; 0x16
     dc2:	bf 8b       	std	Y+23, r27	; 0x17
        Calibration_d.LSM_gyro_y += LSM9DS0_d.raw_gyro_y;
     dc4:	80 85       	ldd	r24, Z+8	; 0x08
     dc6:	91 85       	ldd	r25, Z+9	; 0x09
     dc8:	09 2e       	mov	r0, r25
     dca:	00 0c       	add	r0, r0
     dcc:	aa 0b       	sbc	r26, r26
     dce:	bb 0b       	sbc	r27, r27
     dd0:	48 8d       	ldd	r20, Y+24	; 0x18
     dd2:	59 8d       	ldd	r21, Y+25	; 0x19
     dd4:	6a 8d       	ldd	r22, Y+26	; 0x1a
     dd6:	7b 8d       	ldd	r23, Y+27	; 0x1b
     dd8:	84 0f       	add	r24, r20
     dda:	95 1f       	adc	r25, r21
     ddc:	a6 1f       	adc	r26, r22
     dde:	b7 1f       	adc	r27, r23
     de0:	88 8f       	std	Y+24, r24	; 0x18
     de2:	99 8f       	std	Y+25, r25	; 0x19
     de4:	aa 8f       	std	Y+26, r26	; 0x1a
     de6:	bb 8f       	std	Y+27, r27	; 0x1b
        Calibration_d.LSM_gyro_z += LSM9DS0_d.raw_gyro_z;
     de8:	82 85       	ldd	r24, Z+10	; 0x0a
     dea:	93 85       	ldd	r25, Z+11	; 0x0b
     dec:	09 2e       	mov	r0, r25
     dee:	00 0c       	add	r0, r0
     df0:	aa 0b       	sbc	r26, r26
     df2:	bb 0b       	sbc	r27, r27
     df4:	4c 8d       	ldd	r20, Y+28	; 0x1c
     df6:	5d 8d       	ldd	r21, Y+29	; 0x1d
     df8:	6e 8d       	ldd	r22, Y+30	; 0x1e
     dfa:	7f 8d       	ldd	r23, Y+31	; 0x1f
     dfc:	84 0f       	add	r24, r20
     dfe:	95 1f       	adc	r25, r21
     e00:	a6 1f       	adc	r26, r22
     e02:	b7 1f       	adc	r27, r23
     e04:	8c 8f       	std	Y+28, r24	; 0x1c
     e06:	9d 8f       	std	Y+29, r25	; 0x1d
     e08:	ae 8f       	std	Y+30, r26	; 0x1e
     e0a:	bf 8f       	std	Y+31, r27	; 0x1f
        Calibration_d.counter++;
     e0c:	8f ef       	ldi	r24, 0xFF	; 255
     e0e:	e8 1a       	sub	r14, r24
     e10:	f8 0a       	sbc	r15, r24
     e12:	e8 a2       	std	Y+32, r14	; 0x20
     e14:	f9 a2       	std	Y+33, r15	; 0x21
     e16:	6b c0       	rjmp	.+214    	; 0xeee <SensorCal+0x25e>
    } else {
        LPS25H_d.start_pressure = Calibration_d.LPS_pressure / calibrationCNT;
     e18:	c7 e2       	ldi	r28, 0x27	; 39
     e1a:	d3 e2       	ldi	r29, 0x23	; 35
     e1c:	20 e0       	ldi	r18, 0x00	; 0
     e1e:	30 e0       	ldi	r19, 0x00	; 0
     e20:	48 e4       	ldi	r20, 0x48	; 72
     e22:	52 e4       	ldi	r21, 0x42	; 66
     e24:	6c 81       	ldd	r22, Y+4	; 0x04
     e26:	7d 81       	ldd	r23, Y+5	; 0x05
     e28:	8e 81       	ldd	r24, Y+6	; 0x06
     e2a:	9f 81       	ldd	r25, Y+7	; 0x07
     e2c:	0e 94 b9 19 	call	0x3372	; 0x3372 <__divsf3>
     e30:	60 93 6a 23 	sts	0x236A, r22	; 0x80236a <LPS25H_d+0xe>
     e34:	70 93 6b 23 	sts	0x236B, r23	; 0x80236b <LPS25H_d+0xf>
     e38:	80 93 6c 23 	sts	0x236C, r24	; 0x80236c <LPS25H_d+0x10>
     e3c:	90 93 6d 23 	sts	0x236D, r25	; 0x80236d <LPS25H_d+0x11>
        MPU9150_d.offset_gyro_x = Calibration_d.MPU_gyro_x / calibrationCNT;
     e40:	68 85       	ldd	r22, Y+8	; 0x08
     e42:	79 85       	ldd	r23, Y+9	; 0x09
     e44:	8a 85       	ldd	r24, Y+10	; 0x0a
     e46:	9b 85       	ldd	r25, Y+11	; 0x0b
     e48:	0f 2e       	mov	r0, r31
     e4a:	f2 e3       	ldi	r31, 0x32	; 50
     e4c:	cf 2e       	mov	r12, r31
     e4e:	d1 2c       	mov	r13, r1
     e50:	e1 2c       	mov	r14, r1
     e52:	f1 2c       	mov	r15, r1
     e54:	f0 2d       	mov	r31, r0
     e56:	a7 01       	movw	r20, r14
     e58:	96 01       	movw	r18, r12
     e5a:	0e 94 56 1d 	call	0x3aac	; 0x3aac <__divmodsi4>
     e5e:	20 93 bf 29 	sts	0x29BF, r18	; 0x8029bf <MPU9150_d+0x48>
     e62:	30 93 c0 29 	sts	0x29C0, r19	; 0x8029c0 <MPU9150_d+0x49>
        MPU9150_d.offset_gyro_y = Calibration_d.MPU_gyro_y / calibrationCNT;
     e66:	6c 85       	ldd	r22, Y+12	; 0x0c
     e68:	7d 85       	ldd	r23, Y+13	; 0x0d
     e6a:	8e 85       	ldd	r24, Y+14	; 0x0e
     e6c:	9f 85       	ldd	r25, Y+15	; 0x0f
     e6e:	a7 01       	movw	r20, r14
     e70:	96 01       	movw	r18, r12
     e72:	0e 94 56 1d 	call	0x3aac	; 0x3aac <__divmodsi4>
     e76:	20 93 c1 29 	sts	0x29C1, r18	; 0x8029c1 <MPU9150_d+0x4a>
     e7a:	30 93 c2 29 	sts	0x29C2, r19	; 0x8029c2 <MPU9150_d+0x4b>
        MPU9150_d.offset_gyro_z = Calibration_d.MPU_gyro_z / calibrationCNT;
     e7e:	68 89       	ldd	r22, Y+16	; 0x10
     e80:	79 89       	ldd	r23, Y+17	; 0x11
     e82:	8a 89       	ldd	r24, Y+18	; 0x12
     e84:	9b 89       	ldd	r25, Y+19	; 0x13
     e86:	a7 01       	movw	r20, r14
     e88:	96 01       	movw	r18, r12
     e8a:	0e 94 56 1d 	call	0x3aac	; 0x3aac <__divmodsi4>
     e8e:	20 93 c3 29 	sts	0x29C3, r18	; 0x8029c3 <MPU9150_d+0x4c>
     e92:	30 93 c4 29 	sts	0x29C4, r19	; 0x8029c4 <MPU9150_d+0x4d>
        LSM9DS0_d.offset_gyro_x = Calibration_d.LSM_gyro_x / calibrationCNT;
     e96:	6c 89       	ldd	r22, Y+20	; 0x14
     e98:	7d 89       	ldd	r23, Y+21	; 0x15
     e9a:	8e 89       	ldd	r24, Y+22	; 0x16
     e9c:	9f 89       	ldd	r25, Y+23	; 0x17
     e9e:	a7 01       	movw	r20, r14
     ea0:	96 01       	movw	r18, r12
     ea2:	0e 94 56 1d 	call	0x3aac	; 0x3aac <__divmodsi4>
     ea6:	20 93 67 29 	sts	0x2967, r18	; 0x802967 <LSM9DS0_d+0x4a>
     eaa:	30 93 68 29 	sts	0x2968, r19	; 0x802968 <LSM9DS0_d+0x4b>
        LSM9DS0_d.offset_gyro_y = Calibration_d.LSM_gyro_y / calibrationCNT;
     eae:	68 8d       	ldd	r22, Y+24	; 0x18
     eb0:	79 8d       	ldd	r23, Y+25	; 0x19
     eb2:	8a 8d       	ldd	r24, Y+26	; 0x1a
     eb4:	9b 8d       	ldd	r25, Y+27	; 0x1b
     eb6:	a7 01       	movw	r20, r14
     eb8:	96 01       	movw	r18, r12
     eba:	0e 94 56 1d 	call	0x3aac	; 0x3aac <__divmodsi4>
     ebe:	20 93 69 29 	sts	0x2969, r18	; 0x802969 <LSM9DS0_d+0x4c>
     ec2:	30 93 6a 29 	sts	0x296A, r19	; 0x80296a <LSM9DS0_d+0x4d>
        LSM9DS0_d.offset_gyro_z = Calibration_d.LSM_gyro_z / calibrationCNT;
     ec6:	6c 8d       	ldd	r22, Y+28	; 0x1c
     ec8:	7d 8d       	ldd	r23, Y+29	; 0x1d
     eca:	8e 8d       	ldd	r24, Y+30	; 0x1e
     ecc:	9f 8d       	ldd	r25, Y+31	; 0x1f
     ece:	a7 01       	movw	r20, r14
     ed0:	96 01       	movw	r18, r12
     ed2:	0e 94 56 1d 	call	0x3aac	; 0x3aac <__divmodsi4>
     ed6:	20 93 6b 29 	sts	0x296B, r18	; 0x80296b <LSM9DS0_d+0x4e>
     eda:	30 93 6c 29 	sts	0x296C, r19	; 0x80296c <LSM9DS0_d+0x4f>
        Calibration_d.counter = 0;
     ede:	18 a2       	std	Y+32, r1	; 0x20
     ee0:	19 a2       	std	Y+33, r1	; 0x21
        Calibration_d.trigger = false;
     ee2:	1a a2       	std	Y+34, r1	; 0x22
        stan_d.callibration = false;
     ee4:	10 92 17 29 	sts	0x2917, r1	; 0x802917 <stan_d+0x3>
        LED_PORT.OUTCLR = LED5;
     ee8:	80 e4       	ldi	r24, 0x40	; 64
     eea:	80 93 06 06 	sts	0x0606, r24	; 0x800606 <__TEXT_REGION_LENGTH__+0x700606>
    }
}
     eee:	df 91       	pop	r29
     ef0:	cf 91       	pop	r28
     ef2:	ff 90       	pop	r15
     ef4:	ef 90       	pop	r14
     ef6:	df 90       	pop	r13
     ef8:	cf 90       	pop	r12
     efa:	08 95       	ret

00000efc <structInit>:

void structInit(void) {
    frame_d.iUART = 0;
     efc:	10 92 e7 28 	sts	0x28E7, r1	; 0x8028e7 <frame_d+0x258>
     f00:	10 92 e8 28 	sts	0x28E8, r1	; 0x8028e8 <frame_d+0x259>
    stan_d.new_data = false;
     f04:	a4 e1       	ldi	r26, 0x14	; 20
     f06:	b9 e2       	ldi	r27, 0x29	; 41
     f08:	1c 92       	st	X, r1
    stan_d.new_frame = false;
     f0a:	11 96       	adiw	r26, 0x01	; 1
     f0c:	1c 92       	st	X, r1
     f0e:	11 97       	sbiw	r26, 0x01	; 1
	
	//----------------------Initialize allData_d--------------------
	allData_d.Analog = &ADC_d;
     f10:	ed ed       	ldi	r30, 0xDD	; 221
     f12:	f9 e2       	ldi	r31, 0x29	; 41
     f14:	81 e5       	ldi	r24, 0x51	; 81
     f16:	9a e2       	ldi	r25, 0x2A	; 42
     f18:	80 87       	std	Z+8, r24	; 0x08
     f1a:	91 87       	std	Z+9, r25	; 0x09
	allData_d.MPU9150 = &MPU9150_d;
     f1c:	87 e7       	ldi	r24, 0x77	; 119
     f1e:	99 e2       	ldi	r25, 0x29	; 41
     f20:	80 83       	st	Z, r24
     f22:	91 83       	std	Z+1, r25	; 0x01
	allData_d.LSM9DS0 = &LSM9DS0_d;
     f24:	8d e1       	ldi	r24, 0x1D	; 29
     f26:	99 e2       	ldi	r25, 0x29	; 41
     f28:	82 83       	std	Z+2, r24	; 0x02
     f2a:	93 83       	std	Z+3, r25	; 0x03
	allData_d.LPS25H = &LPS25H_d;
     f2c:	8c e5       	ldi	r24, 0x5C	; 92
     f2e:	93 e2       	ldi	r25, 0x23	; 35
     f30:	84 83       	std	Z+4, r24	; 0x04
     f32:	95 83       	std	Z+5, r25	; 0x05
	allData_d.GPS = &GPS_d;
     f34:	8a e7       	ldi	r24, 0x7A	; 122
     f36:	93 e2       	ldi	r25, 0x23	; 35
     f38:	86 83       	std	Z+6, r24	; 0x06
     f3a:	97 83       	std	Z+7, r25	; 0x07
	allData_d.stan = &stan_d;
     f3c:	a2 87       	std	Z+10, r26	; 0x0a
     f3e:	b3 87       	std	Z+11, r27	; 0x0b
	allData_d.LIS331HH = &LIS331HH_d;
     f40:	8a e4       	ldi	r24, 0x4A	; 74
     f42:	93 e2       	ldi	r25, 0x23	; 35
     f44:	84 87       	std	Z+12, r24	; 0x0c
     f46:	95 87       	std	Z+13, r25	; 0x0d
	allData_d.SensorsData = &SensorData_d;
     f48:	87 ef       	ldi	r24, 0xF7	; 247
     f4a:	99 e2       	ldi	r25, 0x29	; 41
     f4c:	86 87       	std	Z+14, r24	; 0x0e
     f4e:	97 87       	std	Z+15, r25	; 0x0f
	allData_d.frame = &frame_d;
     f50:	8f e8       	ldi	r24, 0x8F	; 143
     f52:	96 e2       	ldi	r25, 0x26	; 38
     f54:	80 8b       	std	Z+16, r24	; 0x10
     f56:	91 8b       	std	Z+17, r25	; 0x11
	allData_d.frame_b = &frame_b;
     f58:	8a e0       	ldi	r24, 0x0A	; 10
     f5a:	94 e2       	ldi	r25, 0x24	; 36
     f5c:	82 8b       	std	Z+18, r24	; 0x12
     f5e:	93 8b       	std	Z+19, r25	; 0x13
	allData_d.boardOrient = &boardOrient_d;
     f60:	8b ed       	ldi	r24, 0xDB	; 219
     f62:	99 e2       	ldi	r25, 0x29	; 41
     f64:	84 8b       	std	Z+20, r24	; 0x14
     f66:	95 8b       	std	Z+21, r25	; 0x15
	allData_d.RTC = &RTC_d;
     f68:	8f ec       	ldi	r24, 0xCF	; 207
     f6a:	99 e2       	ldi	r25, 0x29	; 41
     f6c:	86 8b       	std	Z+22, r24	; 0x16
     f6e:	97 8b       	std	Z+23, r25	; 0x17
	allData_d.FLASH_pageStruct = &FLASH_pageStruct_d;
     f70:	80 e2       	ldi	r24, 0x20	; 32
     f72:	91 e2       	ldi	r25, 0x21	; 33
     f74:	80 8f       	std	Z+24, r24	; 0x18
     f76:	91 8f       	std	Z+25, r25	; 0x19
     f78:	08 95       	ret

00000f7a <BT_Start>:
}

void BT_Start(frame_t * frame) {
     f7a:	fc 01       	movw	r30, r24
    int i = 0;
    frame->frameASCII[i++] = '\r';	//\r\n+INQ=1\r\n
     f7c:	9d e0       	ldi	r25, 0x0D	; 13
     f7e:	90 83       	st	Z, r25
    frame->frameASCII[i++] = '\n';
     f80:	8a e0       	ldi	r24, 0x0A	; 10
     f82:	81 83       	std	Z+1, r24	; 0x01
    frame->frameASCII[i++] = '+';
     f84:	2b e2       	ldi	r18, 0x2B	; 43
     f86:	22 83       	std	Z+2, r18	; 0x02
    frame->frameASCII[i++] = 'I';
     f88:	29 e4       	ldi	r18, 0x49	; 73
     f8a:	23 83       	std	Z+3, r18	; 0x03
    frame->frameASCII[i++] = 'N';
     f8c:	2e e4       	ldi	r18, 0x4E	; 78
     f8e:	24 83       	std	Z+4, r18	; 0x04
    frame->frameASCII[i++] = 'Q';
     f90:	21 e5       	ldi	r18, 0x51	; 81
     f92:	25 83       	std	Z+5, r18	; 0x05
    frame->frameASCII[i++] = '=';
     f94:	2d e3       	ldi	r18, 0x3D	; 61
     f96:	26 83       	std	Z+6, r18	; 0x06
    frame->frameASCII[i++] = '1';
     f98:	21 e3       	ldi	r18, 0x31	; 49
     f9a:	27 83       	std	Z+7, r18	; 0x07
    frame->frameASCII[i++] = '\r';
     f9c:	90 87       	std	Z+8, r25	; 0x08
    frame->frameASCII[i++] = '\n';
     f9e:	81 87       	std	Z+9, r24	; 0x09
    frame->iUART = 0;
     fa0:	e8 5a       	subi	r30, 0xA8	; 168
     fa2:	fd 4f       	sbci	r31, 0xFD	; 253
     fa4:	10 82       	st	Z, r1
     fa6:	11 82       	std	Z+1, r1	; 0x01
     fa8:	08 95       	ret

00000faa <SensorUpdate>:
}

void SensorUpdate(allData_t * allData) {
     faa:	cf 92       	push	r12
     fac:	df 92       	push	r13
     fae:	ef 92       	push	r14
     fb0:	ff 92       	push	r15
     fb2:	cf 93       	push	r28
     fb4:	df 93       	push	r29
     fb6:	ec 01       	movw	r28, r24
    //-----------------MPU9150--------------
    MPU9150_RawUpdate(allData->MPU9150);
     fb8:	88 81       	ld	r24, Y
     fba:	99 81       	ldd	r25, Y+1	; 0x01
     fbc:	0e 94 56 16 	call	0x2cac	; 0x2cac <MPU9150_RawUpdate>
    MPU9150_Conv(allData->MPU9150);
     fc0:	88 81       	ld	r24, Y
     fc2:	99 81       	ldd	r25, Y+1	; 0x01
     fc4:	0e 94 a8 16 	call	0x2d50	; 0x2d50 <MPU9150_Conv>
    //-----------------LIS331HH-------------
    LIS331HH_Update(allData->LIS331HH);
     fc8:	8c 85       	ldd	r24, Y+12	; 0x0c
     fca:	9d 85       	ldd	r25, Y+13	; 0x0d
     fcc:	0e 94 04 12 	call	0x2408	; 0x2408 <LIS331HH_Update>
    LIS331HH_Calc(allData->LIS331HH);
     fd0:	8c 85       	ldd	r24, Y+12	; 0x0c
     fd2:	9d 85       	ldd	r25, Y+13	; 0x0d
     fd4:	0e 94 48 12 	call	0x2490	; 0x2490 <LIS331HH_Calc>
    //-----------------LPS25H---------------
    LPS25H_update(allData->LPS25H);
     fd8:	8c 81       	ldd	r24, Y+4	; 0x04
     fda:	9d 81       	ldd	r25, Y+5	; 0x05
     fdc:	0e 94 c7 12 	call	0x258e	; 0x258e <LPS25H_update>
    LPS25H_calc(allData->LPS25H);
     fe0:	8c 81       	ldd	r24, Y+4	; 0x04
     fe2:	9d 81       	ldd	r25, Y+5	; 0x05
     fe4:	0e 94 f8 12 	call	0x25f0	; 0x25f0 <LPS25H_calc>
    altitudeCalcLPS(allData->LPS25H);
     fe8:	8c 81       	ldd	r24, Y+4	; 0x04
     fea:	9d 81       	ldd	r25, Y+5	; 0x05
     fec:	0e 94 22 13 	call	0x2644	; 0x2644 <altitudeCalcLPS>
    //-----------------LSM9DS0--------------
    LSM9DS0_Update(allData->LSM9DS0);
     ff0:	8a 81       	ldd	r24, Y+2	; 0x02
     ff2:	9b 81       	ldd	r25, Y+3	; 0x03
     ff4:	0e 94 5f 14 	call	0x28be	; 0x28be <LSM9DS0_Update>
    //-----------------Read ADC-------------
    AnalogUpdate(allData->Analog);
     ff8:	88 85       	ldd	r24, Y+8	; 0x08
     ffa:	99 85       	ldd	r25, Y+9	; 0x09
     ffc:	89 d9       	rcall	.-3310   	; 0x310 <AnalogUpdate>
	
	
	//do router lub funkcji i wywali jak najwicej!
    //-----------------Additional-----------
    if(LPS25H_d.altitude > LPS25H_d.max_altitude) LPS25H_d.max_altitude = LPS25H_d.altitude;
     ffe:	ec e5       	ldi	r30, 0x5C	; 92
    1000:	f3 e2       	ldi	r31, 0x23	; 35
    1002:	c2 88       	ldd	r12, Z+18	; 0x12
    1004:	d3 88       	ldd	r13, Z+19	; 0x13
    1006:	e4 88       	ldd	r14, Z+20	; 0x14
    1008:	f5 88       	ldd	r15, Z+21	; 0x15
    100a:	26 89       	ldd	r18, Z+22	; 0x16
    100c:	37 89       	ldd	r19, Z+23	; 0x17
    100e:	40 8d       	ldd	r20, Z+24	; 0x18
    1010:	51 8d       	ldd	r21, Z+25	; 0x19
    1012:	c7 01       	movw	r24, r14
    1014:	b6 01       	movw	r22, r12
    1016:	0e 94 44 1b 	call	0x3688	; 0x3688 <__gesf2>
    101a:	18 16       	cp	r1, r24
    101c:	44 f4       	brge	.+16     	; 0x102e <SensorUpdate+0x84>
    101e:	c0 92 72 23 	sts	0x2372, r12	; 0x802372 <LPS25H_d+0x16>
    1022:	d0 92 73 23 	sts	0x2373, r13	; 0x802373 <LPS25H_d+0x17>
    1026:	e0 92 74 23 	sts	0x2374, r14	; 0x802374 <LPS25H_d+0x18>
    102a:	f0 92 75 23 	sts	0x2375, r15	; 0x802375 <LPS25H_d+0x19>
    
    
	
}
    102e:	df 91       	pop	r29
    1030:	cf 91       	pop	r28
    1032:	ff 90       	pop	r15
    1034:	ef 90       	pop	r14
    1036:	df 90       	pop	r13
    1038:	cf 90       	pop	r12
    103a:	08 95       	ret

0000103c <StateUpdate>:

void StateUpdate(allData_t * allData) {
    103c:	8f 92       	push	r8
    103e:	9f 92       	push	r9
    1040:	af 92       	push	r10
    1042:	bf 92       	push	r11
    1044:	cf 92       	push	r12
    1046:	df 92       	push	r13
    1048:	ef 92       	push	r14
    104a:	ff 92       	push	r15
    104c:	cf 93       	push	r28
    104e:	df 93       	push	r29
    1050:	9c 01       	movw	r18, r24
    if(!(stan_d.armed_trigger)) {
    1052:	90 91 1a 29 	lds	r25, 0x291A	; 0x80291a <stan_d+0x6>
    1056:	91 11       	cpse	r25, r1
    1058:	08 c0       	rjmp	.+16     	; 0x106a <StateUpdate+0x2e>
        stan_d.flightState = 0;
    105a:	10 92 1b 29 	sts	0x291B, r1	; 0x80291b <stan_d+0x7>
        buzzer_d.mode = 0;
    105e:	10 92 24 23 	sts	0x2324, r1	; 0x802324 <buzzer_d+0x1>
		//stan_d.flash_trigger = false;
        PORTD_OUTCLR = PIN1_bm;
    1062:	82 e0       	ldi	r24, 0x02	; 2
    1064:	80 93 66 06 	sts	0x0666, r24	; 0x800666 <__TEXT_REGION_LENGTH__+0x700666>
    1068:	a1 c1       	rjmp	.+834    	; 0x13ac <StateUpdate+0x370>
    } else {
        switch(stan_d.flightState) {
    106a:	40 91 1b 29 	lds	r20, 0x291B	; 0x80291b <stan_d+0x7>
    106e:	50 e0       	ldi	r21, 0x00	; 0
    1070:	4a 30       	cpi	r20, 0x0A	; 10
    1072:	51 05       	cpc	r21, r1
    1074:	08 f0       	brcs	.+2      	; 0x1078 <StateUpdate+0x3c>
    1076:	9a c1       	rjmp	.+820    	; 0x13ac <StateUpdate+0x370>
    1078:	d9 01       	movw	r26, r18
    107a:	fa 01       	movw	r30, r20
    107c:	88 27       	eor	r24, r24
    107e:	e9 5f       	subi	r30, 0xF9	; 249
    1080:	fe 4f       	sbci	r31, 0xFE	; 254
    1082:	8f 4f       	sbci	r24, 0xFF	; 255
    1084:	0c 94 72 1d 	jmp	0x3ae4	; 0x3ae4 <__tablejump2__>
        //--------case 0 preflight-------------------------------------------
        case 0:
            if((SensorData_d.accel_x > 3) && (LPS25H_d.velocity > 10)){		//wykrycie startu (Arecorder Acc+Alti) (Arecorder zapisuje kilkanacie prbek wstecz)
    1088:	c0 90 f7 29 	lds	r12, 0x29F7	; 0x8029f7 <SensorData_d>
    108c:	d0 90 f8 29 	lds	r13, 0x29F8	; 0x8029f8 <SensorData_d+0x1>
    1090:	e0 90 f9 29 	lds	r14, 0x29F9	; 0x8029f9 <SensorData_d+0x2>
    1094:	f0 90 fa 29 	lds	r15, 0x29FA	; 0x8029fa <SensorData_d+0x3>
    1098:	20 e0       	ldi	r18, 0x00	; 0
    109a:	30 e0       	ldi	r19, 0x00	; 0
    109c:	40 e4       	ldi	r20, 0x40	; 64
    109e:	50 e4       	ldi	r21, 0x40	; 64
    10a0:	c7 01       	movw	r24, r14
    10a2:	b6 01       	movw	r22, r12
    10a4:	0e 94 44 1b 	call	0x3688	; 0x3688 <__gesf2>
    10a8:	18 16       	cp	r1, r24
    10aa:	b4 f4       	brge	.+44     	; 0x10d8 <StateUpdate+0x9c>
    10ac:	20 e0       	ldi	r18, 0x00	; 0
    10ae:	30 e0       	ldi	r19, 0x00	; 0
    10b0:	40 e2       	ldi	r20, 0x20	; 32
    10b2:	51 e4       	ldi	r21, 0x41	; 65
    10b4:	60 91 76 23 	lds	r22, 0x2376	; 0x802376 <LPS25H_d+0x1a>
    10b8:	70 91 77 23 	lds	r23, 0x2377	; 0x802377 <LPS25H_d+0x1b>
    10bc:	80 91 78 23 	lds	r24, 0x2378	; 0x802378 <LPS25H_d+0x1c>
    10c0:	90 91 79 23 	lds	r25, 0x2379	; 0x802379 <LPS25H_d+0x1d>
    10c4:	0e 94 44 1b 	call	0x3688	; 0x3688 <__gesf2>
    10c8:	18 16       	cp	r1, r24
    10ca:	34 f4       	brge	.+12     	; 0x10d8 <StateUpdate+0x9c>
				stan_d.flash_trigger = true;
    10cc:	e4 e1       	ldi	r30, 0x14	; 20
    10ce:	f9 e2       	ldi	r31, 0x29	; 41
    10d0:	81 e0       	ldi	r24, 0x01	; 1
    10d2:	85 83       	std	Z+5, r24	; 0x05
				if(dual_stage) stan_d.flightState = 1;	
				else stan_d.flightState = 4;
    10d4:	84 e0       	ldi	r24, 0x04	; 4
    10d6:	87 83       	std	Z+7, r24	; 0x07
			}
			if(SensorData_d.accel_x < 2) LPS25H_d.start_pressure = 0.9*LPS25H_d.start_pressure + 0.1*LPS25H_d.pressure;		//uaktualniaj cinienie na starcie
    10d8:	20 e0       	ldi	r18, 0x00	; 0
    10da:	30 e0       	ldi	r19, 0x00	; 0
    10dc:	40 e0       	ldi	r20, 0x00	; 0
    10de:	50 e4       	ldi	r21, 0x40	; 64
    10e0:	c7 01       	movw	r24, r14
    10e2:	b6 01       	movw	r22, r12
    10e4:	0e 94 b5 19 	call	0x336a	; 0x336a <__cmpsf2>
    10e8:	88 23       	and	r24, r24
    10ea:	14 f5       	brge	.+68     	; 0x1130 <StateUpdate+0xf4>
    10ec:	cc e5       	ldi	r28, 0x5C	; 92
    10ee:	d3 e2       	ldi	r29, 0x23	; 35
    10f0:	26 e6       	ldi	r18, 0x66	; 102
    10f2:	36 e6       	ldi	r19, 0x66	; 102
    10f4:	46 e6       	ldi	r20, 0x66	; 102
    10f6:	5f e3       	ldi	r21, 0x3F	; 63
    10f8:	6e 85       	ldd	r22, Y+14	; 0x0e
    10fa:	7f 85       	ldd	r23, Y+15	; 0x0f
    10fc:	88 89       	ldd	r24, Y+16	; 0x10
    10fe:	99 89       	ldd	r25, Y+17	; 0x11
    1100:	0e 94 48 1b 	call	0x3690	; 0x3690 <__mulsf3>
    1104:	4b 01       	movw	r8, r22
    1106:	5c 01       	movw	r10, r24
    1108:	2d ec       	ldi	r18, 0xCD	; 205
    110a:	3c ec       	ldi	r19, 0xCC	; 204
    110c:	4c ec       	ldi	r20, 0xCC	; 204
    110e:	5d e3       	ldi	r21, 0x3D	; 61
    1110:	6c 81       	ldd	r22, Y+4	; 0x04
    1112:	7d 81       	ldd	r23, Y+5	; 0x05
    1114:	8e 81       	ldd	r24, Y+6	; 0x06
    1116:	9f 81       	ldd	r25, Y+7	; 0x07
    1118:	0e 94 48 1b 	call	0x3690	; 0x3690 <__mulsf3>
    111c:	9b 01       	movw	r18, r22
    111e:	ac 01       	movw	r20, r24
    1120:	c5 01       	movw	r24, r10
    1122:	b4 01       	movw	r22, r8
    1124:	0e 94 51 19 	call	0x32a2	; 0x32a2 <__addsf3>
    1128:	6e 87       	std	Y+14, r22	; 0x0e
    112a:	7f 87       	std	Y+15, r23	; 0x0f
    112c:	88 8b       	std	Y+16, r24	; 0x10
    112e:	99 8b       	std	Y+17, r25	; 0x11
			if(SensorData_d.accel_x > 2) Buzzer1Beep();
    1130:	20 e0       	ldi	r18, 0x00	; 0
    1132:	30 e0       	ldi	r19, 0x00	; 0
    1134:	40 e0       	ldi	r20, 0x00	; 0
    1136:	50 e4       	ldi	r21, 0x40	; 64
    1138:	c7 01       	movw	r24, r14
    113a:	b6 01       	movw	r22, r12
    113c:	0e 94 44 1b 	call	0x3688	; 0x3688 <__gesf2>
    1140:	18 16       	cp	r1, r24
    1142:	0c f4       	brge	.+2      	; 0x1146 <StateUpdate+0x10a>
    1144:	97 dd       	rcall	.-1234   	; 0xc74 <Buzzer1Beep>
			LPS25H_d.max_altitude = LPS25H_d.altitude;	//uaktualniaj max wysoko na starcie
    1146:	ec e5       	ldi	r30, 0x5C	; 92
    1148:	f3 e2       	ldi	r31, 0x23	; 35
    114a:	82 89       	ldd	r24, Z+18	; 0x12
    114c:	93 89       	ldd	r25, Z+19	; 0x13
    114e:	a4 89       	ldd	r26, Z+20	; 0x14
    1150:	b5 89       	ldd	r27, Z+21	; 0x15
    1152:	86 8b       	std	Z+22, r24	; 0x16
    1154:	97 8b       	std	Z+23, r25	; 0x17
    1156:	a0 8f       	std	Z+24, r26	; 0x18
    1158:	b1 8f       	std	Z+25, r27	; 0x19
            break;
    115a:	28 c1       	rjmp	.+592    	; 0x13ac <StateUpdate+0x370>
			
		//-------case 1 wait for MECO-----------------------------------------
		case 1:
			if((SensorData_d.accel_x < 0) && (SensorData_d.altitude > 50) && (SensorData_d.ascentVelo > 50)){	//Arecorder filtruje przyspieszenie
    115c:	20 e0       	ldi	r18, 0x00	; 0
    115e:	30 e0       	ldi	r19, 0x00	; 0
    1160:	a9 01       	movw	r20, r18
    1162:	60 91 f7 29 	lds	r22, 0x29F7	; 0x8029f7 <SensorData_d>
    1166:	70 91 f8 29 	lds	r23, 0x29F8	; 0x8029f8 <SensorData_d+0x1>
    116a:	80 91 f9 29 	lds	r24, 0x29F9	; 0x8029f9 <SensorData_d+0x2>
    116e:	90 91 fa 29 	lds	r25, 0x29FA	; 0x8029fa <SensorData_d+0x3>
    1172:	0e 94 b5 19 	call	0x336a	; 0x336a <__cmpsf2>
    1176:	88 23       	and	r24, r24
    1178:	0c f0       	brlt	.+2      	; 0x117c <StateUpdate+0x140>
    117a:	18 c1       	rjmp	.+560    	; 0x13ac <StateUpdate+0x370>
    117c:	20 e0       	ldi	r18, 0x00	; 0
    117e:	30 e0       	ldi	r19, 0x00	; 0
    1180:	48 e4       	ldi	r20, 0x48	; 72
    1182:	52 e4       	ldi	r21, 0x42	; 66
    1184:	60 91 0b 2a 	lds	r22, 0x2A0B	; 0x802a0b <SensorData_d+0x14>
    1188:	70 91 0c 2a 	lds	r23, 0x2A0C	; 0x802a0c <SensorData_d+0x15>
    118c:	80 91 0d 2a 	lds	r24, 0x2A0D	; 0x802a0d <SensorData_d+0x16>
    1190:	90 91 0e 2a 	lds	r25, 0x2A0E	; 0x802a0e <SensorData_d+0x17>
    1194:	0e 94 44 1b 	call	0x3688	; 0x3688 <__gesf2>
    1198:	18 16       	cp	r1, r24
    119a:	0c f0       	brlt	.+2      	; 0x119e <StateUpdate+0x162>
    119c:	07 c1       	rjmp	.+526    	; 0x13ac <StateUpdate+0x370>
    119e:	20 e0       	ldi	r18, 0x00	; 0
    11a0:	30 e0       	ldi	r19, 0x00	; 0
    11a2:	48 e4       	ldi	r20, 0x48	; 72
    11a4:	52 e4       	ldi	r21, 0x42	; 66
    11a6:	60 91 07 2a 	lds	r22, 0x2A07	; 0x802a07 <SensorData_d+0x10>
    11aa:	70 91 08 2a 	lds	r23, 0x2A08	; 0x802a08 <SensorData_d+0x11>
    11ae:	80 91 09 2a 	lds	r24, 0x2A09	; 0x802a09 <SensorData_d+0x12>
    11b2:	90 91 0a 2a 	lds	r25, 0x2A0A	; 0x802a0a <SensorData_d+0x13>
    11b6:	0e 94 44 1b 	call	0x3688	; 0x3688 <__gesf2>
    11ba:	18 16       	cp	r1, r24
    11bc:	0c f0       	brlt	.+2      	; 0x11c0 <StateUpdate+0x184>
    11be:	f6 c0       	rjmp	.+492    	; 0x13ac <StateUpdate+0x370>
				timer_buffer = RTC_d.time;														//buforowanie czasu
    11c0:	60 91 cf 29 	lds	r22, 0x29CF	; 0x8029cf <RTC_d>
    11c4:	70 91 d0 29 	lds	r23, 0x29D0	; 0x8029d0 <RTC_d+0x1>
    11c8:	80 91 d1 29 	lds	r24, 0x29D1	; 0x8029d1 <RTC_d+0x2>
    11cc:	90 91 d2 29 	lds	r25, 0x29D2	; 0x8029d2 <RTC_d+0x3>
    11d0:	0e 94 52 1a 	call	0x34a4	; 0x34a4 <__floatunsisf>
    11d4:	60 93 18 21 	sts	0x2118, r22	; 0x802118 <__data_end>
    11d8:	70 93 19 21 	sts	0x2119, r23	; 0x802119 <__data_end+0x1>
    11dc:	80 93 1a 21 	sts	0x211A, r24	; 0x80211a <__data_end+0x2>
    11e0:	90 93 1b 21 	sts	0x211B, r25	; 0x80211b <__data_end+0x3>
				stan_d.flightState = 2;
    11e4:	82 e0       	ldi	r24, 0x02	; 2
    11e6:	80 93 1b 29 	sts	0x291B, r24	; 0x80291b <stan_d+0x7>
    11ea:	e0 c0       	rjmp	.+448    	; 0x13ac <StateUpdate+0x370>
			}
			break;
			
		//-------case 2 separation delay---------------------------------------
		case 2:
			if(RTC_d.time > (timer_buffer + 10)){
    11ec:	60 91 cf 29 	lds	r22, 0x29CF	; 0x8029cf <RTC_d>
    11f0:	70 91 d0 29 	lds	r23, 0x29D0	; 0x8029d0 <RTC_d+0x1>
    11f4:	80 91 d1 29 	lds	r24, 0x29D1	; 0x8029d1 <RTC_d+0x2>
    11f8:	90 91 d2 29 	lds	r25, 0x29D2	; 0x8029d2 <RTC_d+0x3>
    11fc:	0e 94 52 1a 	call	0x34a4	; 0x34a4 <__floatunsisf>
    1200:	6b 01       	movw	r12, r22
    1202:	7c 01       	movw	r14, r24
    1204:	20 e0       	ldi	r18, 0x00	; 0
    1206:	30 e0       	ldi	r19, 0x00	; 0
    1208:	40 e2       	ldi	r20, 0x20	; 32
    120a:	51 e4       	ldi	r21, 0x41	; 65
    120c:	60 91 18 21 	lds	r22, 0x2118	; 0x802118 <__data_end>
    1210:	70 91 19 21 	lds	r23, 0x2119	; 0x802119 <__data_end+0x1>
    1214:	80 91 1a 21 	lds	r24, 0x211A	; 0x80211a <__data_end+0x2>
    1218:	90 91 1b 21 	lds	r25, 0x211B	; 0x80211b <__data_end+0x3>
    121c:	0e 94 51 19 	call	0x32a2	; 0x32a2 <__addsf3>
    1220:	9b 01       	movw	r18, r22
    1222:	ac 01       	movw	r20, r24
    1224:	c7 01       	movw	r24, r14
    1226:	b6 01       	movw	r22, r12
    1228:	0e 94 44 1b 	call	0x3688	; 0x3688 <__gesf2>
    122c:	18 16       	cp	r1, r24
    122e:	0c f0       	brlt	.+2      	; 0x1232 <StateUpdate+0x1f6>
    1230:	bd c0       	rjmp	.+378    	; 0x13ac <StateUpdate+0x370>
				//StagesSeparation();
				timer_buffer = RTC_d.time;
    1232:	c0 92 18 21 	sts	0x2118, r12	; 0x802118 <__data_end>
    1236:	d0 92 19 21 	sts	0x2119, r13	; 0x802119 <__data_end+0x1>
    123a:	e0 92 1a 21 	sts	0x211A, r14	; 0x80211a <__data_end+0x2>
    123e:	f0 92 1b 21 	sts	0x211B, r15	; 0x80211b <__data_end+0x3>
				stan_d.flightState = 3;
    1242:	83 e0       	ldi	r24, 0x03	; 3
    1244:	80 93 1b 29 	sts	0x291B, r24	; 0x80291b <stan_d+0x7>
    1248:	b1 c0       	rjmp	.+354    	; 0x13ac <StateUpdate+0x370>
			}
			break;
		
		//-------case 3 SEI delay----------------------------------------------
		case 3:
			if(RTC_d.time > (timer_buffer + 20)){
    124a:	60 91 cf 29 	lds	r22, 0x29CF	; 0x8029cf <RTC_d>
    124e:	70 91 d0 29 	lds	r23, 0x29D0	; 0x8029d0 <RTC_d+0x1>
    1252:	80 91 d1 29 	lds	r24, 0x29D1	; 0x8029d1 <RTC_d+0x2>
    1256:	90 91 d2 29 	lds	r25, 0x29D2	; 0x8029d2 <RTC_d+0x3>
    125a:	0e 94 52 1a 	call	0x34a4	; 0x34a4 <__floatunsisf>
    125e:	6b 01       	movw	r12, r22
    1260:	7c 01       	movw	r14, r24
    1262:	20 e0       	ldi	r18, 0x00	; 0
    1264:	30 e0       	ldi	r19, 0x00	; 0
    1266:	40 ea       	ldi	r20, 0xA0	; 160
    1268:	51 e4       	ldi	r21, 0x41	; 65
    126a:	60 91 18 21 	lds	r22, 0x2118	; 0x802118 <__data_end>
    126e:	70 91 19 21 	lds	r23, 0x2119	; 0x802119 <__data_end+0x1>
    1272:	80 91 1a 21 	lds	r24, 0x211A	; 0x80211a <__data_end+0x2>
    1276:	90 91 1b 21 	lds	r25, 0x211B	; 0x80211b <__data_end+0x3>
    127a:	0e 94 51 19 	call	0x32a2	; 0x32a2 <__addsf3>
    127e:	9b 01       	movw	r18, r22
    1280:	ac 01       	movw	r20, r24
    1282:	c7 01       	movw	r24, r14
    1284:	b6 01       	movw	r22, r12
    1286:	0e 94 44 1b 	call	0x3688	; 0x3688 <__gesf2>
    128a:	18 16       	cp	r1, r24
    128c:	0c f0       	brlt	.+2      	; 0x1290 <StateUpdate+0x254>
    128e:	8e c0       	rjmp	.+284    	; 0x13ac <StateUpdate+0x370>
				//SecondEngineIgn();
				stan_d.flightState = 4;
    1290:	84 e0       	ldi	r24, 0x04	; 4
    1292:	80 93 1b 29 	sts	0x291B, r24	; 0x80291b <stan_d+0x7>
    1296:	8a c0       	rjmp	.+276    	; 0x13ac <StateUpdate+0x370>
			}
			break;
			
        //--------case 4 flight wait for apogee--------------------------------
        case 4:
            if(((LPS25H_d.max_altitude - LPS25H_d.altitude) > 10.0) && (LPS25H_d.velocity < 0)) stan_d.flightState = 5;	//wykrycie puapu
    1298:	ec e5       	ldi	r30, 0x5C	; 92
    129a:	f3 e2       	ldi	r31, 0x23	; 35
    129c:	22 89       	ldd	r18, Z+18	; 0x12
    129e:	33 89       	ldd	r19, Z+19	; 0x13
    12a0:	44 89       	ldd	r20, Z+20	; 0x14
    12a2:	55 89       	ldd	r21, Z+21	; 0x15
    12a4:	66 89       	ldd	r22, Z+22	; 0x16
    12a6:	77 89       	ldd	r23, Z+23	; 0x17
    12a8:	80 8d       	ldd	r24, Z+24	; 0x18
    12aa:	91 8d       	ldd	r25, Z+25	; 0x19
    12ac:	0e 94 50 19 	call	0x32a0	; 0x32a0 <__subsf3>
    12b0:	20 e0       	ldi	r18, 0x00	; 0
    12b2:	30 e0       	ldi	r19, 0x00	; 0
    12b4:	40 e2       	ldi	r20, 0x20	; 32
    12b6:	51 e4       	ldi	r21, 0x41	; 65
    12b8:	0e 94 44 1b 	call	0x3688	; 0x3688 <__gesf2>
    12bc:	18 16       	cp	r1, r24
    12be:	0c f0       	brlt	.+2      	; 0x12c2 <StateUpdate+0x286>
    12c0:	75 c0       	rjmp	.+234    	; 0x13ac <StateUpdate+0x370>
    12c2:	20 e0       	ldi	r18, 0x00	; 0
    12c4:	30 e0       	ldi	r19, 0x00	; 0
    12c6:	a9 01       	movw	r20, r18
    12c8:	60 91 76 23 	lds	r22, 0x2376	; 0x802376 <LPS25H_d+0x1a>
    12cc:	70 91 77 23 	lds	r23, 0x2377	; 0x802377 <LPS25H_d+0x1b>
    12d0:	80 91 78 23 	lds	r24, 0x2378	; 0x802378 <LPS25H_d+0x1c>
    12d4:	90 91 79 23 	lds	r25, 0x2379	; 0x802379 <LPS25H_d+0x1d>
    12d8:	0e 94 b5 19 	call	0x336a	; 0x336a <__cmpsf2>
    12dc:	88 23       	and	r24, r24
    12de:	0c f0       	brlt	.+2      	; 0x12e2 <StateUpdate+0x2a6>
    12e0:	65 c0       	rjmp	.+202    	; 0x13ac <StateUpdate+0x370>
    12e2:	85 e0       	ldi	r24, 0x05	; 5
    12e4:	80 93 1b 29 	sts	0x291B, r24	; 0x80291b <stan_d+0x7>
    12e8:	61 c0       	rjmp	.+194    	; 0x13ac <StateUpdate+0x370>
            break;
			
        //-------case 5 sound signal + pilot parachute deployment------------------
        case 5:
            Buzzer3Beep();				//3 sygnay dwikowe
    12ea:	b7 dc       	rcall	.-1682   	; 0xc5a <Buzzer3Beep>
			Parachute1deploy();			//wyrzucenie spadochronu nr 1
            stan_d.flightState = 6;
    12ec:	86 e0       	ldi	r24, 0x06	; 6
    12ee:	80 93 1b 29 	sts	0x291B, r24	; 0x80291b <stan_d+0x7>
            break;
    12f2:	5c c0       	rjmp	.+184    	; 0x13ac <StateUpdate+0x370>
			
        //--------case 6 wait for main parachute target or pilot failure-----------
        case 6:
            if(allData->SensorsData->altitude < 400) stan_d.flightState = 7;						//warunek wysokoci
    12f4:	1e 96       	adiw	r26, 0x0e	; 14
    12f6:	cd 91       	ld	r28, X+
    12f8:	dc 91       	ld	r29, X
    12fa:	1f 97       	sbiw	r26, 0x0f	; 15
    12fc:	20 e0       	ldi	r18, 0x00	; 0
    12fe:	30 e0       	ldi	r19, 0x00	; 0
    1300:	48 ec       	ldi	r20, 0xC8	; 200
    1302:	53 e4       	ldi	r21, 0x43	; 67
    1304:	6c 89       	ldd	r22, Y+20	; 0x14
    1306:	7d 89       	ldd	r23, Y+21	; 0x15
    1308:	8e 89       	ldd	r24, Y+22	; 0x16
    130a:	9f 89       	ldd	r25, Y+23	; 0x17
    130c:	0e 94 b5 19 	call	0x336a	; 0x336a <__cmpsf2>
    1310:	88 23       	and	r24, r24
    1312:	1c f4       	brge	.+6      	; 0x131a <StateUpdate+0x2de>
    1314:	87 e0       	ldi	r24, 0x07	; 7
    1316:	80 93 1b 29 	sts	0x291B, r24	; 0x80291b <stan_d+0x7>
			//if(allData_d->SensorsData->accel_press < -1) stan_d.flightState = 7;					//warunek zwikszania prdkoci opadania
			if(allData->SensorsData->ascentVelo < -30) stan_d.flightState = 7;					//warunek prdkoci
    131a:	20 e0       	ldi	r18, 0x00	; 0
    131c:	30 e0       	ldi	r19, 0x00	; 0
    131e:	40 ef       	ldi	r20, 0xF0	; 240
    1320:	51 ec       	ldi	r21, 0xC1	; 193
    1322:	68 89       	ldd	r22, Y+16	; 0x10
    1324:	79 89       	ldd	r23, Y+17	; 0x11
    1326:	8a 89       	ldd	r24, Y+18	; 0x12
    1328:	9b 89       	ldd	r25, Y+19	; 0x13
    132a:	0e 94 b5 19 	call	0x336a	; 0x336a <__cmpsf2>
    132e:	88 23       	and	r24, r24
    1330:	0c f0       	brlt	.+2      	; 0x1334 <StateUpdate+0x2f8>
    1332:	3c c0       	rjmp	.+120    	; 0x13ac <StateUpdate+0x370>
    1334:	87 e0       	ldi	r24, 0x07	; 7
    1336:	80 93 1b 29 	sts	0x291B, r24	; 0x80291b <stan_d+0x7>
    133a:	38 c0       	rjmp	.+112    	; 0x13ac <StateUpdate+0x370>
            break;
			
        //--------case 7 main parachute deployment-----------
        case 7:
			Parachute2deploy();							//wyrzucenie gwnego spadochronu
			Buzzer2Beep();								//2 sygnay dwikowe
    133c:	a2 dc       	rcall	.-1724   	; 0xc82 <Buzzer2Beep>
            stan_d.flightState = 8;	
    133e:	88 e0       	ldi	r24, 0x08	; 8
    1340:	80 93 1b 29 	sts	0x291B, r24	; 0x80291b <stan_d+0x7>
            break;
    1344:	33 c0       	rjmp	.+102    	; 0x13ac <StateUpdate+0x370>
			
        //---------case 9 wait for landing----------
        case 8:
            if((LPS25H_d.altitude < 200) && (LPS25H_d.velocity < 1) && (LPS25H_d.velocity > -1)) stan_d.flightState = 9;
    1346:	20 e0       	ldi	r18, 0x00	; 0
    1348:	30 e0       	ldi	r19, 0x00	; 0
    134a:	48 e4       	ldi	r20, 0x48	; 72
    134c:	53 e4       	ldi	r21, 0x43	; 67
    134e:	60 91 6e 23 	lds	r22, 0x236E	; 0x80236e <LPS25H_d+0x12>
    1352:	70 91 6f 23 	lds	r23, 0x236F	; 0x80236f <LPS25H_d+0x13>
    1356:	80 91 70 23 	lds	r24, 0x2370	; 0x802370 <LPS25H_d+0x14>
    135a:	90 91 71 23 	lds	r25, 0x2371	; 0x802371 <LPS25H_d+0x15>
    135e:	0e 94 b5 19 	call	0x336a	; 0x336a <__cmpsf2>
    1362:	88 23       	and	r24, r24
    1364:	1c f5       	brge	.+70     	; 0x13ac <StateUpdate+0x370>
    1366:	c0 90 76 23 	lds	r12, 0x2376	; 0x802376 <LPS25H_d+0x1a>
    136a:	d0 90 77 23 	lds	r13, 0x2377	; 0x802377 <LPS25H_d+0x1b>
    136e:	e0 90 78 23 	lds	r14, 0x2378	; 0x802378 <LPS25H_d+0x1c>
    1372:	f0 90 79 23 	lds	r15, 0x2379	; 0x802379 <LPS25H_d+0x1d>
    1376:	20 e0       	ldi	r18, 0x00	; 0
    1378:	30 e0       	ldi	r19, 0x00	; 0
    137a:	40 e8       	ldi	r20, 0x80	; 128
    137c:	5f e3       	ldi	r21, 0x3F	; 63
    137e:	c7 01       	movw	r24, r14
    1380:	b6 01       	movw	r22, r12
    1382:	0e 94 b5 19 	call	0x336a	; 0x336a <__cmpsf2>
    1386:	88 23       	and	r24, r24
    1388:	8c f4       	brge	.+34     	; 0x13ac <StateUpdate+0x370>
    138a:	20 e0       	ldi	r18, 0x00	; 0
    138c:	30 e0       	ldi	r19, 0x00	; 0
    138e:	40 e8       	ldi	r20, 0x80	; 128
    1390:	5f eb       	ldi	r21, 0xBF	; 191
    1392:	c7 01       	movw	r24, r14
    1394:	b6 01       	movw	r22, r12
    1396:	0e 94 44 1b 	call	0x3688	; 0x3688 <__gesf2>
    139a:	18 16       	cp	r1, r24
    139c:	3c f4       	brge	.+14     	; 0x13ac <StateUpdate+0x370>
    139e:	89 e0       	ldi	r24, 0x09	; 9
    13a0:	80 93 1b 29 	sts	0x291B, r24	; 0x80291b <stan_d+0x7>
    13a4:	03 c0       	rjmp	.+6      	; 0x13ac <StateUpdate+0x370>
            break;
			
        //---------case 9 END----------------
        case 9:
            Buzzer2Hz();
    13a6:	5f dc       	rcall	.-1858   	; 0xc66 <Buzzer2Hz>
			stan_d.flash_trigger = false;
    13a8:	10 92 19 29 	sts	0x2919, r1	; 0x802919 <stan_d+0x5>
            break;
        }
    }
}
    13ac:	df 91       	pop	r29
    13ae:	cf 91       	pop	r28
    13b0:	ff 90       	pop	r15
    13b2:	ef 90       	pop	r14
    13b4:	df 90       	pop	r13
    13b6:	cf 90       	pop	r12
    13b8:	bf 90       	pop	r11
    13ba:	af 90       	pop	r10
    13bc:	9f 90       	pop	r9
    13be:	8f 90       	pop	r8
    13c0:	08 95       	ret

000013c2 <Initialization>:

void Initialization(void) {
	CPU_clk(CPU_clock);	//zegar CPU
    13c2:	80 e2       	ldi	r24, 0x20	; 32
    13c4:	ad d6       	rcall	.+3418   	; 0x2120 <CPU_clk>
    OscRTC();			//zegar RTC
    13c6:	af d6       	rcall	.+3422   	; 0x2126 <OscRTC>
    RTC_Init();			//konfiguracja i uruchomienie RTC
    13c8:	af d6       	rcall	.+3422   	; 0x2128 <RTC_Init>
    ADC_Init();			//inicjalizacja ADC
    13ca:	e5 d7       	rcall	.+4042   	; 0x2396 <ADC_Init>
    USART_Init();		//inicjalizacja Xbee
    13cc:	4f d7       	rcall	.+3742   	; 0x226c <USART_Init>
    GPS_Init();			//inicjalizacja GPS
    13ce:	37 d7       	rcall	.+3694   	; 0x223e <GPS_Init>
    GPS_Conf();			//wysanie konfiguracji do GPS
    13d0:	4c d7       	rcall	.+3736   	; 0x226a <GPS_Conf>
    IO_Init();
    13d2:	62 d7       	rcall	.+3780   	; 0x2298 <IO_Init>
    TimerCInit(sampling_time);	//sensor update
    13d4:	88 e2       	ldi	r24, 0x28	; 40
    13d6:	90 e0       	ldi	r25, 0x00	; 0
    13d8:	a8 d6       	rcall	.+3408   	; 0x212a <TimerCInit>
    TimerDInit(250);			//buzzer handling
    13da:	8a ef       	ldi	r24, 0xFA	; 250
    13dc:	90 e0       	ldi	r25, 0x00	; 0
    13de:	c6 d6       	rcall	.+3468   	; 0x216c <TimerDInit>
    TimerEInit(50);				//obsuga IO
    13e0:	82 e3       	ldi	r24, 0x32	; 50
    13e2:	90 e0       	ldi	r25, 0x00	; 0
    13e4:	e4 d6       	rcall	.+3528   	; 0x21ae <TimerEInit>
    TimerFInit(telemetry_time);	//frame send
    13e6:	88 ee       	ldi	r24, 0xE8	; 232
    13e8:	93 e0       	ldi	r25, 0x03	; 3
    13ea:	02 d7       	rcall	.+3588   	; 0x21f0 <TimerFInit>
    structInit();
    13ec:	87 dd       	rcall	.-1266   	; 0xefc <structInit>
    I2C_Init();
    13ee:	ac d7       	rcall	.+3928   	; 0x2348 <I2C_Init>
    //--------MPU9150 Init-----------
    MPU9150_WakeUp();
    13f0:	0e 94 45 16 	call	0x2c8a	; 0x2c8a <MPU9150_WakeUp>
    //-------LPS25H Init------------
    LPS25H_config();
    13f4:	0e 94 ba 12 	call	0x2574	; 0x2574 <LPS25H_config>
    //-------LIS331HH Init---------
    LIS331HH_WakeUp();
    13f8:	0e 94 fd 11 	call	0x23fa	; 0x23fa <LIS331HH_WakeUp>
    //-------LSM9DS0 Init----------
    LSM9DS0_Init();
    13fc:	0e 94 af 13 	call	0x275e	; 0x275e <LSM9DS0_Init>
    //-------SPI Flash Init--------
    SPI_Init();
    1400:	af d7       	rcall	.+3934   	; 0x2360 <SPI_Init>
    SPI_WriteProtection(false);
    1402:	80 e0       	ldi	r24, 0x00	; 0
    1404:	71 d5       	rcall	.+2786   	; 0x1ee8 <SPI_WriteProtection>
    SPIaddress = SPI_FindEnd();		//szukaj wolnego miejsca w pamici------------------------------------------------
    1406:	cb d5       	rcall	.+2966   	; 0x1f9e <SPI_FindEnd>
    1408:	60 93 1c 21 	sts	0x211C, r22	; 0x80211c <SPIaddress>
    140c:	70 93 1d 21 	sts	0x211D, r23	; 0x80211d <SPIaddress+0x1>
    1410:	80 93 1e 21 	sts	0x211E, r24	; 0x80211e <SPIaddress+0x2>
    1414:	90 93 1f 21 	sts	0x211F, r25	; 0x80211f <SPIaddress+0x3>
    //SPIaddress = 0;
    //-------wczenie przerwa----
    PMIC.CTRL = PMIC_LOLVLEN_bm | PMIC_MEDLVLEN_bm | PMIC_HILVLEN_bm;
    1418:	87 e0       	ldi	r24, 0x07	; 7
    141a:	80 93 a2 00 	sts	0x00A2, r24	; 0x8000a2 <__TEXT_REGION_LENGTH__+0x7000a2>
    141e:	08 95       	ret

00001420 <InitMemoryErase>:
}

void InitMemoryErase() {
    1420:	cf 93       	push	r28
    1422:	df 93       	push	r29
    1424:	cd b7       	in	r28, 0x3d	; 61
    1426:	de b7       	in	r29, 0x3e	; 62
    1428:	66 97       	sbiw	r28, 0x16	; 22
    142a:	cd bf       	out	0x3d, r28	; 61
    142c:	de bf       	out	0x3e, r29	; 62
    uint32_t i = 0;
    const char buf0[] = "\n\rMemory erased!\n\r\n\r\0";
    142e:	86 e1       	ldi	r24, 0x16	; 22
    1430:	e0 e0       	ldi	r30, 0x00	; 0
    1432:	f0 e2       	ldi	r31, 0x20	; 32
    1434:	de 01       	movw	r26, r28
    1436:	11 96       	adiw	r26, 0x01	; 1
    1438:	01 90       	ld	r0, Z+
    143a:	0d 92       	st	X+, r0
    143c:	8a 95       	dec	r24
    143e:	e1 f7       	brne	.-8      	; 0x1438 <InitMemoryErase+0x18>
    while((!(PORTE.IN & PIN0_bm)) || (!(PORTE.IN & PIN1_bm))) {}
    1440:	e0 e8       	ldi	r30, 0x80	; 128
    1442:	f6 e0       	ldi	r31, 0x06	; 6
    1444:	80 85       	ldd	r24, Z+8	; 0x08
    1446:	80 ff       	sbrs	r24, 0
    1448:	fd cf       	rjmp	.-6      	; 0x1444 <InitMemoryErase+0x24>
    144a:	80 85       	ldd	r24, Z+8	; 0x08
    144c:	81 ff       	sbrs	r24, 1
    144e:	fa cf       	rjmp	.-12     	; 0x1444 <InitMemoryErase+0x24>
    buzzer_d.mode = 3;																//sygna 2Hz
    1450:	e3 e2       	ldi	r30, 0x23	; 35
    1452:	f3 e2       	ldi	r31, 0x23	; 35
    1454:	83 e0       	ldi	r24, 0x03	; 3
    1456:	81 83       	std	Z+1, r24	; 0x01
    buzzer_d.trigger = true;														//odblokowanie buzzera
    1458:	81 e0       	ldi	r24, 0x01	; 1
    145a:	80 83       	st	Z, r24
    SPI_ChipErase();
    145c:	89 d5       	rcall	.+2834   	; 0x1f70 <SPI_ChipErase>
	#else
		//round up by default
		__ticks_dc = (uint32_t)(ceil(fabs(__tmp)));
	#endif

	__builtin_avr_delay_cycles(__ticks_dc);
    145e:	2f ef       	ldi	r18, 0xFF	; 255
    1460:	87 ea       	ldi	r24, 0xA7	; 167
    1462:	91 e6       	ldi	r25, 0x61	; 97
    1464:	21 50       	subi	r18, 0x01	; 1
    1466:	80 40       	sbci	r24, 0x00	; 0
    1468:	90 40       	sbci	r25, 0x00	; 0
    146a:	e1 f7       	brne	.-8      	; 0x1464 <InitMemoryErase+0x44>
    146c:	00 c0       	rjmp	.+0      	; 0x146e <InitMemoryErase+0x4e>
    146e:	00 00       	nop
    _delay_ms(1000);
    i = 0;
    while(buf0[i]) {
    1470:	89 81       	ldd	r24, Y+1	; 0x01
    1472:	88 23       	and	r24, r24
    1474:	71 f0       	breq	.+28     	; 0x1492 <InitMemoryErase+0x72>
    1476:	fe 01       	movw	r30, r28
    1478:	32 96       	adiw	r30, 0x02	; 2
        XBEE_UART.DATA = buf0[i++];
    147a:	a0 ea       	ldi	r26, 0xA0	; 160
    147c:	b9 e0       	ldi	r27, 0x09	; 9
    147e:	8c 93       	st	X, r24
    1480:	8f e7       	ldi	r24, 0x7F	; 127
    1482:	9e e3       	ldi	r25, 0x3E	; 62
    1484:	01 97       	sbiw	r24, 0x01	; 1
    1486:	f1 f7       	brne	.-4      	; 0x1484 <InitMemoryErase+0x64>
    1488:	00 c0       	rjmp	.+0      	; 0x148a <InitMemoryErase+0x6a>
    148a:	00 00       	nop
    buzzer_d.mode = 3;																//sygna 2Hz
    buzzer_d.trigger = true;														//odblokowanie buzzera
    SPI_ChipErase();
    _delay_ms(1000);
    i = 0;
    while(buf0[i]) {
    148c:	81 91       	ld	r24, Z+
    148e:	81 11       	cpse	r24, r1
    1490:	f6 cf       	rjmp	.-20     	; 0x147e <InitMemoryErase+0x5e>
        XBEE_UART.DATA = buf0[i++];
        _delay_ms(2);
    }
    buzzer_d.trigger = false;														//odblokowanie buzzera
    1492:	10 92 23 23 	sts	0x2323, r1	; 0x802323 <buzzer_d>
    SPIaddress = 0;
    1496:	10 92 1c 21 	sts	0x211C, r1	; 0x80211c <SPIaddress>
    149a:	10 92 1d 21 	sts	0x211D, r1	; 0x80211d <SPIaddress+0x1>
    149e:	10 92 1e 21 	sts	0x211E, r1	; 0x80211e <SPIaddress+0x2>
    14a2:	10 92 1f 21 	sts	0x211F, r1	; 0x80211f <SPIaddress+0x3>
}
    14a6:	66 96       	adiw	r28, 0x16	; 22
    14a8:	cd bf       	out	0x3d, r28	; 61
    14aa:	de bf       	out	0x3e, r29	; 62
    14ac:	df 91       	pop	r29
    14ae:	cf 91       	pop	r28
    14b0:	08 95       	ret

000014b2 <InitMemoryRead>:

void InitMemoryRead() {
    14b2:	4f 92       	push	r4
    14b4:	5f 92       	push	r5
    14b6:	6f 92       	push	r6
    14b8:	7f 92       	push	r7
    14ba:	9f 92       	push	r9
    14bc:	af 92       	push	r10
    14be:	bf 92       	push	r11
    14c0:	cf 92       	push	r12
    14c2:	df 92       	push	r13
    14c4:	ef 92       	push	r14
    14c6:	ff 92       	push	r15
    14c8:	0f 93       	push	r16
    14ca:	1f 93       	push	r17
    14cc:	cf 93       	push	r28
    14ce:	df 93       	push	r29
    14d0:	cd b7       	in	r28, 0x3d	; 61
    14d2:	de b7       	in	r29, 0x3e	; 62
    14d4:	ca 5b       	subi	r28, 0xBA	; 186
    14d6:	d1 09       	sbc	r29, r1
    14d8:	cd bf       	out	0x3d, r28	; 61
    14da:	de bf       	out	0x3e, r29	; 62
    uint32_t i = 0;
    stan_d.flash_trigger = false;
    14dc:	10 92 19 29 	sts	0x2919, r1	; 0x802919 <stan_d+0x5>
    buzzer_d.mode = 3;																//sygna 2Hz
    14e0:	e3 e2       	ldi	r30, 0x23	; 35
    14e2:	f3 e2       	ldi	r31, 0x23	; 35
    14e4:	83 e0       	ldi	r24, 0x03	; 3
    14e6:	81 83       	std	Z+1, r24	; 0x01
    buzzer_d.trigger = true;
    14e8:	81 e0       	ldi	r24, 0x01	; 1
    14ea:	80 83       	st	Z, r24
    14ec:	2f ef       	ldi	r18, 0xFF	; 255
    14ee:	87 e8       	ldi	r24, 0x87	; 135
    14f0:	93 e1       	ldi	r25, 0x13	; 19
    14f2:	21 50       	subi	r18, 0x01	; 1
    14f4:	80 40       	sbci	r24, 0x00	; 0
    14f6:	90 40       	sbci	r25, 0x00	; 0
    14f8:	e1 f7       	brne	.-8      	; 0x14f2 <InitMemoryRead+0x40>
    14fa:	00 c0       	rjmp	.+0      	; 0x14fc <InitMemoryRead+0x4a>
    14fc:	00 00       	nop
    _delay_ms(200);
    buzzer_d.trigger = false;
    14fe:	10 82       	st	Z, r1
    while(!(PORTE.IN & PIN1_bm)) {}
    1500:	e0 e8       	ldi	r30, 0x80	; 128
    1502:	f6 e0       	ldi	r31, 0x06	; 6
    1504:	80 85       	ldd	r24, Z+8	; 0x08
    1506:	81 ff       	sbrs	r24, 1
    1508:	fd cf       	rjmp	.-6      	; 0x1504 <InitMemoryRead+0x52>
    const char buf1[] = "\n\rTeam,TeleCnt,FlightState,SoftState,Altitude,Velocity,Accel,Gyro,Lat,Long,AltiGPS,Fix,Check,,Cnt,VoltageBat,VoltageVCC,Temp,Press,AccY,AccY2,GyroX,GyroZ,GyroY,\n\r\n\r\0";
    150a:	86 ea       	ldi	r24, 0xA6	; 166
    150c:	e6 e1       	ldi	r30, 0x16	; 22
    150e:	f0 e2       	ldi	r31, 0x20	; 32
    1510:	de 01       	movw	r26, r28
    1512:	11 96       	adiw	r26, 0x01	; 1
    1514:	01 90       	ld	r0, Z+
    1516:	0d 92       	st	X+, r0
    1518:	8a 95       	dec	r24
    151a:	e1 f7       	brne	.-8      	; 0x1514 <InitMemoryRead+0x62>
    const char buf2[] = "\n\rReading done\n\r\n\r\0";
    151c:	84 e1       	ldi	r24, 0x14	; 20
    151e:	ec eb       	ldi	r30, 0xBC	; 188
    1520:	f0 e2       	ldi	r31, 0x20	; 32
    1522:	de 01       	movw	r26, r28
    1524:	a9 55       	subi	r26, 0x59	; 89
    1526:	bf 4f       	sbci	r27, 0xFF	; 255
    1528:	01 90       	ld	r0, Z+
    152a:	0d 92       	st	X+, r0
    152c:	8a 95       	dec	r24
    152e:	e1 f7       	brne	.-8      	; 0x1528 <InitMemoryRead+0x76>
    //------Hello message----------
    while(buf1[i]) {
    1530:	89 81       	ldd	r24, Y+1	; 0x01
    1532:	88 23       	and	r24, r24
    1534:	89 f0       	breq	.+34     	; 0x1558 <InitMemoryRead+0xa6>
    1536:	fe 01       	movw	r30, r28
    1538:	32 96       	adiw	r30, 0x02	; 2
        XBEE_UART.DATA = buf1[i++];
    153a:	a0 ea       	ldi	r26, 0xA0	; 160
    153c:	b9 e0       	ldi	r27, 0x09	; 9
    153e:	8c 93       	st	X, r24
    1540:	2f ef       	ldi	r18, 0xFF	; 255
    1542:	89 ef       	ldi	r24, 0xF9	; 249
    1544:	90 e0       	ldi	r25, 0x00	; 0
    1546:	21 50       	subi	r18, 0x01	; 1
    1548:	80 40       	sbci	r24, 0x00	; 0
    154a:	90 40       	sbci	r25, 0x00	; 0
    154c:	e1 f7       	brne	.-8      	; 0x1546 <InitMemoryRead+0x94>
    154e:	00 c0       	rjmp	.+0      	; 0x1550 <InitMemoryRead+0x9e>
    1550:	00 00       	nop
    buzzer_d.trigger = false;
    while(!(PORTE.IN & PIN1_bm)) {}
    const char buf1[] = "\n\rTeam,TeleCnt,FlightState,SoftState,Altitude,Velocity,Accel,Gyro,Lat,Long,AltiGPS,Fix,Check,,Cnt,VoltageBat,VoltageVCC,Temp,Press,AccY,AccY2,GyroX,GyroZ,GyroY,\n\r\n\r\0";
    const char buf2[] = "\n\rReading done\n\r\n\r\0";
    //------Hello message----------
    while(buf1[i]) {
    1552:	81 91       	ld	r24, Z+
    1554:	81 11       	cpse	r24, r1
    1556:	f3 cf       	rjmp	.-26     	; 0x153e <InitMemoryRead+0x8c>
    1558:	ef ef       	ldi	r30, 0xFF	; 255
    155a:	f7 ea       	ldi	r31, 0xA7	; 167
    155c:	21 e6       	ldi	r18, 0x61	; 97
    155e:	e1 50       	subi	r30, 0x01	; 1
    1560:	f0 40       	sbci	r31, 0x00	; 0
    1562:	20 40       	sbci	r18, 0x00	; 0
    1564:	e1 f7       	brne	.-8      	; 0x155e <InitMemoryRead+0xac>
    1566:	00 c0       	rjmp	.+0      	; 0x1568 <InitMemoryRead+0xb6>
    1568:	00 00       	nop
    }
    _delay_ms(1000);
    //-------start Flash read------S
    uint8_t ch = 0xFF;
    uint8_t FFcnt = 0;
    LED_PORT.OUTSET = LED1;
    156a:	84 e0       	ldi	r24, 0x04	; 4
    156c:	80 93 05 06 	sts	0x0605, r24	; 0x800605 <__TEXT_REGION_LENGTH__+0x700605>
    SPI_CS(true);
    1570:	81 e0       	ldi	r24, 0x01	; 1
    1572:	71 d4       	rcall	.+2274   	; 0x1e56 <SPI_CS>
    SPI_W_Byte(0x03);					//Read
    1574:	83 e0       	ldi	r24, 0x03	; 3
    1576:	52 d4       	rcall	.+2212   	; 0x1e1c <SPI_W_Byte>
    SPI_W_Byte(0);	//address MSB
    1578:	80 e0       	ldi	r24, 0x00	; 0
    157a:	50 d4       	rcall	.+2208   	; 0x1e1c <SPI_W_Byte>
    SPI_W_Byte(0);	//address cd.
    157c:	80 e0       	ldi	r24, 0x00	; 0
    157e:	4e d4       	rcall	.+2204   	; 0x1e1c <SPI_W_Byte>
    SPI_W_Byte(0);	//address LSB
    1580:	80 e0       	ldi	r24, 0x00	; 0
    1582:	4c d4       	rcall	.+2200   	; 0x1e1c <SPI_W_Byte>
        _delay_ms(10);
    }
    _delay_ms(1000);
    //-------start Flash read------S
    uint8_t ch = 0xFF;
    uint8_t FFcnt = 0;
    1584:	91 2c       	mov	r9, r1
    SPI_CS(true);
    SPI_W_Byte(0x03);					//Read
    SPI_W_Byte(0);	//address MSB
    SPI_W_Byte(0);	//address cd.
    SPI_W_Byte(0);	//address LSB
    i = 0;
    1586:	c1 2c       	mov	r12, r1
    1588:	d1 2c       	mov	r13, r1
    158a:	76 01       	movw	r14, r12
    do {
        ch = SPI_R_Byte();
        if(ch != 0xFF) {
            XBEE_UART.DATA = ch;
    158c:	0f 2e       	mov	r0, r31
    158e:	f0 ea       	ldi	r31, 0xA0	; 160
    1590:	af 2e       	mov	r10, r31
    1592:	f9 e0       	ldi	r31, 0x09	; 9
    1594:	bf 2e       	mov	r11, r31
    1596:	f0 2d       	mov	r31, r0
            FFcnt = 0;
        } else FFcnt++;
        i++;
        if((i % 100) == 0) _delay_ms(10);
    1598:	0f 2e       	mov	r0, r31
    159a:	f4 e6       	ldi	r31, 0x64	; 100
    159c:	4f 2e       	mov	r4, r31
    159e:	51 2c       	mov	r5, r1
    15a0:	61 2c       	mov	r6, r1
    15a2:	71 2c       	mov	r7, r1
    15a4:	f0 2d       	mov	r31, r0
        else _delay_us(100);
    } while((PORTE.IN & PIN0_bm) && (FFcnt < 100));
    15a6:	00 e8       	ldi	r16, 0x80	; 128
    15a8:	16 e0       	ldi	r17, 0x06	; 6
    SPI_W_Byte(0);	//address MSB
    SPI_W_Byte(0);	//address cd.
    SPI_W_Byte(0);	//address LSB
    i = 0;
    do {
        ch = SPI_R_Byte();
    15aa:	4b d4       	rcall	.+2198   	; 0x1e42 <SPI_R_Byte>
        if(ch != 0xFF) {
    15ac:	8f 3f       	cpi	r24, 0xFF	; 255
    15ae:	21 f0       	breq	.+8      	; 0x15b8 <InitMemoryRead+0x106>
            XBEE_UART.DATA = ch;
    15b0:	f5 01       	movw	r30, r10
    15b2:	80 83       	st	Z, r24
            FFcnt = 0;
    15b4:	91 2c       	mov	r9, r1
    15b6:	01 c0       	rjmp	.+2      	; 0x15ba <InitMemoryRead+0x108>
        } else FFcnt++;
    15b8:	93 94       	inc	r9
        i++;
    15ba:	ff ef       	ldi	r31, 0xFF	; 255
    15bc:	cf 1a       	sub	r12, r31
    15be:	df 0a       	sbc	r13, r31
    15c0:	ef 0a       	sbc	r14, r31
    15c2:	ff 0a       	sbc	r15, r31
        if((i % 100) == 0) _delay_ms(10);
    15c4:	c7 01       	movw	r24, r14
    15c6:	b6 01       	movw	r22, r12
    15c8:	a3 01       	movw	r20, r6
    15ca:	92 01       	movw	r18, r4
    15cc:	0e 94 34 1d 	call	0x3a68	; 0x3a68 <__udivmodsi4>
    15d0:	67 2b       	or	r22, r23
    15d2:	68 2b       	or	r22, r24
    15d4:	69 2b       	or	r22, r25
    15d6:	51 f4       	brne	.+20     	; 0x15ec <InitMemoryRead+0x13a>
    15d8:	2f ef       	ldi	r18, 0xFF	; 255
    15da:	89 ef       	ldi	r24, 0xF9	; 249
    15dc:	90 e0       	ldi	r25, 0x00	; 0
    15de:	21 50       	subi	r18, 0x01	; 1
    15e0:	80 40       	sbci	r24, 0x00	; 0
    15e2:	90 40       	sbci	r25, 0x00	; 0
    15e4:	e1 f7       	brne	.-8      	; 0x15de <InitMemoryRead+0x12c>
    15e6:	00 c0       	rjmp	.+0      	; 0x15e8 <InitMemoryRead+0x136>
    15e8:	00 00       	nop
    15ea:	06 c0       	rjmp	.+12     	; 0x15f8 <InitMemoryRead+0x146>
	#else
		//round up by default
		__ticks_dc = (uint32_t)(ceil(fabs(__tmp)));
	#endif

	__builtin_avr_delay_cycles(__ticks_dc);
    15ec:	ef e1       	ldi	r30, 0x1F	; 31
    15ee:	f3 e0       	ldi	r31, 0x03	; 3
    15f0:	31 97       	sbiw	r30, 0x01	; 1
    15f2:	f1 f7       	brne	.-4      	; 0x15f0 <InitMemoryRead+0x13e>
    15f4:	00 c0       	rjmp	.+0      	; 0x15f6 <InitMemoryRead+0x144>
    15f6:	00 00       	nop
        else _delay_us(100);
    } while((PORTE.IN & PIN0_bm) && (FFcnt < 100));
    15f8:	f8 01       	movw	r30, r16
    15fa:	80 85       	ldd	r24, Z+8	; 0x08
    15fc:	80 ff       	sbrs	r24, 0
    15fe:	03 c0       	rjmp	.+6      	; 0x1606 <InitMemoryRead+0x154>
    1600:	f3 e6       	ldi	r31, 0x63	; 99
    1602:	f9 15       	cp	r31, r9
    1604:	90 f6       	brcc	.-92     	; 0x15aa <InitMemoryRead+0xf8>
    SPI_CS(false);
    1606:	80 e0       	ldi	r24, 0x00	; 0
    1608:	26 d4       	rcall	.+2124   	; 0x1e56 <SPI_CS>
    i = 0;
    while(buf2[i]) {
    160a:	c9 55       	subi	r28, 0x59	; 89
    160c:	df 4f       	sbci	r29, 0xFF	; 255
    160e:	88 81       	ld	r24, Y
    1610:	c7 5a       	subi	r28, 0xA7	; 167
    1612:	d0 40       	sbci	r29, 0x00	; 0
    1614:	88 23       	and	r24, r24
    1616:	79 f0       	breq	.+30     	; 0x1636 <InitMemoryRead+0x184>
    1618:	fe 01       	movw	r30, r28
    161a:	e8 55       	subi	r30, 0x58	; 88
    161c:	ff 4f       	sbci	r31, 0xFF	; 255
        XBEE_UART.DATA = buf2[i++];
    161e:	a0 ea       	ldi	r26, 0xA0	; 160
    1620:	b9 e0       	ldi	r27, 0x09	; 9
    1622:	8c 93       	st	X, r24
	#else
		//round up by default
		__ticks_dc = (uint32_t)(ceil(fabs(__tmp)));
	#endif

	__builtin_avr_delay_cycles(__ticks_dc);
    1624:	8f e3       	ldi	r24, 0x3F	; 63
    1626:	9f e1       	ldi	r25, 0x1F	; 31
    1628:	01 97       	sbiw	r24, 0x01	; 1
    162a:	f1 f7       	brne	.-4      	; 0x1628 <InitMemoryRead+0x176>
    162c:	00 c0       	rjmp	.+0      	; 0x162e <InitMemoryRead+0x17c>
    162e:	00 00       	nop
        if((i % 100) == 0) _delay_ms(10);
        else _delay_us(100);
    } while((PORTE.IN & PIN0_bm) && (FFcnt < 100));
    SPI_CS(false);
    i = 0;
    while(buf2[i]) {
    1630:	81 91       	ld	r24, Z+
    1632:	81 11       	cpse	r24, r1
    1634:	f6 cf       	rjmp	.-20     	; 0x1622 <InitMemoryRead+0x170>
        XBEE_UART.DATA = buf2[i++];
        _delay_ms(1);
    }
}
    1636:	c6 54       	subi	r28, 0x46	; 70
    1638:	df 4f       	sbci	r29, 0xFF	; 255
    163a:	cd bf       	out	0x3d, r28	; 61
    163c:	de bf       	out	0x3e, r29	; 62
    163e:	df 91       	pop	r29
    1640:	cf 91       	pop	r28
    1642:	1f 91       	pop	r17
    1644:	0f 91       	pop	r16
    1646:	ff 90       	pop	r15
    1648:	ef 90       	pop	r14
    164a:	df 90       	pop	r13
    164c:	cf 90       	pop	r12
    164e:	bf 90       	pop	r11
    1650:	af 90       	pop	r10
    1652:	9f 90       	pop	r9
    1654:	7f 90       	pop	r7
    1656:	6f 90       	pop	r6
    1658:	5f 90       	pop	r5
    165a:	4f 90       	pop	r4
    165c:	08 95       	ret

0000165e <WarmUp>:

void WarmUp() {
    //------Bluetooth bee init-----
    //_delay_ms(1000);
    BT_Start(&frame_d);
    165e:	8f e8       	ldi	r24, 0x8F	; 143
    1660:	96 e2       	ldi	r25, 0x26	; 38
    1662:	8b dc       	rcall	.-1770   	; 0xf7a <BT_Start>
    USARTD0_TXC_vect();
    1664:	c5 d8       	rcall	.-3702   	; 0x7f0 <__vector_90>
    //------Hello blink
    LED_PORT.OUTSET = LED2;
    1666:	e0 e0       	ldi	r30, 0x00	; 0
    1668:	f6 e0       	ldi	r31, 0x06	; 6
    166a:	88 e0       	ldi	r24, 0x08	; 8
    166c:	85 83       	std	Z+5, r24	; 0x05
    166e:	2f ef       	ldi	r18, 0xFF	; 255
    1670:	37 e8       	ldi	r19, 0x87	; 135
    1672:	93 e1       	ldi	r25, 0x13	; 19
    1674:	21 50       	subi	r18, 0x01	; 1
    1676:	30 40       	sbci	r19, 0x00	; 0
    1678:	90 40       	sbci	r25, 0x00	; 0
    167a:	e1 f7       	brne	.-8      	; 0x1674 <WarmUp+0x16>
    167c:	00 c0       	rjmp	.+0      	; 0x167e <WarmUp+0x20>
    167e:	00 00       	nop
    _delay_ms(200);
    LED_PORT.OUTCLR = LED2;
    1680:	86 83       	std	Z+6, r24	; 0x06
    1682:	2f ef       	ldi	r18, 0xFF	; 255
    1684:	33 ec       	ldi	r19, 0xC3	; 195
    1686:	99 e0       	ldi	r25, 0x09	; 9
    1688:	21 50       	subi	r18, 0x01	; 1
    168a:	30 40       	sbci	r19, 0x00	; 0
    168c:	90 40       	sbci	r25, 0x00	; 0
    168e:	e1 f7       	brne	.-8      	; 0x1688 <WarmUp+0x2a>
    1690:	00 c0       	rjmp	.+0      	; 0x1692 <WarmUp+0x34>
    1692:	00 00       	nop
    _delay_ms(100);
    LED_PORT.OUTSET = LED2;
    1694:	85 83       	std	Z+5, r24	; 0x05
    1696:	2f ef       	ldi	r18, 0xFF	; 255
    1698:	37 e8       	ldi	r19, 0x87	; 135
    169a:	93 e1       	ldi	r25, 0x13	; 19
    169c:	21 50       	subi	r18, 0x01	; 1
    169e:	30 40       	sbci	r19, 0x00	; 0
    16a0:	90 40       	sbci	r25, 0x00	; 0
    16a2:	e1 f7       	brne	.-8      	; 0x169c <WarmUp+0x3e>
    16a4:	00 c0       	rjmp	.+0      	; 0x16a6 <WarmUp+0x48>
    16a6:	00 00       	nop
    _delay_ms(200);
    LED_PORT.OUTCLR = LED2;
    16a8:	86 83       	std	Z+6, r24	; 0x06
    16aa:	2f ef       	ldi	r18, 0xFF	; 255
    16ac:	33 ec       	ldi	r19, 0xC3	; 195
    16ae:	89 e0       	ldi	r24, 0x09	; 9
    16b0:	21 50       	subi	r18, 0x01	; 1
    16b2:	30 40       	sbci	r19, 0x00	; 0
    16b4:	80 40       	sbci	r24, 0x00	; 0
    16b6:	e1 f7       	brne	.-8      	; 0x16b0 <WarmUp+0x52>
    16b8:	00 c0       	rjmp	.+0      	; 0x16ba <WarmUp+0x5c>
    16ba:	00 00       	nop
    16bc:	08 95       	ret

000016be <WarmUpMemoryOperations>:
    _delay_ms(100);
}

void WarmUpMemoryOperations() {
    //----------------Kasowanie pamici Flash------------------------
    if((!(PORTE.IN & PIN0_bm)) && (!(PORTE.IN & PIN1_bm))) InitMemoryErase();
    16be:	80 91 88 06 	lds	r24, 0x0688	; 0x800688 <__TEXT_REGION_LENGTH__+0x700688>
    16c2:	80 fd       	sbrc	r24, 0
    16c4:	06 c0       	rjmp	.+12     	; 0x16d2 <WarmUpMemoryOperations+0x14>
    16c6:	80 91 88 06 	lds	r24, 0x0688	; 0x800688 <__TEXT_REGION_LENGTH__+0x700688>
    16ca:	81 fd       	sbrc	r24, 1
    16cc:	02 c0       	rjmp	.+4      	; 0x16d2 <WarmUpMemoryOperations+0x14>
    16ce:	a8 ce       	rjmp	.-688    	; 0x1420 <InitMemoryErase>
    16d0:	08 95       	ret
    //-----------------Odczyt z pamici i wysanie po Xbee-----------
    else if(!(PORTE.IN & PIN1_bm)) InitMemoryRead();
    16d2:	80 91 88 06 	lds	r24, 0x0688	; 0x800688 <__TEXT_REGION_LENGTH__+0x700688>
    16d6:	81 ff       	sbrs	r24, 1
    16d8:	ec ce       	rjmp	.-552    	; 0x14b2 <InitMemoryRead>
    16da:	08 95       	ret

000016dc <SensorDataFusion>:
	//-------Calculate launchpad angle------------------------------------
	MinAngleVector3D(abs_mean_accX, abs_mean_accY, abs_mean_accZ);
	return 0;
}

void SensorDataFusion(allData_t * allData){
    16dc:	2f 92       	push	r2
    16de:	3f 92       	push	r3
    16e0:	4f 92       	push	r4
    16e2:	5f 92       	push	r5
    16e4:	6f 92       	push	r6
    16e6:	7f 92       	push	r7
    16e8:	8f 92       	push	r8
    16ea:	9f 92       	push	r9
    16ec:	af 92       	push	r10
    16ee:	bf 92       	push	r11
    16f0:	cf 92       	push	r12
    16f2:	df 92       	push	r13
    16f4:	ef 92       	push	r14
    16f6:	ff 92       	push	r15
    16f8:	0f 93       	push	r16
    16fa:	1f 93       	push	r17
    16fc:	cf 93       	push	r28
    16fe:	df 93       	push	r29
    1700:	fc 01       	movw	r30, r24
	float LIS331HH_accel_x;
	float LIS331HH_accel_y;
	float LIS331HH_accel_z;
	
	//--------Sensor data router------------------------------------
	switch(allData->boardOrient->config){
    1702:	24 88       	ldd	r2, Z+20	; 0x14
    1704:	35 88       	ldd	r3, Z+21	; 0x15
    1706:	d1 01       	movw	r26, r2
    1708:	8c 91       	ld	r24, X
    170a:	82 30       	cpi	r24, 0x02	; 2
    170c:	e9 f0       	breq	.+58     	; 0x1748 <SensorDataFusion+0x6c>
    170e:	83 30       	cpi	r24, 0x03	; 3
    1710:	b1 f1       	breq	.+108    	; 0x177e <SensorDataFusion+0xa2>
		case 1:	//-----X sensor = main axis
		default:
		MPU9150_accel_x = allData->MPU9150->accel_x;
    1712:	c0 81       	ld	r28, Z
    1714:	d1 81       	ldd	r29, Z+1	; 0x01
    1716:	4c 89       	ldd	r20, Y+20	; 0x14
    1718:	5d 89       	ldd	r21, Y+21	; 0x15
    171a:	6e 89       	ldd	r22, Y+22	; 0x16
    171c:	7f 89       	ldd	r23, Y+23	; 0x17
		MPU9150_accel_y = allData->MPU9150->accel_y;
    171e:	c8 8c       	ldd	r12, Y+24	; 0x18
    1720:	d9 8c       	ldd	r13, Y+25	; 0x19
    1722:	ea 8c       	ldd	r14, Y+26	; 0x1a
    1724:	fb 8c       	ldd	r15, Y+27	; 0x1b
		MPU9150_accel_z = allData->MPU9150->accel_z;
    1726:	0c 8d       	ldd	r16, Y+28	; 0x1c
    1728:	1d 8d       	ldd	r17, Y+29	; 0x1d
    172a:	2e 8d       	ldd	r18, Y+30	; 0x1e
    172c:	3f 8d       	ldd	r19, Y+31	; 0x1f
		MPU9150_gyro_x = allData->MPU9150->gyro_x;
    172e:	8c a1       	ldd	r24, Y+36	; 0x24
    1730:	9d a1       	ldd	r25, Y+37	; 0x25
    1732:	ae a1       	ldd	r26, Y+38	; 0x26
    1734:	bf a1       	ldd	r27, Y+39	; 0x27
		MPU9150_gyro_y = allData->MPU9150->gyro_y;
    1736:	88 a4       	ldd	r8, Y+40	; 0x28
    1738:	99 a4       	ldd	r9, Y+41	; 0x29
    173a:	aa a4       	ldd	r10, Y+42	; 0x2a
    173c:	bb a4       	ldd	r11, Y+43	; 0x2b
		MPU9150_gyro_z = allData->MPU9150->gyro_z;
    173e:	4c a4       	ldd	r4, Y+44	; 0x2c
    1740:	5d a4       	ldd	r5, Y+45	; 0x2d
    1742:	6e a4       	ldd	r6, Y+46	; 0x2e
    1744:	7f a4       	ldd	r7, Y+47	; 0x2f
		LSM9DS0_gyro_y = allData->LSM9DS0->gyro_y;
		LSM9DS0_gyro_z = allData->LSM9DS0->gyro_z;
		LIS331HH_accel_x = allData->LIS331HH->accel_x;
		LIS331HH_accel_y = allData->LIS331HH->accel_y;
		LIS331HH_accel_z = allData->LIS331HH->accel_z;
		break;
    1746:	35 c0       	rjmp	.+106    	; 0x17b2 <SensorDataFusion+0xd6>
		case 2: //-----Y sensor = main axis
		MPU9150_accel_x = allData->MPU9150->accel_y;
    1748:	c0 81       	ld	r28, Z
    174a:	d1 81       	ldd	r29, Z+1	; 0x01
    174c:	48 8d       	ldd	r20, Y+24	; 0x18
    174e:	59 8d       	ldd	r21, Y+25	; 0x19
    1750:	6a 8d       	ldd	r22, Y+26	; 0x1a
    1752:	7b 8d       	ldd	r23, Y+27	; 0x1b
		MPU9150_accel_y = allData->MPU9150->accel_x;
    1754:	cc 88       	ldd	r12, Y+20	; 0x14
    1756:	dd 88       	ldd	r13, Y+21	; 0x15
    1758:	ee 88       	ldd	r14, Y+22	; 0x16
    175a:	ff 88       	ldd	r15, Y+23	; 0x17
		MPU9150_accel_z = allData->MPU9150->accel_z;
    175c:	0c 8d       	ldd	r16, Y+28	; 0x1c
    175e:	1d 8d       	ldd	r17, Y+29	; 0x1d
    1760:	2e 8d       	ldd	r18, Y+30	; 0x1e
    1762:	3f 8d       	ldd	r19, Y+31	; 0x1f
		MPU9150_gyro_x = allData->MPU9150->gyro_y;
    1764:	88 a5       	ldd	r24, Y+40	; 0x28
    1766:	99 a5       	ldd	r25, Y+41	; 0x29
    1768:	aa a5       	ldd	r26, Y+42	; 0x2a
    176a:	bb a5       	ldd	r27, Y+43	; 0x2b
		MPU9150_gyro_y = allData->MPU9150->gyro_x;
    176c:	8c a0       	ldd	r8, Y+36	; 0x24
    176e:	9d a0       	ldd	r9, Y+37	; 0x25
    1770:	ae a0       	ldd	r10, Y+38	; 0x26
    1772:	bf a0       	ldd	r11, Y+39	; 0x27
		MPU9150_gyro_z = allData->MPU9150->gyro_z;
    1774:	4c a4       	ldd	r4, Y+44	; 0x2c
    1776:	5d a4       	ldd	r5, Y+45	; 0x2d
    1778:	6e a4       	ldd	r6, Y+46	; 0x2e
    177a:	7f a4       	ldd	r7, Y+47	; 0x2f
		LSM9DS0_gyro_y = allData->LSM9DS0->gyro_x;
		LSM9DS0_gyro_z = allData->LSM9DS0->gyro_z;
		LIS331HH_accel_x = allData->LIS331HH->accel_y;
		LIS331HH_accel_y = allData->LIS331HH->accel_x;
		LIS331HH_accel_z = allData->LIS331HH->accel_z;
		break;
    177c:	1a c0       	rjmp	.+52     	; 0x17b2 <SensorDataFusion+0xd6>
		case 3: //-----Z sensor = main axis
		MPU9150_accel_x = allData->MPU9150->accel_z;
    177e:	c0 81       	ld	r28, Z
    1780:	d1 81       	ldd	r29, Z+1	; 0x01
    1782:	4c 8d       	ldd	r20, Y+28	; 0x1c
    1784:	5d 8d       	ldd	r21, Y+29	; 0x1d
    1786:	6e 8d       	ldd	r22, Y+30	; 0x1e
    1788:	7f 8d       	ldd	r23, Y+31	; 0x1f
		MPU9150_accel_y = allData->MPU9150->accel_y;
    178a:	c8 8c       	ldd	r12, Y+24	; 0x18
    178c:	d9 8c       	ldd	r13, Y+25	; 0x19
    178e:	ea 8c       	ldd	r14, Y+26	; 0x1a
    1790:	fb 8c       	ldd	r15, Y+27	; 0x1b
		MPU9150_accel_z = allData->MPU9150->accel_x;
    1792:	0c 89       	ldd	r16, Y+20	; 0x14
    1794:	1d 89       	ldd	r17, Y+21	; 0x15
    1796:	2e 89       	ldd	r18, Y+22	; 0x16
    1798:	3f 89       	ldd	r19, Y+23	; 0x17
		MPU9150_gyro_x = allData->MPU9150->gyro_z;
    179a:	8c a5       	ldd	r24, Y+44	; 0x2c
    179c:	9d a5       	ldd	r25, Y+45	; 0x2d
    179e:	ae a5       	ldd	r26, Y+46	; 0x2e
    17a0:	bf a5       	ldd	r27, Y+47	; 0x2f
		MPU9150_gyro_y = allData->MPU9150->gyro_y;
    17a2:	88 a4       	ldd	r8, Y+40	; 0x28
    17a4:	99 a4       	ldd	r9, Y+41	; 0x29
    17a6:	aa a4       	ldd	r10, Y+42	; 0x2a
    17a8:	bb a4       	ldd	r11, Y+43	; 0x2b
		MPU9150_gyro_z = allData->MPU9150->gyro_x;
    17aa:	4c a0       	ldd	r4, Y+36	; 0x24
    17ac:	5d a0       	ldd	r5, Y+37	; 0x25
    17ae:	6e a0       	ldd	r6, Y+38	; 0x26
    17b0:	7f a0       	ldd	r7, Y+39	; 0x27
		LIS331HH_accel_y = allData->LIS331HH->accel_y;
		LIS331HH_accel_z = allData->LIS331HH->accel_x;
		break;
	}
	// Rotate vector if up side down
	if(allData->boardOrient->invert){
    17b2:	e1 01       	movw	r28, r2
    17b4:	39 80       	ldd	r3, Y+1	; 0x01
    17b6:	33 20       	and	r3, r3
    17b8:	11 f0       	breq	.+4      	; 0x17be <SensorDataFusion+0xe2>
		MPU9150_accel_x = -MPU9150_accel_x;
    17ba:	70 58       	subi	r23, 0x80	; 128
		MPU9150_gyro_x = -MPU9150_gyro_x;
    17bc:	b0 58       	subi	r27, 0x80	; 128
	}
	//-----Sensor fusion---------------------------------------
	// Tu bd dzia si czary
	// Tymczsowo zwyke przepisanie zmiennych
	// Doda odejmowanie grawitacji
	allData->SensorsData->accel_x = MPU9150_accel_x;
    17be:	c6 85       	ldd	r28, Z+14	; 0x0e
    17c0:	d7 85       	ldd	r29, Z+15	; 0x0f
    17c2:	48 83       	st	Y, r20
    17c4:	59 83       	std	Y+1, r21	; 0x01
    17c6:	6a 83       	std	Y+2, r22	; 0x02
    17c8:	7b 83       	std	Y+3, r23	; 0x03
	allData->SensorsData->accel_y = MPU9150_accel_y;
    17ca:	c6 85       	ldd	r28, Z+14	; 0x0e
    17cc:	d7 85       	ldd	r29, Z+15	; 0x0f
    17ce:	cc 82       	std	Y+4, r12	; 0x04
    17d0:	dd 82       	std	Y+5, r13	; 0x05
    17d2:	ee 82       	std	Y+6, r14	; 0x06
    17d4:	ff 82       	std	Y+7, r15	; 0x07
	allData->SensorsData->accel_z = MPU9150_accel_z;
    17d6:	c6 85       	ldd	r28, Z+14	; 0x0e
    17d8:	d7 85       	ldd	r29, Z+15	; 0x0f
    17da:	08 87       	std	Y+8, r16	; 0x08
    17dc:	19 87       	std	Y+9, r17	; 0x09
    17de:	2a 87       	std	Y+10, r18	; 0x0a
    17e0:	3b 87       	std	Y+11, r19	; 0x0b
	allData->SensorsData->gyro_x = MPU9150_gyro_x;
    17e2:	c6 85       	ldd	r28, Z+14	; 0x0e
    17e4:	d7 85       	ldd	r29, Z+15	; 0x0f
    17e6:	88 a3       	std	Y+32, r24	; 0x20
    17e8:	99 a3       	std	Y+33, r25	; 0x21
    17ea:	aa a3       	std	Y+34, r26	; 0x22
    17ec:	bb a3       	std	Y+35, r27	; 0x23
	allData->SensorsData->gyro_y = MPU9150_gyro_y;
    17ee:	a6 85       	ldd	r26, Z+14	; 0x0e
    17f0:	b7 85       	ldd	r27, Z+15	; 0x0f
    17f2:	94 96       	adiw	r26, 0x24	; 36
    17f4:	8d 92       	st	X+, r8
    17f6:	9d 92       	st	X+, r9
    17f8:	ad 92       	st	X+, r10
    17fa:	bc 92       	st	X, r11
    17fc:	97 97       	sbiw	r26, 0x27	; 39
	allData->SensorsData->gyro_z = MPU9150_gyro_z;
    17fe:	a6 85       	ldd	r26, Z+14	; 0x0e
    1800:	b7 85       	ldd	r27, Z+15	; 0x0f
    1802:	98 96       	adiw	r26, 0x28	; 40
    1804:	4d 92       	st	X+, r4
    1806:	5d 92       	st	X+, r5
    1808:	6d 92       	st	X+, r6
    180a:	7c 92       	st	X, r7
    180c:	9b 97       	sbiw	r26, 0x2b	; 43
	allData->SensorsData->altitude = allData->LPS25H->altitude;
    180e:	a6 85       	ldd	r26, Z+14	; 0x0e
    1810:	b7 85       	ldd	r27, Z+15	; 0x0f
    1812:	c4 81       	ldd	r28, Z+4	; 0x04
    1814:	d5 81       	ldd	r29, Z+5	; 0x05
    1816:	4a 89       	ldd	r20, Y+18	; 0x12
    1818:	5b 89       	ldd	r21, Y+19	; 0x13
    181a:	6c 89       	ldd	r22, Y+20	; 0x14
    181c:	7d 89       	ldd	r23, Y+21	; 0x15
    181e:	54 96       	adiw	r26, 0x14	; 20
    1820:	4d 93       	st	X+, r20
    1822:	5d 93       	st	X+, r21
    1824:	6d 93       	st	X+, r22
    1826:	7c 93       	st	X, r23
    1828:	57 97       	sbiw	r26, 0x17	; 23
	allData->SensorsData->ascentVelo = allData->LPS25H->velocity;
    182a:	a6 85       	ldd	r26, Z+14	; 0x0e
    182c:	b7 85       	ldd	r27, Z+15	; 0x0f
    182e:	04 80       	ldd	r0, Z+4	; 0x04
    1830:	f5 81       	ldd	r31, Z+5	; 0x05
    1832:	e0 2d       	mov	r30, r0
    1834:	42 8d       	ldd	r20, Z+26	; 0x1a
    1836:	53 8d       	ldd	r21, Z+27	; 0x1b
    1838:	64 8d       	ldd	r22, Z+28	; 0x1c
    183a:	75 8d       	ldd	r23, Z+29	; 0x1d
    183c:	50 96       	adiw	r26, 0x10	; 16
    183e:	4d 93       	st	X+, r20
    1840:	5d 93       	st	X+, r21
    1842:	6d 93       	st	X+, r22
    1844:	7c 93       	st	X, r23
    1846:	53 97       	sbiw	r26, 0x13	; 19
}
    1848:	df 91       	pop	r29
    184a:	cf 91       	pop	r28
    184c:	1f 91       	pop	r17
    184e:	0f 91       	pop	r16
    1850:	ff 90       	pop	r15
    1852:	ef 90       	pop	r14
    1854:	df 90       	pop	r13
    1856:	cf 90       	pop	r12
    1858:	bf 90       	pop	r11
    185a:	af 90       	pop	r10
    185c:	9f 90       	pop	r9
    185e:	8f 90       	pop	r8
    1860:	7f 90       	pop	r7
    1862:	6f 90       	pop	r6
    1864:	5f 90       	pop	r5
    1866:	4f 90       	pop	r4
    1868:	3f 90       	pop	r3
    186a:	2f 90       	pop	r2
    186c:	08 95       	ret

0000186e <DetectInitOrientation>:
    if((!(PORTE.IN & PIN0_bm)) && (!(PORTE.IN & PIN1_bm))) InitMemoryErase();
    //-----------------Odczyt z pamici i wysanie po Xbee-----------
    else if(!(PORTE.IN & PIN1_bm)) InitMemoryRead();
}

bool DetectInitOrientation(allData_t * allData){
    186e:	2f 92       	push	r2
    1870:	3f 92       	push	r3
    1872:	4f 92       	push	r4
    1874:	5f 92       	push	r5
    1876:	6f 92       	push	r6
    1878:	7f 92       	push	r7
    187a:	8f 92       	push	r8
    187c:	9f 92       	push	r9
    187e:	af 92       	push	r10
    1880:	bf 92       	push	r11
    1882:	cf 92       	push	r12
    1884:	df 92       	push	r13
    1886:	ef 92       	push	r14
    1888:	ff 92       	push	r15
    188a:	0f 93       	push	r16
    188c:	1f 93       	push	r17
    188e:	cf 93       	push	r28
    1890:	df 93       	push	r29
    1892:	cd b7       	in	r28, 0x3d	; 61
    1894:	de b7       	in	r29, 0x3e	; 62
    1896:	a0 97       	sbiw	r28, 0x20	; 32
    1898:	cd bf       	out	0x3d, r28	; 61
    189a:	de bf       	out	0x3e, r29	; 62
    189c:	1c 01       	movw	r2, r24
	//napisa funkcj wykrywajc orientacj na starcie
	//----Local variable------------------------------------------------
	volatile float accTotal = 0;
    189e:	19 82       	std	Y+1, r1	; 0x01
    18a0:	1a 82       	std	Y+2, r1	; 0x02
    18a2:	1b 82       	std	Y+3, r1	; 0x03
    18a4:	1c 82       	std	Y+4, r1	; 0x04
	volatile float mean_accX = 0;
    18a6:	1d 82       	std	Y+5, r1	; 0x05
    18a8:	1e 82       	std	Y+6, r1	; 0x06
    18aa:	1f 82       	std	Y+7, r1	; 0x07
    18ac:	18 86       	std	Y+8, r1	; 0x08
	volatile float mean_accY = 0;
    18ae:	19 86       	std	Y+9, r1	; 0x09
    18b0:	1a 86       	std	Y+10, r1	; 0x0a
    18b2:	1b 86       	std	Y+11, r1	; 0x0b
    18b4:	1c 86       	std	Y+12, r1	; 0x0c
	volatile float mean_accZ = 0;
    18b6:	1d 86       	std	Y+13, r1	; 0x0d
    18b8:	1e 86       	std	Y+14, r1	; 0x0e
    18ba:	1f 86       	std	Y+15, r1	; 0x0f
    18bc:	18 8a       	std	Y+16, r1	; 0x10
	volatile float abs_mean_accX = 0;
    18be:	19 8a       	std	Y+17, r1	; 0x11
    18c0:	1a 8a       	std	Y+18, r1	; 0x12
    18c2:	1b 8a       	std	Y+19, r1	; 0x13
    18c4:	1c 8a       	std	Y+20, r1	; 0x14
	volatile float abs_mean_accY = 0;
    18c6:	1d 8a       	std	Y+21, r1	; 0x15
    18c8:	1e 8a       	std	Y+22, r1	; 0x16
    18ca:	1f 8a       	std	Y+23, r1	; 0x17
    18cc:	18 8e       	std	Y+24, r1	; 0x18
	volatile float abs_mean_accZ = 0;
    18ce:	19 8e       	std	Y+25, r1	; 0x19
    18d0:	1a 8e       	std	Y+26, r1	; 0x1a
    18d2:	1b 8e       	std	Y+27, r1	; 0x1b
    18d4:	1c 8e       	std	Y+28, r1	; 0x1c
	
	//----Attach local pointer to main data struct----------------------
	float * accX = &(allData->SensorsData->accel_x);
    18d6:	dc 01       	movw	r26, r24
    18d8:	1e 96       	adiw	r26, 0x0e	; 14
    18da:	0d 91       	ld	r16, X+
    18dc:	1c 91       	ld	r17, X
    18de:	1f 97       	sbiw	r26, 0x0f	; 15
    18e0:	0f 2e       	mov	r0, r31
    18e2:	f4 e6       	ldi	r31, 0x64	; 100
    18e4:	ff 2e       	mov	r15, r31
    18e6:	f0 2d       	mov	r31, r0
	float * accY = &(allData->SensorsData->accel_y);
	float * accZ = &(allData->SensorsData->accel_z);
	
	//-------Update all sensors data and calculate mean from n sample----
	for(uint8_t i=0;i<100;i++){
		SensorUpdate(&allData_d);
    18e8:	8d ed       	ldi	r24, 0xDD	; 221
    18ea:	99 e2       	ldi	r25, 0x29	; 41
    18ec:	5e db       	rcall	.-2372   	; 0xfaa <SensorUpdate>
		SensorDataFusion(&allData_d);
    18ee:	8d ed       	ldi	r24, 0xDD	; 221
    18f0:	99 e2       	ldi	r25, 0x29	; 41
    18f2:	f4 de       	rcall	.-536    	; 0x16dc <SensorDataFusion>
		mean_accX += *accX;
    18f4:	6d 81       	ldd	r22, Y+5	; 0x05
    18f6:	7e 81       	ldd	r23, Y+6	; 0x06
    18f8:	8f 81       	ldd	r24, Y+7	; 0x07
    18fa:	98 85       	ldd	r25, Y+8	; 0x08
    18fc:	f8 01       	movw	r30, r16
    18fe:	20 81       	ld	r18, Z
    1900:	31 81       	ldd	r19, Z+1	; 0x01
    1902:	42 81       	ldd	r20, Z+2	; 0x02
    1904:	53 81       	ldd	r21, Z+3	; 0x03
    1906:	0e 94 51 19 	call	0x32a2	; 0x32a2 <__addsf3>
    190a:	6d 83       	std	Y+5, r22	; 0x05
    190c:	7e 83       	std	Y+6, r23	; 0x06
    190e:	8f 83       	std	Y+7, r24	; 0x07
    1910:	98 87       	std	Y+8, r25	; 0x08
		mean_accY += *accY;
    1912:	69 85       	ldd	r22, Y+9	; 0x09
    1914:	7a 85       	ldd	r23, Y+10	; 0x0a
    1916:	8b 85       	ldd	r24, Y+11	; 0x0b
    1918:	9c 85       	ldd	r25, Y+12	; 0x0c
    191a:	d8 01       	movw	r26, r16
    191c:	14 96       	adiw	r26, 0x04	; 4
    191e:	2d 91       	ld	r18, X+
    1920:	3d 91       	ld	r19, X+
    1922:	4d 91       	ld	r20, X+
    1924:	5c 91       	ld	r21, X
    1926:	17 97       	sbiw	r26, 0x07	; 7
    1928:	0e 94 51 19 	call	0x32a2	; 0x32a2 <__addsf3>
    192c:	69 87       	std	Y+9, r22	; 0x09
    192e:	7a 87       	std	Y+10, r23	; 0x0a
    1930:	8b 87       	std	Y+11, r24	; 0x0b
    1932:	9c 87       	std	Y+12, r25	; 0x0c
		mean_accZ += *accZ;
    1934:	6d 85       	ldd	r22, Y+13	; 0x0d
    1936:	7e 85       	ldd	r23, Y+14	; 0x0e
    1938:	8f 85       	ldd	r24, Y+15	; 0x0f
    193a:	98 89       	ldd	r25, Y+16	; 0x10
    193c:	f8 01       	movw	r30, r16
    193e:	20 85       	ldd	r18, Z+8	; 0x08
    1940:	31 85       	ldd	r19, Z+9	; 0x09
    1942:	42 85       	ldd	r20, Z+10	; 0x0a
    1944:	53 85       	ldd	r21, Z+11	; 0x0b
    1946:	0e 94 51 19 	call	0x32a2	; 0x32a2 <__addsf3>
    194a:	6d 87       	std	Y+13, r22	; 0x0d
    194c:	7e 87       	std	Y+14, r23	; 0x0e
    194e:	8f 87       	std	Y+15, r24	; 0x0f
    1950:	98 8b       	std	Y+16, r25	; 0x10
    1952:	fa 94       	dec	r15
	float * accX = &(allData->SensorsData->accel_x);
	float * accY = &(allData->SensorsData->accel_y);
	float * accZ = &(allData->SensorsData->accel_z);
	
	//-------Update all sensors data and calculate mean from n sample----
	for(uint8_t i=0;i<100;i++){
    1954:	f1 10       	cpse	r15, r1
    1956:	c8 cf       	rjmp	.-112    	; 0x18e8 <DetectInitOrientation+0x7a>
		SensorDataFusion(&allData_d);
		mean_accX += *accX;
		mean_accY += *accY;
		mean_accZ += *accZ;
	}
	mean_accX /= 100.0;
    1958:	6d 81       	ldd	r22, Y+5	; 0x05
    195a:	7e 81       	ldd	r23, Y+6	; 0x06
    195c:	8f 81       	ldd	r24, Y+7	; 0x07
    195e:	98 85       	ldd	r25, Y+8	; 0x08
    1960:	20 e0       	ldi	r18, 0x00	; 0
    1962:	30 e0       	ldi	r19, 0x00	; 0
    1964:	48 ec       	ldi	r20, 0xC8	; 200
    1966:	52 e4       	ldi	r21, 0x42	; 66
    1968:	0e 94 b9 19 	call	0x3372	; 0x3372 <__divsf3>
    196c:	6d 83       	std	Y+5, r22	; 0x05
    196e:	7e 83       	std	Y+6, r23	; 0x06
    1970:	8f 83       	std	Y+7, r24	; 0x07
    1972:	98 87       	std	Y+8, r25	; 0x08
	mean_accY /= 100.0;
    1974:	69 85       	ldd	r22, Y+9	; 0x09
    1976:	7a 85       	ldd	r23, Y+10	; 0x0a
    1978:	8b 85       	ldd	r24, Y+11	; 0x0b
    197a:	9c 85       	ldd	r25, Y+12	; 0x0c
    197c:	20 e0       	ldi	r18, 0x00	; 0
    197e:	30 e0       	ldi	r19, 0x00	; 0
    1980:	48 ec       	ldi	r20, 0xC8	; 200
    1982:	52 e4       	ldi	r21, 0x42	; 66
    1984:	0e 94 b9 19 	call	0x3372	; 0x3372 <__divsf3>
    1988:	69 87       	std	Y+9, r22	; 0x09
    198a:	7a 87       	std	Y+10, r23	; 0x0a
    198c:	8b 87       	std	Y+11, r24	; 0x0b
    198e:	9c 87       	std	Y+12, r25	; 0x0c
	mean_accZ /= 100.0;
    1990:	6d 85       	ldd	r22, Y+13	; 0x0d
    1992:	7e 85       	ldd	r23, Y+14	; 0x0e
    1994:	8f 85       	ldd	r24, Y+15	; 0x0f
    1996:	98 89       	ldd	r25, Y+16	; 0x10
    1998:	20 e0       	ldi	r18, 0x00	; 0
    199a:	30 e0       	ldi	r19, 0x00	; 0
    199c:	48 ec       	ldi	r20, 0xC8	; 200
    199e:	52 e4       	ldi	r21, 0x42	; 66
    19a0:	0e 94 b9 19 	call	0x3372	; 0x3372 <__divsf3>
    19a4:	6d 87       	std	Y+13, r22	; 0x0d
    19a6:	7e 87       	std	Y+14, r23	; 0x0e
    19a8:	8f 87       	std	Y+15, r24	; 0x0f
    19aa:	98 8b       	std	Y+16, r25	; 0x10
	accTotal = VectorLength3D(*accX, *accY, *accZ);
    19ac:	d8 01       	movw	r26, r16
    19ae:	8d 90       	ld	r8, X+
    19b0:	9d 90       	ld	r9, X+
    19b2:	ad 90       	ld	r10, X+
    19b4:	bc 90       	ld	r11, X
    19b6:	13 97       	sbiw	r26, 0x03	; 3
    19b8:	14 96       	adiw	r26, 0x04	; 4
    19ba:	cd 90       	ld	r12, X+
    19bc:	dd 90       	ld	r13, X+
    19be:	ed 90       	ld	r14, X+
    19c0:	fc 90       	ld	r15, X
    19c2:	17 97       	sbiw	r26, 0x07	; 7
    19c4:	18 96       	adiw	r26, 0x08	; 8
    19c6:	4d 90       	ld	r4, X+
    19c8:	5d 90       	ld	r5, X+
    19ca:	6d 90       	ld	r6, X+
    19cc:	7c 90       	ld	r7, X
    19ce:	1b 97       	sbiw	r26, 0x0b	; 11
    19d0:	a5 01       	movw	r20, r10
    19d2:	94 01       	movw	r18, r8
    19d4:	c5 01       	movw	r24, r10
    19d6:	b4 01       	movw	r22, r8
    19d8:	0e 94 48 1b 	call	0x3690	; 0x3690 <__mulsf3>
    19dc:	6d 8f       	std	Y+29, r22	; 0x1d
    19de:	7e 8f       	std	Y+30, r23	; 0x1e
    19e0:	8f 8f       	std	Y+31, r24	; 0x1f
    19e2:	98 a3       	std	Y+32, r25	; 0x20
    19e4:	a7 01       	movw	r20, r14
    19e6:	96 01       	movw	r18, r12
    19e8:	c7 01       	movw	r24, r14
    19ea:	b6 01       	movw	r22, r12
    19ec:	0e 94 48 1b 	call	0x3690	; 0x3690 <__mulsf3>
    19f0:	9b 01       	movw	r18, r22
    19f2:	ac 01       	movw	r20, r24
    19f4:	6d 8d       	ldd	r22, Y+29	; 0x1d
    19f6:	7e 8d       	ldd	r23, Y+30	; 0x1e
    19f8:	8f 8d       	ldd	r24, Y+31	; 0x1f
    19fa:	98 a1       	ldd	r25, Y+32	; 0x20
    19fc:	0e 94 51 19 	call	0x32a2	; 0x32a2 <__addsf3>
    1a00:	6d 8f       	std	Y+29, r22	; 0x1d
    1a02:	7e 8f       	std	Y+30, r23	; 0x1e
    1a04:	8f 8f       	std	Y+31, r24	; 0x1f
    1a06:	98 a3       	std	Y+32, r25	; 0x20
    1a08:	a5 01       	movw	r20, r10
    1a0a:	94 01       	movw	r18, r8
    1a0c:	c5 01       	movw	r24, r10
    1a0e:	b4 01       	movw	r22, r8
    1a10:	0e 94 48 1b 	call	0x3690	; 0x3690 <__mulsf3>
    1a14:	4b 01       	movw	r8, r22
    1a16:	5c 01       	movw	r10, r24
    1a18:	a7 01       	movw	r20, r14
    1a1a:	96 01       	movw	r18, r12
    1a1c:	c7 01       	movw	r24, r14
    1a1e:	b6 01       	movw	r22, r12
    1a20:	0e 94 48 1b 	call	0x3690	; 0x3690 <__mulsf3>
    1a24:	9b 01       	movw	r18, r22
    1a26:	ac 01       	movw	r20, r24
    1a28:	c5 01       	movw	r24, r10
    1a2a:	b4 01       	movw	r22, r8
    1a2c:	0e 94 51 19 	call	0x32a2	; 0x32a2 <__addsf3>
    1a30:	6b 01       	movw	r12, r22
    1a32:	7c 01       	movw	r14, r24
    1a34:	a3 01       	movw	r20, r6
    1a36:	92 01       	movw	r18, r4
    1a38:	c3 01       	movw	r24, r6
    1a3a:	b2 01       	movw	r22, r4
    1a3c:	0e 94 48 1b 	call	0x3690	; 0x3690 <__mulsf3>
    1a40:	9b 01       	movw	r18, r22
    1a42:	ac 01       	movw	r20, r24
    1a44:	c7 01       	movw	r24, r14
    1a46:	b6 01       	movw	r22, r12
    1a48:	0e 94 51 19 	call	0x32a2	; 0x32a2 <__addsf3>
    1a4c:	0e 94 fb 1b 	call	0x37f6	; 0x37f6 <sqrt>
    1a50:	69 83       	std	Y+1, r22	; 0x01
    1a52:	7a 83       	std	Y+2, r23	; 0x02
    1a54:	8b 83       	std	Y+3, r24	; 0x03
    1a56:	9c 83       	std	Y+4, r25	; 0x04
	abs_mean_accX = fabs(mean_accX);
    1a58:	8d 81       	ldd	r24, Y+5	; 0x05
    1a5a:	9e 81       	ldd	r25, Y+6	; 0x06
    1a5c:	af 81       	ldd	r26, Y+7	; 0x07
    1a5e:	b8 85       	ldd	r27, Y+8	; 0x08
    1a60:	bf 77       	andi	r27, 0x7F	; 127
    1a62:	89 8b       	std	Y+17, r24	; 0x11
    1a64:	9a 8b       	std	Y+18, r25	; 0x12
    1a66:	ab 8b       	std	Y+19, r26	; 0x13
    1a68:	bc 8b       	std	Y+20, r27	; 0x14
	abs_mean_accY = fabs(mean_accY);
    1a6a:	89 85       	ldd	r24, Y+9	; 0x09
    1a6c:	9a 85       	ldd	r25, Y+10	; 0x0a
    1a6e:	ab 85       	ldd	r26, Y+11	; 0x0b
    1a70:	bc 85       	ldd	r27, Y+12	; 0x0c
    1a72:	bf 77       	andi	r27, 0x7F	; 127
    1a74:	8d 8b       	std	Y+21, r24	; 0x15
    1a76:	9e 8b       	std	Y+22, r25	; 0x16
    1a78:	af 8b       	std	Y+23, r26	; 0x17
    1a7a:	b8 8f       	std	Y+24, r27	; 0x18
	abs_mean_accZ = fabs(mean_accZ);
    1a7c:	8d 85       	ldd	r24, Y+13	; 0x0d
    1a7e:	9e 85       	ldd	r25, Y+14	; 0x0e
    1a80:	af 85       	ldd	r26, Y+15	; 0x0f
    1a82:	b8 89       	ldd	r27, Y+16	; 0x10
    1a84:	bf 77       	andi	r27, 0x7F	; 127
    1a86:	89 8f       	std	Y+25, r24	; 0x19
    1a88:	9a 8f       	std	Y+26, r25	; 0x1a
    1a8a:	ab 8f       	std	Y+27, r26	; 0x1b
    1a8c:	bc 8f       	std	Y+28, r27	; 0x1c
	
	//-------Check for errors---------------------------------------------	//moe warto da powtrny pomiar?
	if((abs(accTotal) < 0.9) || (abs(accTotal) > 1.1)) return 1;
    1a8e:	69 81       	ldd	r22, Y+1	; 0x01
    1a90:	7a 81       	ldd	r23, Y+2	; 0x02
    1a92:	8b 81       	ldd	r24, Y+3	; 0x03
    1a94:	9c 81       	ldd	r25, Y+4	; 0x04
    1a96:	0e 94 21 1a 	call	0x3442	; 0x3442 <__fixsfsi>
    1a9a:	9b 01       	movw	r18, r22
    1a9c:	77 23       	and	r23, r23
    1a9e:	24 f4       	brge	.+8      	; 0x1aa8 <DetectInitOrientation+0x23a>
    1aa0:	22 27       	eor	r18, r18
    1aa2:	33 27       	eor	r19, r19
    1aa4:	26 1b       	sub	r18, r22
    1aa6:	37 0b       	sbc	r19, r23
    1aa8:	b9 01       	movw	r22, r18
    1aaa:	33 0f       	add	r19, r19
    1aac:	88 0b       	sbc	r24, r24
    1aae:	99 0b       	sbc	r25, r25
    1ab0:	0e 94 54 1a 	call	0x34a8	; 0x34a8 <__floatsisf>
    1ab4:	26 e6       	ldi	r18, 0x66	; 102
    1ab6:	36 e6       	ldi	r19, 0x66	; 102
    1ab8:	46 e6       	ldi	r20, 0x66	; 102
    1aba:	5f e3       	ldi	r21, 0x3F	; 63
    1abc:	0e 94 b5 19 	call	0x336a	; 0x336a <__cmpsf2>
    1ac0:	88 23       	and	r24, r24
    1ac2:	0c f4       	brge	.+2      	; 0x1ac6 <DetectInitOrientation+0x258>
    1ac4:	ae c0       	rjmp	.+348    	; 0x1c22 <DetectInitOrientation+0x3b4>
    1ac6:	69 81       	ldd	r22, Y+1	; 0x01
    1ac8:	7a 81       	ldd	r23, Y+2	; 0x02
    1aca:	8b 81       	ldd	r24, Y+3	; 0x03
    1acc:	9c 81       	ldd	r25, Y+4	; 0x04
    1ace:	0e 94 21 1a 	call	0x3442	; 0x3442 <__fixsfsi>
    1ad2:	9b 01       	movw	r18, r22
    1ad4:	77 23       	and	r23, r23
    1ad6:	24 f4       	brge	.+8      	; 0x1ae0 <DetectInitOrientation+0x272>
    1ad8:	22 27       	eor	r18, r18
    1ada:	33 27       	eor	r19, r19
    1adc:	26 1b       	sub	r18, r22
    1ade:	37 0b       	sbc	r19, r23
    1ae0:	b9 01       	movw	r22, r18
    1ae2:	33 0f       	add	r19, r19
    1ae4:	88 0b       	sbc	r24, r24
    1ae6:	99 0b       	sbc	r25, r25
    1ae8:	0e 94 54 1a 	call	0x34a8	; 0x34a8 <__floatsisf>
    1aec:	2d ec       	ldi	r18, 0xCD	; 205
    1aee:	3c ec       	ldi	r19, 0xCC	; 204
    1af0:	4c e8       	ldi	r20, 0x8C	; 140
    1af2:	5f e3       	ldi	r21, 0x3F	; 63
    1af4:	0e 94 44 1b 	call	0x3688	; 0x3688 <__gesf2>
    1af8:	18 16       	cp	r1, r24
    1afa:	0c f4       	brge	.+2      	; 0x1afe <DetectInitOrientation+0x290>
    1afc:	94 c0       	rjmp	.+296    	; 0x1c26 <DetectInitOrientation+0x3b8>
	
	//-------Determine main orientation-----------------------------------
	if((abs_mean_accX > abs_mean_accY) && (abs_mean_accX > abs_mean_accZ)) allData->boardOrient->config = 1;		//X axis = main
    1afe:	69 89       	ldd	r22, Y+17	; 0x11
    1b00:	7a 89       	ldd	r23, Y+18	; 0x12
    1b02:	8b 89       	ldd	r24, Y+19	; 0x13
    1b04:	9c 89       	ldd	r25, Y+20	; 0x14
    1b06:	2d 89       	ldd	r18, Y+21	; 0x15
    1b08:	3e 89       	ldd	r19, Y+22	; 0x16
    1b0a:	4f 89       	ldd	r20, Y+23	; 0x17
    1b0c:	58 8d       	ldd	r21, Y+24	; 0x18
    1b0e:	0e 94 44 1b 	call	0x3688	; 0x3688 <__gesf2>
    1b12:	18 16       	cp	r1, r24
    1b14:	a4 f4       	brge	.+40     	; 0x1b3e <DetectInitOrientation+0x2d0>
    1b16:	69 89       	ldd	r22, Y+17	; 0x11
    1b18:	7a 89       	ldd	r23, Y+18	; 0x12
    1b1a:	8b 89       	ldd	r24, Y+19	; 0x13
    1b1c:	9c 89       	ldd	r25, Y+20	; 0x14
    1b1e:	29 8d       	ldd	r18, Y+25	; 0x19
    1b20:	3a 8d       	ldd	r19, Y+26	; 0x1a
    1b22:	4b 8d       	ldd	r20, Y+27	; 0x1b
    1b24:	5c 8d       	ldd	r21, Y+28	; 0x1c
    1b26:	0e 94 44 1b 	call	0x3688	; 0x3688 <__gesf2>
    1b2a:	18 16       	cp	r1, r24
    1b2c:	44 f4       	brge	.+16     	; 0x1b3e <DetectInitOrientation+0x2d0>
    1b2e:	d1 01       	movw	r26, r2
    1b30:	54 96       	adiw	r26, 0x14	; 20
    1b32:	ed 91       	ld	r30, X+
    1b34:	fc 91       	ld	r31, X
    1b36:	55 97       	sbiw	r26, 0x15	; 21
    1b38:	81 e0       	ldi	r24, 0x01	; 1
    1b3a:	80 83       	st	Z, r24
    1b3c:	27 c0       	rjmp	.+78     	; 0x1b8c <DetectInitOrientation+0x31e>
	else if((abs_mean_accY > abs_mean_accX) && (abs_mean_accY > abs_mean_accZ)) allData->boardOrient->config = 2;	//Y axis = main
    1b3e:	6d 89       	ldd	r22, Y+21	; 0x15
    1b40:	7e 89       	ldd	r23, Y+22	; 0x16
    1b42:	8f 89       	ldd	r24, Y+23	; 0x17
    1b44:	98 8d       	ldd	r25, Y+24	; 0x18
    1b46:	29 89       	ldd	r18, Y+17	; 0x11
    1b48:	3a 89       	ldd	r19, Y+18	; 0x12
    1b4a:	4b 89       	ldd	r20, Y+19	; 0x13
    1b4c:	5c 89       	ldd	r21, Y+20	; 0x14
    1b4e:	0e 94 44 1b 	call	0x3688	; 0x3688 <__gesf2>
    1b52:	18 16       	cp	r1, r24
    1b54:	a4 f4       	brge	.+40     	; 0x1b7e <DetectInitOrientation+0x310>
    1b56:	6d 89       	ldd	r22, Y+21	; 0x15
    1b58:	7e 89       	ldd	r23, Y+22	; 0x16
    1b5a:	8f 89       	ldd	r24, Y+23	; 0x17
    1b5c:	98 8d       	ldd	r25, Y+24	; 0x18
    1b5e:	29 8d       	ldd	r18, Y+25	; 0x19
    1b60:	3a 8d       	ldd	r19, Y+26	; 0x1a
    1b62:	4b 8d       	ldd	r20, Y+27	; 0x1b
    1b64:	5c 8d       	ldd	r21, Y+28	; 0x1c
    1b66:	0e 94 44 1b 	call	0x3688	; 0x3688 <__gesf2>
    1b6a:	18 16       	cp	r1, r24
    1b6c:	44 f4       	brge	.+16     	; 0x1b7e <DetectInitOrientation+0x310>
    1b6e:	d1 01       	movw	r26, r2
    1b70:	54 96       	adiw	r26, 0x14	; 20
    1b72:	ed 91       	ld	r30, X+
    1b74:	fc 91       	ld	r31, X
    1b76:	55 97       	sbiw	r26, 0x15	; 21
    1b78:	82 e0       	ldi	r24, 0x02	; 2
    1b7a:	80 83       	st	Z, r24
    1b7c:	07 c0       	rjmp	.+14     	; 0x1b8c <DetectInitOrientation+0x31e>
	else allData->boardOrient->config = 3;																			//Z axis = main
    1b7e:	d1 01       	movw	r26, r2
    1b80:	54 96       	adiw	r26, 0x14	; 20
    1b82:	ed 91       	ld	r30, X+
    1b84:	fc 91       	ld	r31, X
    1b86:	55 97       	sbiw	r26, 0x15	; 21
    1b88:	83 e0       	ldi	r24, 0x03	; 3
    1b8a:	80 83       	st	Z, r24
	
	switch(allData->boardOrient->config){
    1b8c:	f1 01       	movw	r30, r2
    1b8e:	04 89       	ldd	r16, Z+20	; 0x14
    1b90:	15 89       	ldd	r17, Z+21	; 0x15
    1b92:	d8 01       	movw	r26, r16
    1b94:	8c 91       	ld	r24, X
    1b96:	82 30       	cpi	r24, 0x02	; 2
    1b98:	a1 f0       	breq	.+40     	; 0x1bc2 <DetectInitOrientation+0x354>
    1b9a:	83 30       	cpi	r24, 0x03	; 3
    1b9c:	19 f1       	breq	.+70     	; 0x1be4 <DetectInitOrientation+0x376>
    1b9e:	81 30       	cpi	r24, 0x01	; 1
    1ba0:	81 f5       	brne	.+96     	; 0x1c02 <DetectInitOrientation+0x394>
		case 1: if(mean_accX < 0.1) allData->boardOrient->invert = true; break;
    1ba2:	6d 81       	ldd	r22, Y+5	; 0x05
    1ba4:	7e 81       	ldd	r23, Y+6	; 0x06
    1ba6:	8f 81       	ldd	r24, Y+7	; 0x07
    1ba8:	98 85       	ldd	r25, Y+8	; 0x08
    1baa:	2d ec       	ldi	r18, 0xCD	; 205
    1bac:	3c ec       	ldi	r19, 0xCC	; 204
    1bae:	4c ec       	ldi	r20, 0xCC	; 204
    1bb0:	5d e3       	ldi	r21, 0x3D	; 61
    1bb2:	0e 94 b5 19 	call	0x336a	; 0x336a <__cmpsf2>
    1bb6:	88 23       	and	r24, r24
    1bb8:	24 f5       	brge	.+72     	; 0x1c02 <DetectInitOrientation+0x394>
    1bba:	81 e0       	ldi	r24, 0x01	; 1
    1bbc:	f8 01       	movw	r30, r16
    1bbe:	81 83       	std	Z+1, r24	; 0x01
    1bc0:	20 c0       	rjmp	.+64     	; 0x1c02 <DetectInitOrientation+0x394>
		case 2: if(mean_accY < 0.1) allData->boardOrient->invert = true; break;
    1bc2:	69 85       	ldd	r22, Y+9	; 0x09
    1bc4:	7a 85       	ldd	r23, Y+10	; 0x0a
    1bc6:	8b 85       	ldd	r24, Y+11	; 0x0b
    1bc8:	9c 85       	ldd	r25, Y+12	; 0x0c
    1bca:	2d ec       	ldi	r18, 0xCD	; 205
    1bcc:	3c ec       	ldi	r19, 0xCC	; 204
    1bce:	4c ec       	ldi	r20, 0xCC	; 204
    1bd0:	5d e3       	ldi	r21, 0x3D	; 61
    1bd2:	0e 94 b5 19 	call	0x336a	; 0x336a <__cmpsf2>
    1bd6:	88 23       	and	r24, r24
    1bd8:	a4 f4       	brge	.+40     	; 0x1c02 <DetectInitOrientation+0x394>
    1bda:	81 e0       	ldi	r24, 0x01	; 1
    1bdc:	d8 01       	movw	r26, r16
    1bde:	11 96       	adiw	r26, 0x01	; 1
    1be0:	8c 93       	st	X, r24
    1be2:	0f c0       	rjmp	.+30     	; 0x1c02 <DetectInitOrientation+0x394>
		case 3: if(mean_accZ < 0.1) allData->boardOrient->invert = true; break;
    1be4:	6d 85       	ldd	r22, Y+13	; 0x0d
    1be6:	7e 85       	ldd	r23, Y+14	; 0x0e
    1be8:	8f 85       	ldd	r24, Y+15	; 0x0f
    1bea:	98 89       	ldd	r25, Y+16	; 0x10
    1bec:	2d ec       	ldi	r18, 0xCD	; 205
    1bee:	3c ec       	ldi	r19, 0xCC	; 204
    1bf0:	4c ec       	ldi	r20, 0xCC	; 204
    1bf2:	5d e3       	ldi	r21, 0x3D	; 61
    1bf4:	0e 94 b5 19 	call	0x336a	; 0x336a <__cmpsf2>
    1bf8:	88 23       	and	r24, r24
    1bfa:	1c f4       	brge	.+6      	; 0x1c02 <DetectInitOrientation+0x394>
    1bfc:	81 e0       	ldi	r24, 0x01	; 1
    1bfe:	f8 01       	movw	r30, r16
    1c00:	81 83       	std	Z+1, r24	; 0x01
	}
	
	//-------Calculate launchpad angle------------------------------------
	MinAngleVector3D(abs_mean_accX, abs_mean_accY, abs_mean_accZ);
    1c02:	e9 8c       	ldd	r14, Y+25	; 0x19
    1c04:	fa 8c       	ldd	r15, Y+26	; 0x1a
    1c06:	0b 8d       	ldd	r16, Y+27	; 0x1b
    1c08:	1c 8d       	ldd	r17, Y+28	; 0x1c
    1c0a:	2d 89       	ldd	r18, Y+21	; 0x15
    1c0c:	3e 89       	ldd	r19, Y+22	; 0x16
    1c0e:	4f 89       	ldd	r20, Y+23	; 0x17
    1c10:	58 8d       	ldd	r21, Y+24	; 0x18
    1c12:	69 89       	ldd	r22, Y+17	; 0x11
    1c14:	7a 89       	ldd	r23, Y+18	; 0x12
    1c16:	8b 89       	ldd	r24, Y+19	; 0x13
    1c18:	9c 89       	ldd	r25, Y+20	; 0x14
    1c1a:	0e 94 39 18 	call	0x3072	; 0x3072 <MinAngleVector3D>
	return 0;
    1c1e:	80 e0       	ldi	r24, 0x00	; 0
    1c20:	03 c0       	rjmp	.+6      	; 0x1c28 <DetectInitOrientation+0x3ba>
	abs_mean_accX = fabs(mean_accX);
	abs_mean_accY = fabs(mean_accY);
	abs_mean_accZ = fabs(mean_accZ);
	
	//-------Check for errors---------------------------------------------	//moe warto da powtrny pomiar?
	if((abs(accTotal) < 0.9) || (abs(accTotal) > 1.1)) return 1;
    1c22:	81 e0       	ldi	r24, 0x01	; 1
    1c24:	01 c0       	rjmp	.+2      	; 0x1c28 <DetectInitOrientation+0x3ba>
    1c26:	81 e0       	ldi	r24, 0x01	; 1
	}
	
	//-------Calculate launchpad angle------------------------------------
	MinAngleVector3D(abs_mean_accX, abs_mean_accY, abs_mean_accZ);
	return 0;
}
    1c28:	a0 96       	adiw	r28, 0x20	; 32
    1c2a:	cd bf       	out	0x3d, r28	; 61
    1c2c:	de bf       	out	0x3e, r29	; 62
    1c2e:	df 91       	pop	r29
    1c30:	cf 91       	pop	r28
    1c32:	1f 91       	pop	r17
    1c34:	0f 91       	pop	r16
    1c36:	ff 90       	pop	r15
    1c38:	ef 90       	pop	r14
    1c3a:	df 90       	pop	r13
    1c3c:	cf 90       	pop	r12
    1c3e:	bf 90       	pop	r11
    1c40:	af 90       	pop	r10
    1c42:	9f 90       	pop	r9
    1c44:	8f 90       	pop	r8
    1c46:	7f 90       	pop	r7
    1c48:	6f 90       	pop	r6
    1c4a:	5f 90       	pop	r5
    1c4c:	4f 90       	pop	r4
    1c4e:	3f 90       	pop	r3
    1c50:	2f 90       	pop	r2
    1c52:	08 95       	ret

00001c54 <CalibrationStart>:
	allData->SensorsData->altitude = allData->LPS25H->altitude;
	allData->SensorsData->ascentVelo = allData->LPS25H->velocity;
}

void CalibrationStart() {
    Calibration_d.counter = 0;
    1c54:	e7 e2       	ldi	r30, 0x27	; 39
    1c56:	f3 e2       	ldi	r31, 0x23	; 35
    1c58:	10 a2       	std	Z+32, r1	; 0x20
    1c5a:	11 a2       	std	Z+33, r1	; 0x21
    Calibration_d.trigger = true;		//zdalna kalibracja czujnikw
    1c5c:	81 e0       	ldi	r24, 0x01	; 1
    1c5e:	82 a3       	std	Z+34, r24	; 0x22
    stan_d.callibration = true;
    1c60:	80 93 17 29 	sts	0x2917, r24	; 0x802917 <stan_d+0x3>
    1c64:	08 95       	ret

00001c66 <main>:
}

int main(void) {
    //_delay_ms(10);	//160ms przy 2MHZ na starcie
    //sprawdznie poprawnoci danych w strukturze
    stan_d.flash_trigger = STARTUP_flash;
    1c66:	e4 e1       	ldi	r30, 0x14	; 20
    1c68:	f9 e2       	ldi	r31, 0x29	; 41
    1c6a:	15 82       	std	Z+5, r1	; 0x05
    stan_d.telemetry_trigger = STARTUP_tele;
    1c6c:	81 e0       	ldi	r24, 0x01	; 1
    1c6e:	84 83       	std	Z+4, r24	; 0x04
    frame_d.terminate = false;
    1c70:	10 92 ea 28 	sts	0x28EA, r1	; 0x8028ea <frame_d+0x25b>
    Initialization();
    1c74:	a6 db       	rcall	.-2228   	; 0x13c2 <Initialization>
	DetectInitOrientation(&allData_d);	//detect orientation and angle
    1c76:	8d ed       	ldi	r24, 0xDD	; 221
    1c78:	99 e2       	ldi	r25, 0x29	; 41
    1c7a:	f9 dd       	rcall	.-1038   	; 0x186e <DetectInitOrientation>
    sei();
    1c7c:	78 94       	sei
    WarmUp();					//inicjalizacja BT i odmiganie startu
    1c7e:	ef dc       	rcall	.-1570   	; 0x165e <WarmUp>
    WarmUpMemoryOperations();	//odczyt lub kasowanie pamici
    1c80:	1e dd       	rcall	.-1476   	; 0x16be <WarmUpMemoryOperations>
    CalibrationStart();			//autocalibration
    1c82:	e8 df       	rcall	.-48     	; 0x1c54 <CalibrationStart>
	
    while(1) {
        _delay_us(1);
        if(stan_d.new_data == true) {
    1c84:	c4 e1       	ldi	r28, 0x14	; 20
    1c86:	d9 e2       	ldi	r29, 0x29	; 41
            StateUpdate(&allData_d);
            //----------------Prepare frame---------
            prepareFrame(&allData_d);
            if(stan_d.flash_trigger){
				SPI_WriteFrame(&SPIaddress, 400, &frame_b);
				if(RTC_d.frameFlashCount < 999999UL) RTC_d.frameFlashCount++;
    1c88:	0f 2e       	mov	r0, r31
    1c8a:	ff ec       	ldi	r31, 0xCF	; 207
    1c8c:	af 2e       	mov	r10, r31
    1c8e:	f9 e2       	ldi	r31, 0x29	; 41
    1c90:	bf 2e       	mov	r11, r31
    1c92:	f0 2d       	mov	r31, r0
				else RTC_d.frameFlashCount = 0;
			}
            if(!(frame_d.mutex)) frame_d = frame_b;							//jeli frame_d nie zablokowane -> przepisz z bufora
    1c94:	0f 2e       	mov	r0, r31
    1c96:	f9 ee       	ldi	r31, 0xE9	; 233
    1c98:	cf 2e       	mov	r12, r31
    1c9a:	f8 e2       	ldi	r31, 0x28	; 40
    1c9c:	df 2e       	mov	r13, r31
    1c9e:	f0 2d       	mov	r31, r0
    1ca0:	0f 2e       	mov	r0, r31
    1ca2:	f5 e8       	ldi	r31, 0x85	; 133
    1ca4:	8f 2e       	mov	r8, r31
    1ca6:	f2 e0       	ldi	r31, 0x02	; 2
    1ca8:	9f 2e       	mov	r9, r31
    1caa:	f0 2d       	mov	r31, r0
            LED_PORT.OUTTGL = LED1;
    1cac:	0f 2e       	mov	r0, r31
    1cae:	e1 2c       	mov	r14, r1
    1cb0:	f6 e0       	ldi	r31, 0x06	; 6
    1cb2:	ff 2e       	mov	r15, r31
    1cb4:	f0 2d       	mov	r31, r0
    1cb6:	68 94       	set
    1cb8:	77 24       	eor	r7, r7
    1cba:	72 f8       	bld	r7, 2
            //----------------Kalibracja------------
            if(Calibration_d.trigger) SensorCal();
    1cbc:	07 e2       	ldi	r16, 0x27	; 39
    1cbe:	13 e2       	ldi	r17, 0x23	; 35
	#else
		//round up by default
		__ticks_dc = (uint32_t)(ceil(fabs(__tmp)));
	#endif

	__builtin_avr_delay_cycles(__ticks_dc);
    1cc0:	2a e0       	ldi	r18, 0x0A	; 10
    1cc2:	2a 95       	dec	r18
    1cc4:	f1 f7       	brne	.-4      	; 0x1cc2 <main+0x5c>
    1cc6:	00 c0       	rjmp	.+0      	; 0x1cc8 <main+0x62>
    WarmUpMemoryOperations();	//odczyt lub kasowanie pamici
    CalibrationStart();			//autocalibration
	
    while(1) {
        _delay_us(1);
        if(stan_d.new_data == true) {
    1cc8:	88 81       	ld	r24, Y
    1cca:	88 23       	and	r24, r24
    1ccc:	c9 f3       	breq	.-14     	; 0x1cc0 <main+0x5a>
            //============================================================================
            //								Sensors update
            //============================================================================
            stan_d.new_data = false;	//DRY flag clear
    1cce:	18 82       	st	Y, r1
            SensorUpdate(&allData_d);
    1cd0:	8d ed       	ldi	r24, 0xDD	; 221
    1cd2:	99 e2       	ldi	r25, 0x29	; 41
    1cd4:	6a d9       	rcall	.-3372   	; 0xfaa <SensorUpdate>
			SensorDataFusion(&allData_d);
    1cd6:	8d ed       	ldi	r24, 0xDD	; 221
    1cd8:	99 e2       	ldi	r25, 0x29	; 41
    1cda:	00 dd       	rcall	.-1536   	; 0x16dc <SensorDataFusion>
            StateUpdate(&allData_d);
    1cdc:	8d ed       	ldi	r24, 0xDD	; 221
    1cde:	99 e2       	ldi	r25, 0x29	; 41
    1ce0:	ad d9       	rcall	.-3238   	; 0x103c <StateUpdate>
            //----------------Prepare frame---------
            prepareFrame(&allData_d);
    1ce2:	8d ed       	ldi	r24, 0xDD	; 221
    1ce4:	99 e2       	ldi	r25, 0x29	; 41
    1ce6:	0e 94 a6 17 	call	0x2f4c	; 0x2f4c <prepareFrame>
            if(stan_d.flash_trigger){
    1cea:	8d 81       	ldd	r24, Y+5	; 0x05
    1cec:	88 23       	and	r24, r24
    1cee:	09 f1       	breq	.+66     	; 0x1d32 <main+0xcc>
				SPI_WriteFrame(&SPIaddress, 400, &frame_b);
    1cf0:	4a e0       	ldi	r20, 0x0A	; 10
    1cf2:	54 e2       	ldi	r21, 0x24	; 36
    1cf4:	60 e9       	ldi	r22, 0x90	; 144
    1cf6:	71 e0       	ldi	r23, 0x01	; 1
    1cf8:	8c e1       	ldi	r24, 0x1C	; 28
    1cfa:	91 e2       	ldi	r25, 0x21	; 33
    1cfc:	7d d1       	rcall	.+762    	; 0x1ff8 <SPI_WriteFrame>
				if(RTC_d.frameFlashCount < 999999UL) RTC_d.frameFlashCount++;
    1cfe:	f5 01       	movw	r30, r10
    1d00:	80 85       	ldd	r24, Z+8	; 0x08
    1d02:	91 85       	ldd	r25, Z+9	; 0x09
    1d04:	a2 85       	ldd	r26, Z+10	; 0x0a
    1d06:	b3 85       	ldd	r27, Z+11	; 0x0b
    1d08:	8f 33       	cpi	r24, 0x3F	; 63
    1d0a:	f2 e4       	ldi	r31, 0x42	; 66
    1d0c:	9f 07       	cpc	r25, r31
    1d0e:	ff e0       	ldi	r31, 0x0F	; 15
    1d10:	af 07       	cpc	r26, r31
    1d12:	b1 05       	cpc	r27, r1
    1d14:	48 f4       	brcc	.+18     	; 0x1d28 <main+0xc2>
    1d16:	01 96       	adiw	r24, 0x01	; 1
    1d18:	a1 1d       	adc	r26, r1
    1d1a:	b1 1d       	adc	r27, r1
    1d1c:	f5 01       	movw	r30, r10
    1d1e:	80 87       	std	Z+8, r24	; 0x08
    1d20:	91 87       	std	Z+9, r25	; 0x09
    1d22:	a2 87       	std	Z+10, r26	; 0x0a
    1d24:	b3 87       	std	Z+11, r27	; 0x0b
    1d26:	05 c0       	rjmp	.+10     	; 0x1d32 <main+0xcc>
				else RTC_d.frameFlashCount = 0;
    1d28:	f5 01       	movw	r30, r10
    1d2a:	10 86       	std	Z+8, r1	; 0x08
    1d2c:	11 86       	std	Z+9, r1	; 0x09
    1d2e:	12 86       	std	Z+10, r1	; 0x0a
    1d30:	13 86       	std	Z+11, r1	; 0x0b
			}
            if(!(frame_d.mutex)) frame_d = frame_b;							//jeli frame_d nie zablokowane -> przepisz z bufora
    1d32:	f6 01       	movw	r30, r12
    1d34:	80 81       	ld	r24, Z
    1d36:	81 11       	cpse	r24, r1
    1d38:	09 c0       	rjmp	.+18     	; 0x1d4c <main+0xe6>
    1d3a:	ea e0       	ldi	r30, 0x0A	; 10
    1d3c:	f4 e2       	ldi	r31, 0x24	; 36
    1d3e:	af e8       	ldi	r26, 0x8F	; 143
    1d40:	b6 e2       	ldi	r27, 0x26	; 38
    1d42:	c4 01       	movw	r24, r8
    1d44:	01 90       	ld	r0, Z+
    1d46:	0d 92       	st	X+, r0
    1d48:	01 97       	sbiw	r24, 0x01	; 1
    1d4a:	e1 f7       	brne	.-8      	; 0x1d44 <main+0xde>
            LED_PORT.OUTTGL = LED1;
    1d4c:	f7 01       	movw	r30, r14
    1d4e:	77 82       	std	Z+7, r7	; 0x07
            //----------------Kalibracja------------
            if(Calibration_d.trigger) SensorCal();
    1d50:	f8 01       	movw	r30, r16
    1d52:	82 a1       	ldd	r24, Z+34	; 0x22
    1d54:	88 23       	and	r24, r24
    1d56:	09 f4       	brne	.+2      	; 0x1d5a <main+0xf4>
    1d58:	b3 cf       	rjmp	.-154    	; 0x1cc0 <main+0x5a>
    1d5a:	0e 94 48 06 	call	0xc90	; 0xc90 <SensorCal>
    1d5e:	b0 cf       	rjmp	.-160    	; 0x1cc0 <main+0x5a>

00001d60 <I2C_ReadEnd>:
#include "I2C.h"
#include "CanSat.h"

uint8_t I2C_ReadEnd(bool koniec){
	uint8_t dane;
	while(!(SENSORS_I2C.MASTER.STATUS & TWI_MASTER_RIF_bm)) {}
    1d60:	e0 e8       	ldi	r30, 0x80	; 128
    1d62:	f4 e0       	ldi	r31, 0x04	; 4
    1d64:	94 81       	ldd	r25, Z+4	; 0x04
    1d66:	99 23       	and	r25, r25
    1d68:	ec f7       	brge	.-6      	; 0x1d64 <I2C_ReadEnd+0x4>
	if(koniec) SENSORS_I2C.MASTER.CTRLC = TWI_MASTER_ACKACT_bm | TWI_MASTER_CMD_STOP_gc;
    1d6a:	88 23       	and	r24, r24
    1d6c:	19 f0       	breq	.+6      	; 0x1d74 <I2C_ReadEnd+0x14>
    1d6e:	87 e0       	ldi	r24, 0x07	; 7
    1d70:	80 93 83 04 	sts	0x0483, r24	; 0x800483 <__TEXT_REGION_LENGTH__+0x700483>
	dane = SENSORS_I2C.MASTER.DATA;
    1d74:	80 91 87 04 	lds	r24, 0x0487	; 0x800487 <__TEXT_REGION_LENGTH__+0x700487>
	return dane;
}
    1d78:	08 95       	ret

00001d7a <I2C_WriteReg>:

void I2C_WriteReg(uint8_t I2Caddres, uint8_t reg,  uint8_t  data){
	SENSORS_I2C.MASTER.ADDR = I2Caddres;
    1d7a:	80 93 86 04 	sts	0x0486, r24	; 0x800486 <__TEXT_REGION_LENGTH__+0x700486>
	while(!(SENSORS_I2C.MASTER.STATUS & TWI_MASTER_WIF_bm)) {}
    1d7e:	e0 e8       	ldi	r30, 0x80	; 128
    1d80:	f4 e0       	ldi	r31, 0x04	; 4
    1d82:	84 81       	ldd	r24, Z+4	; 0x04
    1d84:	86 ff       	sbrs	r24, 6
    1d86:	fd cf       	rjmp	.-6      	; 0x1d82 <I2C_WriteReg+0x8>
	SENSORS_I2C.MASTER.DATA = reg;
    1d88:	60 93 87 04 	sts	0x0487, r22	; 0x800487 <__TEXT_REGION_LENGTH__+0x700487>
	while(!(SENSORS_I2C.MASTER.STATUS & TWI_MASTER_WIF_bm)) {}
    1d8c:	e0 e8       	ldi	r30, 0x80	; 128
    1d8e:	f4 e0       	ldi	r31, 0x04	; 4
    1d90:	84 81       	ldd	r24, Z+4	; 0x04
    1d92:	86 ff       	sbrs	r24, 6
    1d94:	fd cf       	rjmp	.-6      	; 0x1d90 <I2C_WriteReg+0x16>
	SENSORS_I2C.MASTER.DATA = data;
    1d96:	40 93 87 04 	sts	0x0487, r20	; 0x800487 <__TEXT_REGION_LENGTH__+0x700487>
	while(!(SENSORS_I2C.MASTER.STATUS & TWI_MASTER_WIF_bm)) {}
    1d9a:	e0 e8       	ldi	r30, 0x80	; 128
    1d9c:	f4 e0       	ldi	r31, 0x04	; 4
    1d9e:	84 81       	ldd	r24, Z+4	; 0x04
    1da0:	86 ff       	sbrs	r24, 6
    1da2:	fd cf       	rjmp	.-6      	; 0x1d9e <I2C_WriteReg+0x24>
	SENSORS_I2C.MASTER.CTRLC = TWI_MASTER_CMD_STOP_gc;
    1da4:	83 e0       	ldi	r24, 0x03	; 3
    1da6:	80 93 83 04 	sts	0x0483, r24	; 0x800483 <__TEXT_REGION_LENGTH__+0x700483>
    1daa:	08 95       	ret

00001dac <I2C_ReadRegister>:
}

void I2C_ReadRegister(uint8_t I2Caddres, uint8_t reg, uint8_t length, uint8_t * data){
    1dac:	ff 92       	push	r15
    1dae:	0f 93       	push	r16
    1db0:	1f 93       	push	r17
    1db2:	cf 93       	push	r28
    1db4:	df 93       	push	r29
    1db6:	f2 2e       	mov	r15, r18
	SENSORS_I2C.MASTER.ADDR = I2Caddres;
    1db8:	80 93 86 04 	sts	0x0486, r24	; 0x800486 <__TEXT_REGION_LENGTH__+0x700486>
	while(!(SENSORS_I2C.MASTER.STATUS & TWI_MASTER_WIF_bm)) {}
    1dbc:	e0 e8       	ldi	r30, 0x80	; 128
    1dbe:	f4 e0       	ldi	r31, 0x04	; 4
    1dc0:	94 81       	ldd	r25, Z+4	; 0x04
    1dc2:	96 ff       	sbrs	r25, 6
    1dc4:	fd cf       	rjmp	.-6      	; 0x1dc0 <I2C_ReadRegister+0x14>
	SENSORS_I2C.MASTER.DATA = reg;
    1dc6:	60 93 87 04 	sts	0x0487, r22	; 0x800487 <__TEXT_REGION_LENGTH__+0x700487>
	while(!(SENSORS_I2C.MASTER.STATUS & TWI_MASTER_WIF_bm)) {}
    1dca:	e0 e8       	ldi	r30, 0x80	; 128
    1dcc:	f4 e0       	ldi	r31, 0x04	; 4
    1dce:	94 81       	ldd	r25, Z+4	; 0x04
    1dd0:	96 ff       	sbrs	r25, 6
    1dd2:	fd cf       	rjmp	.-6      	; 0x1dce <I2C_ReadRegister+0x22>

	SENSORS_I2C.MASTER.CTRLC = TWI_MASTER_CMD_REPSTART_gc;
    1dd4:	e0 e8       	ldi	r30, 0x80	; 128
    1dd6:	f4 e0       	ldi	r31, 0x04	; 4
    1dd8:	91 e0       	ldi	r25, 0x01	; 1
    1dda:	93 83       	std	Z+3, r25	; 0x03
	SENSORS_I2C.MASTER.ADDR = I2Caddres | 0x01;
    1ddc:	81 60       	ori	r24, 0x01	; 1
    1dde:	86 83       	std	Z+6, r24	; 0x06
	for(uint8_t i=0; i<length-1; i++){
    1de0:	04 2f       	mov	r16, r20
    1de2:	10 e0       	ldi	r17, 0x00	; 0
    1de4:	01 50       	subi	r16, 0x01	; 1
    1de6:	11 09       	sbc	r17, r1
    1de8:	10 16       	cp	r1, r16
    1dea:	11 06       	cpc	r1, r17
    1dec:	64 f4       	brge	.+24     	; 0x1e06 <I2C_ReadRegister+0x5a>
    1dee:	cf 2d       	mov	r28, r15
    1df0:	d3 2f       	mov	r29, r19
		*data = I2C_ReadEnd(false);
    1df2:	80 e0       	ldi	r24, 0x00	; 0
    1df4:	b5 df       	rcall	.-150    	; 0x1d60 <I2C_ReadEnd>
    1df6:	89 93       	st	Y+, r24
    1df8:	8c 2f       	mov	r24, r28
    1dfa:	8f 19       	sub	r24, r15
	SENSORS_I2C.MASTER.DATA = reg;
	while(!(SENSORS_I2C.MASTER.STATUS & TWI_MASTER_WIF_bm)) {}

	SENSORS_I2C.MASTER.CTRLC = TWI_MASTER_CMD_REPSTART_gc;
	SENSORS_I2C.MASTER.ADDR = I2Caddres | 0x01;
	for(uint8_t i=0; i<length-1; i++){
    1dfc:	90 e0       	ldi	r25, 0x00	; 0
    1dfe:	80 17       	cp	r24, r16
    1e00:	91 07       	cpc	r25, r17
    1e02:	bc f3       	brlt	.-18     	; 0x1df2 <I2C_ReadRegister+0x46>
    1e04:	02 c0       	rjmp	.+4      	; 0x1e0a <I2C_ReadRegister+0x5e>
    1e06:	cf 2d       	mov	r28, r15
    1e08:	d3 2f       	mov	r29, r19
		*data = I2C_ReadEnd(false);
		data++;
	}
	*data = I2C_ReadEnd(true);
    1e0a:	81 e0       	ldi	r24, 0x01	; 1
    1e0c:	a9 df       	rcall	.-174    	; 0x1d60 <I2C_ReadEnd>
    1e0e:	88 83       	st	Y, r24
    1e10:	df 91       	pop	r29
    1e12:	cf 91       	pop	r28
    1e14:	1f 91       	pop	r17
    1e16:	0f 91       	pop	r16
    1e18:	ff 90       	pop	r15
    1e1a:	08 95       	ret

00001e1c <SPI_W_Byte>:
    1e1c:	cf 93       	push	r28
    1e1e:	df 93       	push	r29
    1e20:	1f 92       	push	r1
    1e22:	cd b7       	in	r28, 0x3d	; 61
    1e24:	de b7       	in	r29, 0x3e	; 62
    1e26:	80 93 c3 08 	sts	0x08C3, r24	; 0x8008c3 <__TEXT_REGION_LENGTH__+0x7008c3>
    1e2a:	e0 ec       	ldi	r30, 0xC0	; 192
    1e2c:	f8 e0       	ldi	r31, 0x08	; 8
    1e2e:	82 81       	ldd	r24, Z+2	; 0x02
    1e30:	88 23       	and	r24, r24
    1e32:	ec f7       	brge	.-6      	; 0x1e2e <SPI_W_Byte+0x12>
    1e34:	80 91 c3 08 	lds	r24, 0x08C3	; 0x8008c3 <__TEXT_REGION_LENGTH__+0x7008c3>
    1e38:	89 83       	std	Y+1, r24	; 0x01
    1e3a:	0f 90       	pop	r0
    1e3c:	df 91       	pop	r29
    1e3e:	cf 91       	pop	r28
    1e40:	08 95       	ret

00001e42 <SPI_R_Byte>:
    1e42:	10 92 c3 08 	sts	0x08C3, r1	; 0x8008c3 <__TEXT_REGION_LENGTH__+0x7008c3>
    1e46:	e0 ec       	ldi	r30, 0xC0	; 192
    1e48:	f8 e0       	ldi	r31, 0x08	; 8
    1e4a:	82 81       	ldd	r24, Z+2	; 0x02
    1e4c:	88 23       	and	r24, r24
    1e4e:	ec f7       	brge	.-6      	; 0x1e4a <SPI_R_Byte+0x8>
    1e50:	80 91 c3 08 	lds	r24, 0x08C3	; 0x8008c3 <__TEXT_REGION_LENGTH__+0x7008c3>
    1e54:	08 95       	ret

00001e56 <SPI_CS>:
    1e56:	88 23       	and	r24, r24
    1e58:	21 f0       	breq	.+8      	; 0x1e62 <SPI_CS+0xc>
    1e5a:	81 e0       	ldi	r24, 0x01	; 1
    1e5c:	80 93 66 06 	sts	0x0666, r24	; 0x800666 <__TEXT_REGION_LENGTH__+0x700666>
    1e60:	08 95       	ret
    1e62:	81 e0       	ldi	r24, 0x01	; 1
    1e64:	80 93 65 06 	sts	0x0665, r24	; 0x800665 <__TEXT_REGION_LENGTH__+0x700665>
    1e68:	08 95       	ret

00001e6a <SPI_WriteEnable>:
    1e6a:	1f 93       	push	r17
    1e6c:	cf 93       	push	r28
    1e6e:	df 93       	push	r29
    1e70:	c0 e6       	ldi	r28, 0x60	; 96
    1e72:	d6 e0       	ldi	r29, 0x06	; 6
    1e74:	11 e0       	ldi	r17, 0x01	; 1
    1e76:	1e 83       	std	Y+6, r17	; 0x06
    1e78:	86 e0       	ldi	r24, 0x06	; 6
    1e7a:	d0 df       	rcall	.-96     	; 0x1e1c <SPI_W_Byte>
    1e7c:	1d 83       	std	Y+5, r17	; 0x05
    1e7e:	df 91       	pop	r29
    1e80:	cf 91       	pop	r28
    1e82:	1f 91       	pop	r17
    1e84:	08 95       	ret

00001e86 <SPI_WriteDisable>:
    1e86:	1f 93       	push	r17
    1e88:	cf 93       	push	r28
    1e8a:	df 93       	push	r29
    1e8c:	c0 e6       	ldi	r28, 0x60	; 96
    1e8e:	d6 e0       	ldi	r29, 0x06	; 6
    1e90:	11 e0       	ldi	r17, 0x01	; 1
    1e92:	1e 83       	std	Y+6, r17	; 0x06
    1e94:	84 e0       	ldi	r24, 0x04	; 4
    1e96:	c2 df       	rcall	.-124    	; 0x1e1c <SPI_W_Byte>
    1e98:	1d 83       	std	Y+5, r17	; 0x05
    1e9a:	df 91       	pop	r29
    1e9c:	cf 91       	pop	r28
    1e9e:	1f 91       	pop	r17
    1ea0:	08 95       	ret

00001ea2 <SPI_WriteByte>:
    1ea2:	df 92       	push	r13
    1ea4:	ef 92       	push	r14
    1ea6:	ff 92       	push	r15
    1ea8:	0f 93       	push	r16
    1eaa:	1f 93       	push	r17
    1eac:	cf 93       	push	r28
    1eae:	df 93       	push	r29
    1eb0:	f6 2e       	mov	r15, r22
    1eb2:	e7 2e       	mov	r14, r23
    1eb4:	d8 2e       	mov	r13, r24
    1eb6:	04 2f       	mov	r16, r20
    1eb8:	d8 df       	rcall	.-80     	; 0x1e6a <SPI_WriteEnable>
    1eba:	c0 e6       	ldi	r28, 0x60	; 96
    1ebc:	d6 e0       	ldi	r29, 0x06	; 6
    1ebe:	11 e0       	ldi	r17, 0x01	; 1
    1ec0:	1e 83       	std	Y+6, r17	; 0x06
    1ec2:	82 e0       	ldi	r24, 0x02	; 2
    1ec4:	ab df       	rcall	.-170    	; 0x1e1c <SPI_W_Byte>
    1ec6:	8d 2d       	mov	r24, r13
    1ec8:	a9 df       	rcall	.-174    	; 0x1e1c <SPI_W_Byte>
    1eca:	8e 2d       	mov	r24, r14
    1ecc:	a7 df       	rcall	.-178    	; 0x1e1c <SPI_W_Byte>
    1ece:	8f 2d       	mov	r24, r15
    1ed0:	a5 df       	rcall	.-182    	; 0x1e1c <SPI_W_Byte>
    1ed2:	80 2f       	mov	r24, r16
    1ed4:	a3 df       	rcall	.-186    	; 0x1e1c <SPI_W_Byte>
    1ed6:	1d 83       	std	Y+5, r17	; 0x05
    1ed8:	df 91       	pop	r29
    1eda:	cf 91       	pop	r28
    1edc:	1f 91       	pop	r17
    1ede:	0f 91       	pop	r16
    1ee0:	ff 90       	pop	r15
    1ee2:	ef 90       	pop	r14
    1ee4:	df 90       	pop	r13
    1ee6:	08 95       	ret

00001ee8 <SPI_WriteProtection>:
    1ee8:	1f 93       	push	r17
    1eea:	cf 93       	push	r28
    1eec:	df 93       	push	r29
    1eee:	88 23       	and	r24, r24
    1ef0:	91 f0       	breq	.+36     	; 0x1f16 <SPI_WriteProtection+0x2e>
    1ef2:	c0 e6       	ldi	r28, 0x60	; 96
    1ef4:	d6 e0       	ldi	r29, 0x06	; 6
    1ef6:	11 e0       	ldi	r17, 0x01	; 1
    1ef8:	1e 83       	std	Y+6, r17	; 0x06
    1efa:	80 e5       	ldi	r24, 0x50	; 80
    1efc:	8f df       	rcall	.-226    	; 0x1e1c <SPI_W_Byte>
    1efe:	1d 83       	std	Y+5, r17	; 0x05
    1f00:	8a e0       	ldi	r24, 0x0A	; 10
    1f02:	8a 95       	dec	r24
    1f04:	f1 f7       	brne	.-4      	; 0x1f02 <SPI_WriteProtection+0x1a>
    1f06:	00 c0       	rjmp	.+0      	; 0x1f08 <SPI_WriteProtection+0x20>
    1f08:	1e 83       	std	Y+6, r17	; 0x06
    1f0a:	81 e0       	ldi	r24, 0x01	; 1
    1f0c:	87 df       	rcall	.-242    	; 0x1e1c <SPI_W_Byte>
    1f0e:	8c e1       	ldi	r24, 0x1C	; 28
    1f10:	85 df       	rcall	.-246    	; 0x1e1c <SPI_W_Byte>
    1f12:	1d 83       	std	Y+5, r17	; 0x05
    1f14:	11 c0       	rjmp	.+34     	; 0x1f38 <SPI_WriteProtection+0x50>
    1f16:	c0 e6       	ldi	r28, 0x60	; 96
    1f18:	d6 e0       	ldi	r29, 0x06	; 6
    1f1a:	11 e0       	ldi	r17, 0x01	; 1
    1f1c:	1e 83       	std	Y+6, r17	; 0x06
    1f1e:	80 e5       	ldi	r24, 0x50	; 80
    1f20:	7d df       	rcall	.-262    	; 0x1e1c <SPI_W_Byte>
    1f22:	1d 83       	std	Y+5, r17	; 0x05
    1f24:	8a e0       	ldi	r24, 0x0A	; 10
    1f26:	8a 95       	dec	r24
    1f28:	f1 f7       	brne	.-4      	; 0x1f26 <SPI_WriteProtection+0x3e>
    1f2a:	00 c0       	rjmp	.+0      	; 0x1f2c <SPI_WriteProtection+0x44>
    1f2c:	1e 83       	std	Y+6, r17	; 0x06
    1f2e:	81 e0       	ldi	r24, 0x01	; 1
    1f30:	75 df       	rcall	.-278    	; 0x1e1c <SPI_W_Byte>
    1f32:	80 e0       	ldi	r24, 0x00	; 0
    1f34:	73 df       	rcall	.-282    	; 0x1e1c <SPI_W_Byte>
    1f36:	1d 83       	std	Y+5, r17	; 0x05
    1f38:	df 91       	pop	r29
    1f3a:	cf 91       	pop	r28
    1f3c:	1f 91       	pop	r17
    1f3e:	08 95       	ret

00001f40 <SPI_WriteFin>:
	SPI_CS(false);						//zakoczenie transmisji
	_delay_us(1);
	SPI_AAI_Mode_Stop();				//exit AAI mode
}*/

void SPI_WriteFin(void){
    1f40:	cf 93       	push	r28
    1f42:	df 93       	push	r29
    1f44:	1f 92       	push	r1
    1f46:	cd b7       	in	r28, 0x3d	; 61
    1f48:	de b7       	in	r29, 0x3e	; 62
	while(!(FLASH_SPI.STATUS & SPI_IF_bm)){}
	return FLASH_SPI.DATA;
}

void SPI_CS(bool enable){
	if(enable) FLASH_CS_PORT.OUTCLR = FLASH_CS_PIN;
    1f4a:	81 e0       	ldi	r24, 0x01	; 1
    1f4c:	80 93 66 06 	sts	0x0666, r24	; 0x800666 <__TEXT_REGION_LENGTH__+0x700666>
	SPI_AAI_Mode_Stop();				//exit AAI mode
}*/

void SPI_WriteFin(void){
	SPI_CS(true);
	SPI_W_Byte(0x05);	//status register
    1f50:	85 e0       	ldi	r24, 0x05	; 5
    1f52:	64 df       	rcall	.-312    	; 0x1e1c <SPI_W_Byte>
	volatile char ch = SPI_R_Byte();
    1f54:	76 df       	rcall	.-276    	; 0x1e42 <SPI_R_Byte>
    1f56:	89 83       	std	Y+1, r24	; 0x01
	do{
		ch = SPI_R_Byte();
    1f58:	74 df       	rcall	.-280    	; 0x1e42 <SPI_R_Byte>
    1f5a:	89 83       	std	Y+1, r24	; 0x01
	}
	while(ch & 0x01);
    1f5c:	89 81       	ldd	r24, Y+1	; 0x01
    1f5e:	80 fd       	sbrc	r24, 0
    1f60:	fb cf       	rjmp	.-10     	; 0x1f58 <SPI_WriteFin+0x18>
	return FLASH_SPI.DATA;
}

void SPI_CS(bool enable){
	if(enable) FLASH_CS_PORT.OUTCLR = FLASH_CS_PIN;
	else FLASH_CS_PORT.OUTSET = FLASH_CS_PIN;
    1f62:	81 e0       	ldi	r24, 0x01	; 1
    1f64:	80 93 65 06 	sts	0x0665, r24	; 0x800665 <__TEXT_REGION_LENGTH__+0x700665>
	do{
		ch = SPI_R_Byte();
	}
	while(ch & 0x01);
	SPI_CS(false);
}
    1f68:	0f 90       	pop	r0
    1f6a:	df 91       	pop	r29
    1f6c:	cf 91       	pop	r28
    1f6e:	08 95       	ret

00001f70 <SPI_ChipErase>:
	uint8_t tmp = SPI_R_Byte();
	SPI_CS(false);
	return tmp;
}

void SPI_ChipErase(void){
    1f70:	1f 93       	push	r17
    1f72:	cf 93       	push	r28
    1f74:	df 93       	push	r29
	SPI_WriteEnable();
    1f76:	79 df       	rcall	.-270    	; 0x1e6a <SPI_WriteEnable>
	while(!(FLASH_SPI.STATUS & SPI_IF_bm)){}
	return FLASH_SPI.DATA;
}

void SPI_CS(bool enable){
	if(enable) FLASH_CS_PORT.OUTCLR = FLASH_CS_PIN;
    1f78:	c0 e6       	ldi	r28, 0x60	; 96
    1f7a:	d6 e0       	ldi	r29, 0x06	; 6
    1f7c:	11 e0       	ldi	r17, 0x01	; 1
    1f7e:	1e 83       	std	Y+6, r17	; 0x06
}

void SPI_ChipErase(void){
	SPI_WriteEnable();
	SPI_CS(true);
	SPI_W_Byte(0x60);	//Chip erase
    1f80:	80 e6       	ldi	r24, 0x60	; 96
    1f82:	4c df       	rcall	.-360    	; 0x1e1c <SPI_W_Byte>
	return FLASH_SPI.DATA;
}

void SPI_CS(bool enable){
	if(enable) FLASH_CS_PORT.OUTCLR = FLASH_CS_PIN;
	else FLASH_CS_PORT.OUTSET = FLASH_CS_PIN;
    1f84:	1d 83       	std	Y+5, r17	; 0x05
    1f86:	8f e1       	ldi	r24, 0x1F	; 31
    1f88:	93 e0       	ldi	r25, 0x03	; 3
    1f8a:	01 97       	sbiw	r24, 0x01	; 1
    1f8c:	f1 f7       	brne	.-4      	; 0x1f8a <SPI_ChipErase+0x1a>
    1f8e:	00 c0       	rjmp	.+0      	; 0x1f90 <SPI_ChipErase+0x20>
    1f90:	00 00       	nop
	SPI_CS(true);
	SPI_W_Byte(0x60);	//Chip erase
	SPI_CS(false);
	_delay_us(100);
	
	SPI_WriteFin();
    1f92:	d6 df       	rcall	.-84     	; 0x1f40 <SPI_WriteFin>
	SPI_WriteDisable();
    1f94:	78 df       	rcall	.-272    	; 0x1e86 <SPI_WriteDisable>
}
    1f96:	df 91       	pop	r29
    1f98:	cf 91       	pop	r28
    1f9a:	1f 91       	pop	r17
    1f9c:	08 95       	ret

00001f9e <SPI_FindEnd>:
		PORTA_OUTTGL = PIN2_bm;
	}
}
*/

uint32_t SPI_FindEnd(void){
    1f9e:	cf 92       	push	r12
    1fa0:	df 92       	push	r13
    1fa2:	ef 92       	push	r14
    1fa4:	ff 92       	push	r15
	while(!(FLASH_SPI.STATUS & SPI_IF_bm)){}
	return FLASH_SPI.DATA;
}

void SPI_CS(bool enable){
	if(enable) FLASH_CS_PORT.OUTCLR = FLASH_CS_PIN;
    1fa6:	81 e0       	ldi	r24, 0x01	; 1
    1fa8:	80 93 66 06 	sts	0x0666, r24	; 0x800666 <__TEXT_REGION_LENGTH__+0x700666>
}
*/

uint32_t SPI_FindEnd(void){
	SPI_CS(true);
	SPI_W_Byte(0x03);			//Read
    1fac:	83 e0       	ldi	r24, 0x03	; 3
    1fae:	36 df       	rcall	.-404    	; 0x1e1c <SPI_W_Byte>
	SPI_W_Byte(0);				//address MSB
    1fb0:	80 e0       	ldi	r24, 0x00	; 0
    1fb2:	34 df       	rcall	.-408    	; 0x1e1c <SPI_W_Byte>
	SPI_W_Byte(0);				//address cd.
    1fb4:	80 e0       	ldi	r24, 0x00	; 0
    1fb6:	32 df       	rcall	.-412    	; 0x1e1c <SPI_W_Byte>
	SPI_W_Byte(0);				//address LSB
    1fb8:	80 e0       	ldi	r24, 0x00	; 0
    1fba:	30 df       	rcall	.-416    	; 0x1e1c <SPI_W_Byte>
	uint32_t n=0;
    1fbc:	c1 2c       	mov	r12, r1
    1fbe:	d1 2c       	mov	r13, r1
    1fc0:	76 01       	movw	r14, r12
    1fc2:	0d c0       	rjmp	.+26     	; 0x1fde <SPI_FindEnd+0x40>
	while((n < 4100000) && (SPI_R_Byte() != 0xFF)) n++;	//szukaj pocztku wolnej pamici (0xFF)
    1fc4:	8f ef       	ldi	r24, 0xFF	; 255
    1fc6:	c8 1a       	sub	r12, r24
    1fc8:	d8 0a       	sbc	r13, r24
    1fca:	e8 0a       	sbc	r14, r24
    1fcc:	f8 0a       	sbc	r15, r24
    1fce:	80 ea       	ldi	r24, 0xA0	; 160
    1fd0:	c8 16       	cp	r12, r24
    1fd2:	8f e8       	ldi	r24, 0x8F	; 143
    1fd4:	d8 06       	cpc	r13, r24
    1fd6:	8e e3       	ldi	r24, 0x3E	; 62
    1fd8:	e8 06       	cpc	r14, r24
    1fda:	f1 04       	cpc	r15, r1
    1fdc:	19 f0       	breq	.+6      	; 0x1fe4 <SPI_FindEnd+0x46>
    1fde:	31 df       	rcall	.-414    	; 0x1e42 <SPI_R_Byte>
    1fe0:	8f 3f       	cpi	r24, 0xFF	; 255
    1fe2:	81 f7       	brne	.-32     	; 0x1fc4 <SPI_FindEnd+0x26>
	return FLASH_SPI.DATA;
}

void SPI_CS(bool enable){
	if(enable) FLASH_CS_PORT.OUTCLR = FLASH_CS_PIN;
	else FLASH_CS_PORT.OUTSET = FLASH_CS_PIN;
    1fe4:	81 e0       	ldi	r24, 0x01	; 1
    1fe6:	80 93 65 06 	sts	0x0665, r24	; 0x800665 <__TEXT_REGION_LENGTH__+0x700665>
	SPI_W_Byte(0);				//address LSB
	uint32_t n=0;
	while((n < 4100000) && (SPI_R_Byte() != 0xFF)) n++;	//szukaj pocztku wolnej pamici (0xFF)
	SPI_CS(false);
	return n;
}
    1fea:	c7 01       	movw	r24, r14
    1fec:	b6 01       	movw	r22, r12
    1fee:	ff 90       	pop	r15
    1ff0:	ef 90       	pop	r14
    1ff2:	df 90       	pop	r13
    1ff4:	cf 90       	pop	r12
    1ff6:	08 95       	ret

00001ff8 <SPI_WriteFrame>:

void SPI_WriteFrame(uint32_t * adres, uint16_t frame_length, frame_t * frame){
    1ff8:	8f 92       	push	r8
    1ffa:	9f 92       	push	r9
    1ffc:	af 92       	push	r10
    1ffe:	bf 92       	push	r11
    2000:	cf 92       	push	r12
    2002:	df 92       	push	r13
    2004:	ef 92       	push	r14
    2006:	ff 92       	push	r15
    2008:	0f 93       	push	r16
    200a:	1f 93       	push	r17
    200c:	cf 93       	push	r28
    200e:	df 93       	push	r29
    2010:	4b 01       	movw	r8, r22
    2012:	fa 01       	movw	r30, r20
	uint32_t i = 0;
	if((*adres) < 4194000){
    2014:	dc 01       	movw	r26, r24
    2016:	4d 91       	ld	r20, X+
    2018:	5d 91       	ld	r21, X+
    201a:	6d 91       	ld	r22, X+
    201c:	7c 91       	ld	r23, X
    201e:	40 3d       	cpi	r20, 0xD0	; 208
    2020:	5e 4f       	sbci	r21, 0xFE	; 254
    2022:	6f 43       	sbci	r22, 0x3F	; 63
    2024:	71 05       	cpc	r23, r1
    2026:	b8 f5       	brcc	.+110    	; 0x2096 <SPI_WriteFrame+0x9e>
		PORTA_OUTSET = PIN2_bm;
    2028:	24 e0       	ldi	r18, 0x04	; 4
    202a:	20 93 05 06 	sts	0x0605, r18	; 0x800605 <__TEXT_REGION_LENGTH__+0x700605>
		while((frame->frameASCII[i]) && (i<frame_length)){
    202e:	40 81       	ld	r20, Z
    2030:	44 23       	and	r20, r20
    2032:	71 f1       	breq	.+92     	; 0x2090 <SPI_WriteFrame+0x98>
    2034:	a1 2c       	mov	r10, r1
    2036:	b1 2c       	mov	r11, r1
    2038:	81 14       	cp	r8, r1
    203a:	91 04       	cpc	r9, r1
    203c:	a1 04       	cpc	r10, r1
    203e:	b1 04       	cpc	r11, r1
    2040:	39 f1       	breq	.+78     	; 0x2090 <SPI_WriteFrame+0x98>
    2042:	8f 01       	movw	r16, r30
    2044:	ec 01       	movw	r28, r24
    2046:	0f 5f       	subi	r16, 0xFF	; 255
    2048:	1f 4f       	sbci	r17, 0xFF	; 255
    204a:	c1 2c       	mov	r12, r1
    204c:	d1 2c       	mov	r13, r1
    204e:	76 01       	movw	r14, r12
			SPI_WriteByte((*adres),frame->frameASCII[i++]);
    2050:	ef ef       	ldi	r30, 0xFF	; 255
    2052:	ce 1a       	sub	r12, r30
    2054:	de 0a       	sbc	r13, r30
    2056:	ee 0a       	sbc	r14, r30
    2058:	fe 0a       	sbc	r15, r30
    205a:	68 81       	ld	r22, Y
    205c:	79 81       	ldd	r23, Y+1	; 0x01
    205e:	8a 81       	ldd	r24, Y+2	; 0x02
    2060:	9b 81       	ldd	r25, Y+3	; 0x03
    2062:	1f df       	rcall	.-450    	; 0x1ea2 <SPI_WriteByte>
			SPI_WriteFin();
    2064:	6d df       	rcall	.-294    	; 0x1f40 <SPI_WriteFin>
			(*adres)++;			//address increment
    2066:	88 81       	ld	r24, Y
    2068:	99 81       	ldd	r25, Y+1	; 0x01
    206a:	aa 81       	ldd	r26, Y+2	; 0x02
    206c:	bb 81       	ldd	r27, Y+3	; 0x03
    206e:	01 96       	adiw	r24, 0x01	; 1
    2070:	a1 1d       	adc	r26, r1
    2072:	b1 1d       	adc	r27, r1
    2074:	88 83       	st	Y, r24
    2076:	99 83       	std	Y+1, r25	; 0x01
    2078:	aa 83       	std	Y+2, r26	; 0x02
    207a:	bb 83       	std	Y+3, r27	; 0x03

void SPI_WriteFrame(uint32_t * adres, uint16_t frame_length, frame_t * frame){
	uint32_t i = 0;
	if((*adres) < 4194000){
		PORTA_OUTSET = PIN2_bm;
		while((frame->frameASCII[i]) && (i<frame_length)){
    207c:	d8 01       	movw	r26, r16
    207e:	4d 91       	ld	r20, X+
    2080:	8d 01       	movw	r16, r26
    2082:	44 23       	and	r20, r20
    2084:	29 f0       	breq	.+10     	; 0x2090 <SPI_WriteFrame+0x98>
    2086:	c8 14       	cp	r12, r8
    2088:	d9 04       	cpc	r13, r9
    208a:	ea 04       	cpc	r14, r10
    208c:	fb 04       	cpc	r15, r11
    208e:	01 f7       	brne	.-64     	; 0x2050 <SPI_WriteFrame+0x58>
			SPI_WriteByte((*adres),frame->frameASCII[i++]);
			SPI_WriteFin();
			(*adres)++;			//address increment
		}
		PORTA_OUTCLR = PIN2_bm;
    2090:	84 e0       	ldi	r24, 0x04	; 4
    2092:	80 93 06 06 	sts	0x0606, r24	; 0x800606 <__TEXT_REGION_LENGTH__+0x700606>
	}
    2096:	df 91       	pop	r29
    2098:	cf 91       	pop	r28
    209a:	1f 91       	pop	r17
    209c:	0f 91       	pop	r16
    209e:	ff 90       	pop	r15
    20a0:	ef 90       	pop	r14
    20a2:	df 90       	pop	r13
    20a4:	cf 90       	pop	r12
    20a6:	bf 90       	pop	r11
    20a8:	af 90       	pop	r10
    20aa:	9f 90       	pop	r9
    20ac:	8f 90       	pop	r8
    20ae:	08 95       	ret

000020b0 <Osc2MHz>:
void CPU_clk(uint8_t val){
	Osc2MHz((uint8_t)(val/2));
}

void Osc2MHz(uint8_t pll_factor) {
	OSC.CTRL |= OSC_RC2MEN_bm;						// wczenie oscylatora 2MHz
    20b0:	e0 e5       	ldi	r30, 0x50	; 80
    20b2:	f0 e0       	ldi	r31, 0x00	; 0
    20b4:	90 81       	ld	r25, Z
    20b6:	91 60       	ori	r25, 0x01	; 1
    20b8:	90 83       	st	Z, r25
	
	//--------------stabilizacja czstotliwoci
	DFLLRC2M.CALA = 0x40;								//dane z sygnatury
    20ba:	a8 e6       	ldi	r26, 0x68	; 104
    20bc:	b0 e0       	ldi	r27, 0x00	; 0
    20be:	90 e4       	ldi	r25, 0x40	; 64
    20c0:	12 96       	adiw	r26, 0x02	; 2
    20c2:	9c 93       	st	X, r25
    20c4:	12 97       	sbiw	r26, 0x02	; 2
	DFLLRC2M.CALB = 0x0D;
    20c6:	9d e0       	ldi	r25, 0x0D	; 13
    20c8:	13 96       	adiw	r26, 0x03	; 3
    20ca:	9c 93       	st	X, r25
	OSC.CTRL|=OSC_RC32KEN_bm;							//wczenie oscylatora 32kHz
    20cc:	90 81       	ld	r25, Z
    20ce:	94 60       	ori	r25, 0x04	; 4
    20d0:	90 83       	st	Z, r25
	while(!(OSC.STATUS & OSC_RC32KRDY_bm));				//czekanie na ustabilizowanie zegara 32kHz
    20d2:	91 81       	ldd	r25, Z+1	; 0x01
    20d4:	92 ff       	sbrs	r25, 2
    20d6:	fd cf       	rjmp	.-6      	; 0x20d2 <Osc2MHz+0x22>
	OSC.DFLLCTRL &= ~(OSC_RC32MCREF_gm | OSC_RC2MCREF_bm);
    20d8:	e0 e5       	ldi	r30, 0x50	; 80
    20da:	f0 e0       	ldi	r31, 0x00	; 0
    20dc:	96 81       	ldd	r25, Z+6	; 0x06
    20de:	98 7f       	andi	r25, 0xF8	; 248
    20e0:	96 83       	std	Z+6, r25	; 0x06
	DFLLRC2M.CTRL |= DFLL_ENABLE_bm;
    20e2:	e8 e6       	ldi	r30, 0x68	; 104
    20e4:	f0 e0       	ldi	r31, 0x00	; 0
    20e6:	90 81       	ld	r25, Z
    20e8:	91 60       	ori	r25, 0x01	; 1
    20ea:	90 83       	st	Z, r25
	
	while(!(OSC.STATUS & OSC_RC2MRDY_bm));			// czekanie na ustabilizowanie zegara 2MHz
    20ec:	e0 e5       	ldi	r30, 0x50	; 80
    20ee:	f0 e0       	ldi	r31, 0x00	; 0
    20f0:	91 81       	ldd	r25, Z+1	; 0x01
    20f2:	90 ff       	sbrs	r25, 0
    20f4:	fd cf       	rjmp	.-6      	; 0x20f0 <Osc2MHz+0x40>
	CPU_CCP = CCP_IOREG_gc;							// odblokowanie zmiany rda sygnau
    20f6:	98 ed       	ldi	r25, 0xD8	; 216
    20f8:	94 bf       	out	0x34, r25	; 52
	CLK.CTRL = CLK_SCLKSEL_RC2M_gc;					// zmiana rda sygnau na RC 2MHz
    20fa:	10 92 40 00 	sts	0x0040, r1	; 0x800040 <__TEXT_REGION_LENGTH__+0x700040>
	OSC.CTRL &= ~OSC_PLLEN_bm;						// wyczenie PLL
    20fe:	e0 e5       	ldi	r30, 0x50	; 80
    2100:	f0 e0       	ldi	r31, 0x00	; 0
    2102:	90 81       	ld	r25, Z
    2104:	9f 7e       	andi	r25, 0xEF	; 239
    2106:	90 83       	st	Z, r25
	OSC.PLLCTRL = OSC_PLLSRC_RC2M_gc | pll_factor;	// mnonik czstotliwoci (od 1 do 31)
    2108:	85 83       	std	Z+5, r24	; 0x05
	OSC.CTRL = OSC_PLLEN_bm;						// wczenie ukadu PLL
    210a:	80 e1       	ldi	r24, 0x10	; 16
    210c:	80 83       	st	Z, r24
	while(!(OSC.STATUS & OSC_PLLRDY_bm));			// czekanie na ustabilizowanie si generatora PLL
    210e:	81 81       	ldd	r24, Z+1	; 0x01
    2110:	84 ff       	sbrs	r24, 4
    2112:	fd cf       	rjmp	.-6      	; 0x210e <Osc2MHz+0x5e>
	CPU_CCP = CCP_IOREG_gc;							// odblokowanie zmiany rda sygnau
    2114:	88 ed       	ldi	r24, 0xD8	; 216
    2116:	84 bf       	out	0x34, r24	; 52
	CLK.CTRL = CLK_SCLKSEL_PLL_gc;					// wybr rda sygnau zegarowego PLL
    2118:	84 e0       	ldi	r24, 0x04	; 4
    211a:	80 93 40 00 	sts	0x0040, r24	; 0x800040 <__TEXT_REGION_LENGTH__+0x700040>
    211e:	08 95       	ret

00002120 <CPU_clk>:
#include "struct.h"
#include "Initialization.h"
#include "CanSat.h"

void CPU_clk(uint8_t val){
	Osc2MHz((uint8_t)(val/2));
    2120:	86 95       	lsr	r24
    2122:	c6 cf       	rjmp	.-116    	; 0x20b0 <Osc2MHz>
    2124:	08 95       	ret

00002126 <OscRTC>:
	while(!(OSC.STATUS & OSC_PLLRDY_bm));			// czekanie na ustabilizowanie si generatora PLL
	CPU_CCP = CCP_IOREG_gc;							// odblokowanie zmiany rda sygnau
	CLK.CTRL = CLK_SCLKSEL_PLL_gc;					// wybr rda sygnau zegarowego PLL
}

void OscRTC(void){
    2126:	08 95       	ret

00002128 <RTC_Init>:
	CLK.RTCCTRL = CLK_RTCSRC_RCOSC32_gc;			//RTC zasilane z 32.768kHz
	CLK.RTCCTRL |= CLK_RTCEN_bm;					//wczenie RTC
	*/
}

void RTC_Init(void){
    2128:	08 95       	ret

0000212a <TimerCInit>:
	RTC.INTCTRL = RTC_OVFINTLVL_MED_gc;				//przerwanie od przepenienia - niski priorytet
	*/
}

void TimerCInit(uint16_t period_ms){
	TCC0_CTRLA = TC_CLKSEL_DIV1024_gc;				//wczenie timera z preskalerem 64
    212a:	27 e0       	ldi	r18, 0x07	; 7
    212c:	20 93 00 08 	sts	0x0800, r18	; 0x800800 <__TEXT_REGION_LENGTH__+0x700800>
	TCC0_CTRLB = 0x00;								//Normal mode
    2130:	10 92 01 08 	sts	0x0801, r1	; 0x800801 <__TEXT_REGION_LENGTH__+0x700801>
	TCC0_CNT = 0;									//zeruj licznik
    2134:	10 92 20 08 	sts	0x0820, r1	; 0x800820 <__TEXT_REGION_LENGTH__+0x700820>
    2138:	10 92 21 08 	sts	0x0821, r1	; 0x800821 <__TEXT_REGION_LENGTH__+0x700821>
	TCC0_PER = (period_ms*32000UL)/1024;			//przeliczenie okresu na 1ms*period
    213c:	9c 01       	movw	r18, r24
    213e:	a0 e0       	ldi	r26, 0x00	; 0
    2140:	bd e7       	ldi	r27, 0x7D	; 125
    2142:	0e 94 7a 1d 	call	0x3af4	; 0x3af4 <__umulhisi3>
    2146:	dc 01       	movw	r26, r24
    2148:	cb 01       	movw	r24, r22
    214a:	07 2e       	mov	r0, r23
    214c:	7a e0       	ldi	r23, 0x0A	; 10
    214e:	b6 95       	lsr	r27
    2150:	a7 95       	ror	r26
    2152:	97 95       	ror	r25
    2154:	87 95       	ror	r24
    2156:	7a 95       	dec	r23
    2158:	d1 f7       	brne	.-12     	; 0x214e <TimerCInit+0x24>
    215a:	70 2d       	mov	r23, r0
    215c:	80 93 26 08 	sts	0x0826, r24	; 0x800826 <__TEXT_REGION_LENGTH__+0x700826>
    2160:	90 93 27 08 	sts	0x0827, r25	; 0x800827 <__TEXT_REGION_LENGTH__+0x700827>
	TCC0_INTCTRLA = TC_OVFINTLVL_MED_gc;			//redni poziom przerwania od przepenienia
    2164:	82 e0       	ldi	r24, 0x02	; 2
    2166:	80 93 06 08 	sts	0x0806, r24	; 0x800806 <__TEXT_REGION_LENGTH__+0x700806>
    216a:	08 95       	ret

0000216c <TimerDInit>:
}

void TimerDInit(uint16_t period_ms){
	TCD0_CTRLA = TC_CLKSEL_DIV1024_gc;				//wczenie timera z preskalerem 64
    216c:	27 e0       	ldi	r18, 0x07	; 7
    216e:	20 93 00 09 	sts	0x0900, r18	; 0x800900 <__TEXT_REGION_LENGTH__+0x700900>
	TCD0_CTRLB = 0x00;								//Normal mode
    2172:	10 92 01 09 	sts	0x0901, r1	; 0x800901 <__TEXT_REGION_LENGTH__+0x700901>
	TCD0_CNT = 0;									//zeruj licznik
    2176:	10 92 20 09 	sts	0x0920, r1	; 0x800920 <__TEXT_REGION_LENGTH__+0x700920>
    217a:	10 92 21 09 	sts	0x0921, r1	; 0x800921 <__TEXT_REGION_LENGTH__+0x700921>
	TCD0_PER = (period_ms*32000UL)/1024;			//przeliczenie okresu na 1ms*period
    217e:	9c 01       	movw	r18, r24
    2180:	a0 e0       	ldi	r26, 0x00	; 0
    2182:	bd e7       	ldi	r27, 0x7D	; 125
    2184:	0e 94 7a 1d 	call	0x3af4	; 0x3af4 <__umulhisi3>
    2188:	dc 01       	movw	r26, r24
    218a:	cb 01       	movw	r24, r22
    218c:	07 2e       	mov	r0, r23
    218e:	7a e0       	ldi	r23, 0x0A	; 10
    2190:	b6 95       	lsr	r27
    2192:	a7 95       	ror	r26
    2194:	97 95       	ror	r25
    2196:	87 95       	ror	r24
    2198:	7a 95       	dec	r23
    219a:	d1 f7       	brne	.-12     	; 0x2190 <TimerDInit+0x24>
    219c:	70 2d       	mov	r23, r0
    219e:	80 93 26 09 	sts	0x0926, r24	; 0x800926 <__TEXT_REGION_LENGTH__+0x700926>
    21a2:	90 93 27 09 	sts	0x0927, r25	; 0x800927 <__TEXT_REGION_LENGTH__+0x700927>
	TCD0_INTCTRLA = TC_OVFINTLVL_LO_gc;				//redni poziom przerwania od przepenienia
    21a6:	81 e0       	ldi	r24, 0x01	; 1
    21a8:	80 93 06 09 	sts	0x0906, r24	; 0x800906 <__TEXT_REGION_LENGTH__+0x700906>
    21ac:	08 95       	ret

000021ae <TimerEInit>:
}

void TimerEInit(uint16_t period_ms){
	TCE0_CTRLA = TC_CLKSEL_DIV1024_gc;				//wczenie timera z preskalerem 64
    21ae:	27 e0       	ldi	r18, 0x07	; 7
    21b0:	20 93 00 0a 	sts	0x0A00, r18	; 0x800a00 <__TEXT_REGION_LENGTH__+0x700a00>
	TCE0_CTRLB = 0x00;								//Normal mode
    21b4:	10 92 01 0a 	sts	0x0A01, r1	; 0x800a01 <__TEXT_REGION_LENGTH__+0x700a01>
	TCE0_CNT = 0;									//zeruj licznik
    21b8:	10 92 20 0a 	sts	0x0A20, r1	; 0x800a20 <__TEXT_REGION_LENGTH__+0x700a20>
    21bc:	10 92 21 0a 	sts	0x0A21, r1	; 0x800a21 <__TEXT_REGION_LENGTH__+0x700a21>
	TCE0_PER = (period_ms*32000UL)/1024;			//przeliczenie okresu na 1ms*period
    21c0:	9c 01       	movw	r18, r24
    21c2:	a0 e0       	ldi	r26, 0x00	; 0
    21c4:	bd e7       	ldi	r27, 0x7D	; 125
    21c6:	0e 94 7a 1d 	call	0x3af4	; 0x3af4 <__umulhisi3>
    21ca:	dc 01       	movw	r26, r24
    21cc:	cb 01       	movw	r24, r22
    21ce:	07 2e       	mov	r0, r23
    21d0:	7a e0       	ldi	r23, 0x0A	; 10
    21d2:	b6 95       	lsr	r27
    21d4:	a7 95       	ror	r26
    21d6:	97 95       	ror	r25
    21d8:	87 95       	ror	r24
    21da:	7a 95       	dec	r23
    21dc:	d1 f7       	brne	.-12     	; 0x21d2 <TimerEInit+0x24>
    21de:	70 2d       	mov	r23, r0
    21e0:	80 93 26 0a 	sts	0x0A26, r24	; 0x800a26 <__TEXT_REGION_LENGTH__+0x700a26>
    21e4:	90 93 27 0a 	sts	0x0A27, r25	; 0x800a27 <__TEXT_REGION_LENGTH__+0x700a27>
	TCE0_INTCTRLA = TC_OVFINTLVL_MED_gc;			//redni poziom przerwania od przepenienia
    21e8:	82 e0       	ldi	r24, 0x02	; 2
    21ea:	80 93 06 0a 	sts	0x0A06, r24	; 0x800a06 <__TEXT_REGION_LENGTH__+0x700a06>
    21ee:	08 95       	ret

000021f0 <TimerFInit>:
}

void TimerFInit(uint16_t period_ms){
	TCF0_CTRLA = TC_CLKSEL_DIV1024_gc;				//wczenie timera z preskalerem 64
    21f0:	27 e0       	ldi	r18, 0x07	; 7
    21f2:	20 93 00 0b 	sts	0x0B00, r18	; 0x800b00 <__TEXT_REGION_LENGTH__+0x700b00>
	TCF0_CTRLB = 0x00;								//Normal mode
    21f6:	10 92 01 0b 	sts	0x0B01, r1	; 0x800b01 <__TEXT_REGION_LENGTH__+0x700b01>
	TCF0_CNT = 0;									//zeruj licznik
    21fa:	10 92 20 0b 	sts	0x0B20, r1	; 0x800b20 <__TEXT_REGION_LENGTH__+0x700b20>
    21fe:	10 92 21 0b 	sts	0x0B21, r1	; 0x800b21 <__TEXT_REGION_LENGTH__+0x700b21>
    2202:	81 3d       	cpi	r24, 0xD1	; 209
    2204:	27 e0       	ldi	r18, 0x07	; 7
    2206:	92 07       	cpc	r25, r18
    2208:	10 f0       	brcs	.+4      	; 0x220e <TimerFInit+0x1e>
    220a:	80 ed       	ldi	r24, 0xD0	; 208
    220c:	97 e0       	ldi	r25, 0x07	; 7
	if(period_ms > 2000) period_ms = 2000;			//ograniczenie ze wzgldu na przepenienie
	TCF0_PER = (period_ms*32000UL)/1024;			//przeliczenie okresu na 1ms*period
    220e:	9c 01       	movw	r18, r24
    2210:	a0 e0       	ldi	r26, 0x00	; 0
    2212:	bd e7       	ldi	r27, 0x7D	; 125
    2214:	0e 94 7a 1d 	call	0x3af4	; 0x3af4 <__umulhisi3>
    2218:	dc 01       	movw	r26, r24
    221a:	cb 01       	movw	r24, r22
    221c:	07 2e       	mov	r0, r23
    221e:	7a e0       	ldi	r23, 0x0A	; 10
    2220:	b6 95       	lsr	r27
    2222:	a7 95       	ror	r26
    2224:	97 95       	ror	r25
    2226:	87 95       	ror	r24
    2228:	7a 95       	dec	r23
    222a:	d1 f7       	brne	.-12     	; 0x2220 <TimerFInit+0x30>
    222c:	70 2d       	mov	r23, r0
    222e:	80 93 26 0b 	sts	0x0B26, r24	; 0x800b26 <__TEXT_REGION_LENGTH__+0x700b26>
    2232:	90 93 27 0b 	sts	0x0B27, r25	; 0x800b27 <__TEXT_REGION_LENGTH__+0x700b27>
	TCF0_INTCTRLA = TC_OVFINTLVL_MED_gc;			//redni poziom przerwania od przepenienia
    2236:	82 e0       	ldi	r24, 0x02	; 2
    2238:	80 93 06 0b 	sts	0x0B06, r24	; 0x800b06 <__TEXT_REGION_LENGTH__+0x700b06>
    223c:	08 95       	ret

0000223e <GPS_Init>:
	ADCA.PRESCALER = ADC_PRESCALER_DIV32_gc;
	ADCA.CH0.CTRL = ADC_CH_INPUTMODE_SINGLEENDED_gc;
}

void GPS_Init(void){
	GPS_UART_PORT.OUTCLR = PIN2_bm;					//konfiguracja pinw Rx i Tx
    223e:	e0 ea       	ldi	r30, 0xA0	; 160
    2240:	f6 e0       	ldi	r31, 0x06	; 6
    2242:	84 e0       	ldi	r24, 0x04	; 4
    2244:	86 83       	std	Z+6, r24	; 0x06
	GPS_UART_PORT.OUTSET = PIN3_bm;
    2246:	88 e0       	ldi	r24, 0x08	; 8
    2248:	85 83       	std	Z+5, r24	; 0x05
	GPS_UART_PORT.DIRSET = PIN3_bm;
    224a:	81 83       	std	Z+1, r24	; 0x01
	
	GPS_UART.CTRLC = USART_CHSIZE_8BIT_gc;			//ramka: 8bitw, 1 bit stopu, brak bitu parzystoci
    224c:	e0 ea       	ldi	r30, 0xA0	; 160
    224e:	fb e0       	ldi	r31, 0x0B	; 11
    2250:	83 e0       	ldi	r24, 0x03	; 3
    2252:	85 83       	std	Z+5, r24	; 0x05
	int16_t BSEL = GPS_BSEL;							//konfiguracja prdkoci transmisji 115200
	int8_t BSCALE = GPS_BSCALE;					//-6
	GPS_UART.BAUDCTRLA = (uint8_t)(BSEL&0x00FF);
    2254:	87 e1       	ldi	r24, 0x17	; 23
    2256:	86 83       	std	Z+6, r24	; 0x06
	GPS_UART.BAUDCTRLB = (uint8_t)(((BSEL >> 8) & 0x000F) | BSCALE) ;
    2258:	84 ea       	ldi	r24, 0xA4	; 164
    225a:	87 83       	std	Z+7, r24	; 0x07
	GPS_UART.CTRLA |= USART_RXCINTLVL_LO_gc;								//odblokowanie przerwa odbiornika, niski priorytet
    225c:	83 81       	ldd	r24, Z+3	; 0x03
    225e:	80 61       	ori	r24, 0x10	; 16
    2260:	83 83       	std	Z+3, r24	; 0x03
	GPS_UART.CTRLB |= USART_TXEN_bm | USART_RXEN_bm;						//wczenie nadajnika i odbiornika USART
    2262:	84 81       	ldd	r24, Z+4	; 0x04
    2264:	88 61       	ori	r24, 0x18	; 24
    2266:	84 83       	std	Z+4, r24	; 0x04
    2268:	08 95       	ret

0000226a <GPS_Conf>:
}

void GPS_Conf(void){
    226a:	08 95       	ret

0000226c <USART_Init>:
	}
	*/
}

void USART_Init(void){
	XBEE_UART_PORT.OUTCLR = PIN2_bm;					//konfiguracja pinw Rx i Tx
    226c:	e0 e6       	ldi	r30, 0x60	; 96
    226e:	f6 e0       	ldi	r31, 0x06	; 6
    2270:	84 e0       	ldi	r24, 0x04	; 4
    2272:	86 83       	std	Z+6, r24	; 0x06
	XBEE_UART_PORT.OUTSET = PIN3_bm;
    2274:	88 e0       	ldi	r24, 0x08	; 8
    2276:	85 83       	std	Z+5, r24	; 0x05
	XBEE_UART_PORT.DIRSET = PIN3_bm;
    2278:	81 83       	std	Z+1, r24	; 0x01
	
	XBEE_UART.CTRLC = USART_CHSIZE_8BIT_gc;	//ramka: 8bitw, 1 bit stopu, brak bitu parzystoci
    227a:	e0 ea       	ldi	r30, 0xA0	; 160
    227c:	f9 e0       	ldi	r31, 0x09	; 9
    227e:	83 e0       	ldi	r24, 0x03	; 3
    2280:	85 83       	std	Z+5, r24	; 0x05
	int16_t BSEL = 1047;					//konfiguracja prdkoci transmisji 115200
	int8_t BSCALE = 0b10100000;				//-6
	XBEE_UART.BAUDCTRLA = (uint8_t)(BSEL&0x00FF);
    2282:	87 e1       	ldi	r24, 0x17	; 23
    2284:	86 83       	std	Z+6, r24	; 0x06
	XBEE_UART.BAUDCTRLB = (uint8_t)(((BSEL >> 8) & 0x000F) | BSCALE) ;
    2286:	84 ea       	ldi	r24, 0xA4	; 164
    2288:	87 83       	std	Z+7, r24	; 0x07
	XBEE_UART.CTRLA |= USART_RXCINTLVL_LO_gc | USART_TXCINTLVL_HI_gc;		//odblokowanie przerwa nadajnika i odbiornika, niski priorytet
    228a:	83 81       	ldd	r24, Z+3	; 0x03
    228c:	8c 61       	ori	r24, 0x1C	; 28
    228e:	83 83       	std	Z+3, r24	; 0x03
	XBEE_UART.CTRLB |= USART_TXEN_bm | USART_RXEN_bm;						//wczenie nadajnika i odbiornika USART
    2290:	84 81       	ldd	r24, Z+4	; 0x04
    2292:	88 61       	ori	r24, 0x18	; 24
    2294:	84 83       	std	Z+4, r24	; 0x04
    2296:	08 95       	ret

00002298 <IO_Init>:
}

void IO_Init(void){
    2298:	cf 93       	push	r28
    229a:	df 93       	push	r29
	//konfiguracja przyciskw
	PORTE_PIN0CTRL = PORT_OPC_PULLUP_gc;		//wczenie Pull-up przycisku 1
    229c:	88 e1       	ldi	r24, 0x18	; 24
    229e:	80 93 90 06 	sts	0x0690, r24	; 0x800690 <__TEXT_REGION_LENGTH__+0x700690>
	PORTE_PIN1CTRL = PORT_OPC_PULLUP_gc;		//wczenie Pull-up przycisku 2
    22a2:	80 93 91 06 	sts	0x0691, r24	; 0x800691 <__TEXT_REGION_LENGTH__+0x700691>
	//konfiguracja pinw kontroli GPS
	PORTA_DIR |= PIN0_bm;
    22a6:	a0 e0       	ldi	r26, 0x00	; 0
    22a8:	b6 e0       	ldi	r27, 0x06	; 6
    22aa:	8c 91       	ld	r24, X
    22ac:	81 60       	ori	r24, 0x01	; 1
    22ae:	8c 93       	st	X, r24
	PORTA_OUTCLR = PIN0_bm;
    22b0:	e6 e0       	ldi	r30, 0x06	; 6
    22b2:	f6 e0       	ldi	r31, 0x06	; 6
    22b4:	21 e0       	ldi	r18, 0x01	; 1
    22b6:	20 83       	st	Z, r18
	//konfiguracja LED
	PORTA_DIR |= PIN2_bm | PIN3_bm | PIN4_bm | PIN5_bm | PIN6_bm;	//konfiguracja kierunku pinw LED
    22b8:	8c 91       	ld	r24, X
    22ba:	8c 67       	ori	r24, 0x7C	; 124
    22bc:	8c 93       	st	X, r24
	PORTA_OUTCLR = PIN2_bm | PIN3_bm | PIN4_bm | PIN5_bm | PIN6_bm;	//konfiguracja stanu pinw LED
    22be:	8c e7       	ldi	r24, 0x7C	; 124
    22c0:	80 83       	st	Z, r24
	//konfiguracja buzzera
	PORTF_DIR |= PIN6_bm;						//konfiguracja kierunku pinu buzzera
    22c2:	a0 ea       	ldi	r26, 0xA0	; 160
    22c4:	b6 e0       	ldi	r27, 0x06	; 6
    22c6:	8c 91       	ld	r24, X
    22c8:	80 64       	ori	r24, 0x40	; 64
    22ca:	8c 93       	st	X, r24
	PORTF_OUTCLR = PIN6_bm;						//konfiguracja stanu pinu buzzer
    22cc:	66 ea       	ldi	r22, 0xA6	; 166
    22ce:	76 e0       	ldi	r23, 0x06	; 6
    22d0:	50 e4       	ldi	r21, 0x40	; 64
    22d2:	db 01       	movw	r26, r22
    22d4:	5c 93       	st	X, r21
	//konfiguracja wyj POWER
	PORTC_DIRSET = PIN2_bm;			//konfiguracja kierunku pinw POWER
    22d6:	34 e0       	ldi	r19, 0x04	; 4
    22d8:	30 93 41 06 	sts	0x0641, r19	; 0x800641 <__TEXT_REGION_LENGTH__+0x700641>
	PORTC_OUTCLR = PIN2_bm;			//konfiguracja stanu pinw POWER
    22dc:	30 93 46 06 	sts	0x0646, r19	; 0x800646 <__TEXT_REGION_LENGTH__+0x700646>
	PORTD_DIRSET = PIN1_bm;			//konfiguracja kierunku pinw POWER
    22e0:	c1 e6       	ldi	r28, 0x61	; 97
    22e2:	d6 e0       	ldi	r29, 0x06	; 6
    22e4:	82 e0       	ldi	r24, 0x02	; 2
    22e6:	88 83       	st	Y, r24
	PORTD_OUTCLR = PIN1_bm;			//konfiguracja stanu pinw POWER
    22e8:	a6 e6       	ldi	r26, 0x66	; 102
    22ea:	b6 e0       	ldi	r27, 0x06	; 6
    22ec:	8c 93       	st	X, r24
	//konfiguracja interfejsu XBEE
	PORTD_OUTCLR = PIN2_bm;		//RX
    22ee:	3c 93       	st	X, r19
	PORTD_DIRSET = PIN3_bm;		//TX
    22f0:	48 e0       	ldi	r20, 0x08	; 8
    22f2:	48 83       	st	Y, r20
	PORTD_DIRSET = PIN5_bm;		//sleep pin
    22f4:	90 e2       	ldi	r25, 0x20	; 32
    22f6:	98 83       	st	Y, r25
	PORTD_OUTCLR = PIN5_bm;
    22f8:	9c 93       	st	X, r25
	//konfiguracja interfejsu GPS
	PORTF_OUTCLR = PIN2_bm;
    22fa:	db 01       	movw	r26, r22
    22fc:	3c 93       	st	X, r19
	PORTF_OUTSET = PIN3_bm;
    22fe:	40 93 a5 06 	sts	0x06A5, r20	; 0x8006a5 <__TEXT_REGION_LENGTH__+0x7006a5>
	PORTF_DIRSET = PIN3_bm;
    2302:	40 93 a1 06 	sts	0x06A1, r20	; 0x8006a1 <__TEXT_REGION_LENGTH__+0x7006a1>
	//konfiguracja pinw I2C
	PORTC_DIR = PIN0_bm | PIN1_bm;
    2306:	33 e0       	ldi	r19, 0x03	; 3
    2308:	30 93 40 06 	sts	0x0640, r19	; 0x800640 <__TEXT_REGION_LENGTH__+0x700640>
	PORTC_OUT = PIN0_bm | PIN1_bm;
    230c:	30 93 44 06 	sts	0x0644, r19	; 0x800644 <__TEXT_REGION_LENGTH__+0x700644>
	//konfiguracja wej data ready
	PORTR_DIRCLR = PIN0_bm;		//LPS
    2310:	a2 ee       	ldi	r26, 0xE2	; 226
    2312:	b7 e0       	ldi	r27, 0x07	; 7
    2314:	2c 93       	st	X, r18
	PORTR_DIRCLR = PIN1_bm;		//LIS
    2316:	8c 93       	st	X, r24
	PORTE_DIRCLR = PIN4_bm;		//MPU
    2318:	a2 e8       	ldi	r26, 0x82	; 130
    231a:	b6 e0       	ldi	r27, 0x06	; 6
    231c:	30 e1       	ldi	r19, 0x10	; 16
    231e:	3c 93       	st	X, r19
	PORTE_DIRCLR = PIN5_bm;		//LSM
    2320:	9c 93       	st	X, r25
	PORTF_DIRCLR = PIN0_bm;		//LSM
    2322:	a2 ea       	ldi	r26, 0xA2	; 162
    2324:	b6 e0       	ldi	r27, 0x06	; 6
    2326:	2c 93       	st	X, r18
	PORTF_DIRCLR = PIN1_bm;		//HMC
    2328:	8c 93       	st	X, r24
	PORTF_DIRCLR = PIN4_bm;		//LIS2
    232a:	3c 93       	st	X, r19
	PORTD_DIRCLR = PIN4_bm;		//HP
    232c:	30 93 62 06 	sts	0x0662, r19	; 0x800662 <__TEXT_REGION_LENGTH__+0x700662>
	//konfiguracja wej ADC
	PORTA_OUTCLR = PIN1_bm;		//Vsense2
    2330:	80 83       	st	Z, r24
	PORTA_OUTCLR = PIN7_bm;		//Vsense
    2332:	80 e8       	ldi	r24, 0x80	; 128
    2334:	80 83       	st	Z, r24
	PORTB_OUTCLR = PIN0_bm;		//Vusb
    2336:	e6 e2       	ldi	r30, 0x26	; 38
    2338:	f6 e0       	ldi	r31, 0x06	; 6
    233a:	20 83       	st	Z, r18
	PORTB_OUTCLR = PIN5_bm;		//light1
    233c:	90 83       	st	Z, r25
	PORTB_OUTCLR = PIN6_bm;		//light2
    233e:	50 83       	st	Z, r21
	PORTB_OUTCLR = PIN7_bm;		//light3
    2340:	80 83       	st	Z, r24
}
    2342:	df 91       	pop	r29
    2344:	cf 91       	pop	r28
    2346:	08 95       	ret

00002348 <I2C_Init>:

void I2C_Init(void){
	SENSORS_I2C.MASTER.CTRLA = TWI_MASTER_RIEN_bm | TWI_MASTER_WIEN_bm;		//ustawienie priorytetu przerwania na Low i w?aczenie przerwania od odbioru
    2348:	e0 e8       	ldi	r30, 0x80	; 128
    234a:	f4 e0       	ldi	r31, 0x04	; 4
    234c:	80 e3       	ldi	r24, 0x30	; 48
    234e:	81 83       	std	Z+1, r24	; 0x01
	SENSORS_I2C.MASTER.CTRLB = TWI_MASTER_SMEN_bm;                             //uruchomienie Smart Mode
    2350:	91 e0       	ldi	r25, 0x01	; 1
    2352:	92 83       	std	Z+2, r25	; 0x02
	SENSORS_I2C.MASTER.BAUD = 48;                                             //BAUD = 48 -> f=300kHz    BAUD = 21 -> f=600kHz
    2354:	85 83       	std	Z+5, r24	; 0x05
	SENSORS_I2C.MASTER.CTRLA |= TWI_MASTER_ENABLE_bm;                          //wczenie TWI
    2356:	81 81       	ldd	r24, Z+1	; 0x01
    2358:	88 60       	ori	r24, 0x08	; 8
    235a:	81 83       	std	Z+1, r24	; 0x01
	SENSORS_I2C.MASTER.STATUS = TWI_MASTER_BUSSTATE_IDLE_gc;                   //I2C wolne
    235c:	94 83       	std	Z+4, r25	; 0x04
    235e:	08 95       	ret

00002360 <SPI_Init>:
}

void SPI_Init(void){
	SPI_PORT.DIRSET = PIN4_bm;						//podcignicie CS
    2360:	e0 e4       	ldi	r30, 0x40	; 64
    2362:	f6 e0       	ldi	r31, 0x06	; 6
    2364:	80 e1       	ldi	r24, 0x10	; 16
    2366:	81 83       	std	Z+1, r24	; 0x01
	SPI_PORT.DIRSET = PIN5_bm | PIN7_bm;
    2368:	80 ea       	ldi	r24, 0xA0	; 160
    236a:	81 83       	std	Z+1, r24	; 0x01
	SPI_PORT.DIRCLR = PIN6_bm;
    236c:	80 e4       	ldi	r24, 0x40	; 64
    236e:	82 83       	std	Z+2, r24	; 0x02
	SPI_PORT.OUTSET = PIN5_bm | PIN6_bm | PIN7_bm;	//moe doda PIN6_bm
    2370:	80 ee       	ldi	r24, 0xE0	; 224
    2372:	85 83       	std	Z+5, r24	; 0x05
	//----CS---
	FLASH_CS_PORT.DIRSET = FLASH_CS_PIN;
    2374:	e0 e6       	ldi	r30, 0x60	; 96
    2376:	f6 e0       	ldi	r31, 0x06	; 6
    2378:	81 e0       	ldi	r24, 0x01	; 1
    237a:	81 83       	std	Z+1, r24	; 0x01
	FLASH_CS_PORT.OUTSET = FLASH_CS_PIN;
    237c:	85 83       	std	Z+5, r24	; 0x05
	
	//-----------Clk=250kHz-------------------------
	FLASH_SPI.CTRL = SPI_ENABLE_bm | SPI_MODE_0_gc | SPI_PRESCALER_DIV16_gc | SPI_MASTER_bm;
    237e:	81 e5       	ldi	r24, 0x51	; 81
    2380:	80 93 c0 08 	sts	0x08C0, r24	; 0x8008c0 <__TEXT_REGION_LENGTH__+0x7008c0>
    2384:	08 95       	ret

00002386 <ReadSignatureByte>:
	//FLASH_SPI.INTCTRL = SPI_INTLVL_LO_gc;
}

uint8_t ReadSignatureByte(uint16_t Address)
{
	NVM_CMD = NVM_CMD_READ_CALIB_ROW_gc;
    2386:	aa ec       	ldi	r26, 0xCA	; 202
    2388:	b1 e0       	ldi	r27, 0x01	; 1
    238a:	22 e0       	ldi	r18, 0x02	; 2
    238c:	2c 93       	st	X, r18
	uint8_t Result;
	__asm__ ("lpm %0, Z\n" : "=r" (Result) : "z" (Address));
    238e:	fc 01       	movw	r30, r24
    2390:	84 91       	lpm	r24, Z
	NVM_CMD = NVM_CMD_NO_OPERATION_gc;
    2392:	1c 92       	st	X, r1
	return Result;
    2394:	08 95       	ret

00002396 <ADC_Init>:
	if(period_ms > 2000) period_ms = 2000;			//ograniczenie ze wzgldu na przepenienie
	TCF0_PER = (period_ms*32000UL)/1024;			//przeliczenie okresu na 1ms*period
	TCF0_INTCTRLA = TC_OVFINTLVL_MED_gc;			//redni poziom przerwania od przepenienia
}

void ADC_Init(void){
    2396:	1f 93       	push	r17
    2398:	cf 93       	push	r28
    239a:	df 93       	push	r29
	ADCA.CTRLA = ADC_ENABLE_bm;
    239c:	c0 e0       	ldi	r28, 0x00	; 0
    239e:	d2 e0       	ldi	r29, 0x02	; 2
    23a0:	11 e0       	ldi	r17, 0x01	; 1
    23a2:	18 83       	st	Y, r17
	ADCA.CALL = ReadSignatureByte(0x20) ; //ADC Calibration Byte 0
    23a4:	80 e2       	ldi	r24, 0x20	; 32
    23a6:	90 e0       	ldi	r25, 0x00	; 0
    23a8:	ee df       	rcall	.-36     	; 0x2386 <ReadSignatureByte>
    23aa:	8c 87       	std	Y+12, r24	; 0x0c
	ADCA.CALH = ReadSignatureByte(0x21) ; //ADC Calibration Byte 1
    23ac:	81 e2       	ldi	r24, 0x21	; 33
    23ae:	90 e0       	ldi	r25, 0x00	; 0
    23b0:	ea df       	rcall	.-44     	; 0x2386 <ReadSignatureByte>
    23b2:	8d 87       	std	Y+13, r24	; 0x0d
	ADCA.CTRLB = ADC_RESOLUTION_12BIT_gc;	//rozdzielczo 12bit, CONVMODE=0
    23b4:	19 82       	std	Y+1, r1	; 0x01
	ADCA.REFCTRL = ADC_REFSEL_INT1V_gc;
    23b6:	1a 82       	std	Y+2, r1	; 0x02
	ADCA.PRESCALER = ADC_PRESCALER_DIV32_gc;
    23b8:	83 e0       	ldi	r24, 0x03	; 3
    23ba:	8c 83       	std	Y+4, r24	; 0x04
	ADCA.CH0.CTRL = ADC_CH_INPUTMODE_SINGLEENDED_gc;
    23bc:	18 a3       	std	Y+32, r17	; 0x20
}
    23be:	df 91       	pop	r29
    23c0:	cf 91       	pop	r28
    23c2:	1f 91       	pop	r17
    23c4:	08 95       	ret

000023c6 <LIS331HH_RegWrite>:
#include "MPU9150.h"
#include "CanSat.h"
#include "LIS331HH.h"

void LIS331HH_RegWrite(uint8_t addres, uint8_t data){
	SENSORS_I2C.MASTER.ADDR = 0x32;
    23c6:	92 e3       	ldi	r25, 0x32	; 50
    23c8:	90 93 86 04 	sts	0x0486, r25	; 0x800486 <__TEXT_REGION_LENGTH__+0x700486>
	while(!(SENSORS_I2C.MASTER.STATUS & TWI_MASTER_WIF_bm)) {}
    23cc:	e0 e8       	ldi	r30, 0x80	; 128
    23ce:	f4 e0       	ldi	r31, 0x04	; 4
    23d0:	94 81       	ldd	r25, Z+4	; 0x04
    23d2:	96 ff       	sbrs	r25, 6
    23d4:	fd cf       	rjmp	.-6      	; 0x23d0 <LIS331HH_RegWrite+0xa>
	SENSORS_I2C.MASTER.DATA = addres;
    23d6:	80 93 87 04 	sts	0x0487, r24	; 0x800487 <__TEXT_REGION_LENGTH__+0x700487>
	while(!(SENSORS_I2C.MASTER.STATUS & TWI_MASTER_WIF_bm)) {}
    23da:	e0 e8       	ldi	r30, 0x80	; 128
    23dc:	f4 e0       	ldi	r31, 0x04	; 4
    23de:	84 81       	ldd	r24, Z+4	; 0x04
    23e0:	86 ff       	sbrs	r24, 6
    23e2:	fd cf       	rjmp	.-6      	; 0x23de <LIS331HH_RegWrite+0x18>
	SENSORS_I2C.MASTER.DATA = data;
    23e4:	60 93 87 04 	sts	0x0487, r22	; 0x800487 <__TEXT_REGION_LENGTH__+0x700487>
	while(!(SENSORS_I2C.MASTER.STATUS & TWI_MASTER_WIF_bm)) {}
    23e8:	e0 e8       	ldi	r30, 0x80	; 128
    23ea:	f4 e0       	ldi	r31, 0x04	; 4
    23ec:	84 81       	ldd	r24, Z+4	; 0x04
    23ee:	86 ff       	sbrs	r24, 6
    23f0:	fd cf       	rjmp	.-6      	; 0x23ec <LIS331HH_RegWrite+0x26>
	//_delay_us(10);
	SENSORS_I2C.MASTER.CTRLC = TWI_MASTER_CMD_STOP_gc;
    23f2:	83 e0       	ldi	r24, 0x03	; 3
    23f4:	80 93 83 04 	sts	0x0483, r24	; 0x800483 <__TEXT_REGION_LENGTH__+0x700483>
    23f8:	08 95       	ret

000023fa <LIS331HH_WakeUp>:
}

void LIS331HH_WakeUp(void){
	LIS331HH_RegWrite(0x20,0x2F);	//XYZ enabled, Normal mode, 100Hz ODR
    23fa:	6f e2       	ldi	r22, 0x2F	; 47
    23fc:	80 e2       	ldi	r24, 0x20	; 32
    23fe:	e3 df       	rcall	.-58     	; 0x23c6 <LIS331HH_RegWrite>
	LIS331HH_RegWrite(0x23,0x30);	//+/-24g
    2400:	60 e3       	ldi	r22, 0x30	; 48
    2402:	83 e2       	ldi	r24, 0x23	; 35
    2404:	e0 cf       	rjmp	.-64     	; 0x23c6 <LIS331HH_RegWrite>
    2406:	08 95       	ret

00002408 <LIS331HH_Update>:
}

void LIS331HH_Update(LIS331HH_t * data){
    2408:	cf 92       	push	r12
    240a:	df 92       	push	r13
    240c:	ef 92       	push	r14
    240e:	ff 92       	push	r15
    2410:	0f 93       	push	r16
    2412:	1f 93       	push	r17
    2414:	cf 93       	push	r28
    2416:	df 93       	push	r29
    2418:	8c 01       	movw	r16, r24
	SENSORS_I2C.MASTER.ADDR = 0x32;
    241a:	82 e3       	ldi	r24, 0x32	; 50
    241c:	80 93 86 04 	sts	0x0486, r24	; 0x800486 <__TEXT_REGION_LENGTH__+0x700486>
	while(!(SENSORS_I2C.MASTER.STATUS & TWI_MASTER_WIF_bm)) {}
    2420:	e0 e8       	ldi	r30, 0x80	; 128
    2422:	f4 e0       	ldi	r31, 0x04	; 4
    2424:	94 81       	ldd	r25, Z+4	; 0x04
    2426:	96 ff       	sbrs	r25, 6
    2428:	fd cf       	rjmp	.-6      	; 0x2424 <LIS331HH_Update+0x1c>
	SENSORS_I2C.MASTER.DATA = (0x28 | 0x80);
    242a:	88 ea       	ldi	r24, 0xA8	; 168
    242c:	80 93 87 04 	sts	0x0487, r24	; 0x800487 <__TEXT_REGION_LENGTH__+0x700487>
	while(!(SENSORS_I2C.MASTER.STATUS & TWI_MASTER_WIF_bm)) {}
    2430:	e0 e8       	ldi	r30, 0x80	; 128
    2432:	f4 e0       	ldi	r31, 0x04	; 4
    2434:	94 81       	ldd	r25, Z+4	; 0x04
    2436:	96 ff       	sbrs	r25, 6
    2438:	fd cf       	rjmp	.-6      	; 0x2434 <LIS331HH_Update+0x2c>
	//_delay_us(40);
	
	SENSORS_I2C.MASTER.CTRLC = TWI_MASTER_CMD_REPSTART_gc;
    243a:	e0 e8       	ldi	r30, 0x80	; 128
    243c:	f4 e0       	ldi	r31, 0x04	; 4
    243e:	81 e0       	ldi	r24, 0x01	; 1
    2440:	83 83       	std	Z+3, r24	; 0x03
	SENSORS_I2C.MASTER.ADDR = 0x33;
    2442:	83 e3       	ldi	r24, 0x33	; 51
    2444:	86 83       	std	Z+6, r24	; 0x06
	int16_t tmp1 = I2C_ReadEnd(false);				//0x3B
    2446:	80 e0       	ldi	r24, 0x00	; 0
    2448:	8b dc       	rcall	.-1770   	; 0x1d60 <I2C_ReadEnd>
    244a:	c8 2e       	mov	r12, r24
    244c:	d1 2c       	mov	r13, r1
	tmp1 |= I2C_ReadEnd(false)<<8;					//0x3C
    244e:	80 e0       	ldi	r24, 0x00	; 0
    2450:	87 dc       	rcall	.-1778   	; 0x1d60 <I2C_ReadEnd>
    2452:	d8 2a       	or	r13, r24
	int16_t tmp2 = I2C_ReadEnd(false);				//0x3D
    2454:	80 e0       	ldi	r24, 0x00	; 0
    2456:	84 dc       	rcall	.-1784   	; 0x1d60 <I2C_ReadEnd>
    2458:	e8 2e       	mov	r14, r24
    245a:	f1 2c       	mov	r15, r1
	tmp2 |= I2C_ReadEnd(false)<<8;					//0x3E
    245c:	80 e0       	ldi	r24, 0x00	; 0
    245e:	80 dc       	rcall	.-1792   	; 0x1d60 <I2C_ReadEnd>
    2460:	f8 2a       	or	r15, r24
	int16_t tmp3 = I2C_ReadEnd(false);				//0x3F
    2462:	80 e0       	ldi	r24, 0x00	; 0
    2464:	7d dc       	rcall	.-1798   	; 0x1d60 <I2C_ReadEnd>
    2466:	c8 2f       	mov	r28, r24
    2468:	d0 e0       	ldi	r29, 0x00	; 0
	tmp3 |= I2C_ReadEnd(true)<<8;					//
    246a:	81 e0       	ldi	r24, 0x01	; 1
    246c:	79 dc       	rcall	.-1806   	; 0x1d60 <I2C_ReadEnd>
	
	data->raw_accel_x = tmp1;
    246e:	f8 01       	movw	r30, r16
    2470:	c0 82       	st	Z, r12
    2472:	d1 82       	std	Z+1, r13	; 0x01
	data->raw_accel_y = tmp2;
    2474:	e2 82       	std	Z+2, r14	; 0x02
    2476:	f3 82       	std	Z+3, r15	; 0x03
	int16_t tmp1 = I2C_ReadEnd(false);				//0x3B
	tmp1 |= I2C_ReadEnd(false)<<8;					//0x3C
	int16_t tmp2 = I2C_ReadEnd(false);				//0x3D
	tmp2 |= I2C_ReadEnd(false)<<8;					//0x3E
	int16_t tmp3 = I2C_ReadEnd(false);				//0x3F
	tmp3 |= I2C_ReadEnd(true)<<8;					//
    2478:	d8 2b       	or	r29, r24
	
	data->raw_accel_x = tmp1;
	data->raw_accel_y = tmp2;
	data->raw_accel_z = tmp3;
    247a:	c4 83       	std	Z+4, r28	; 0x04
    247c:	d5 83       	std	Z+5, r29	; 0x05
}
    247e:	df 91       	pop	r29
    2480:	cf 91       	pop	r28
    2482:	1f 91       	pop	r17
    2484:	0f 91       	pop	r16
    2486:	ff 90       	pop	r15
    2488:	ef 90       	pop	r14
    248a:	df 90       	pop	r13
    248c:	cf 90       	pop	r12
    248e:	08 95       	ret

00002490 <LIS331HH_Calc>:

void LIS331HH_Calc(LIS331HH_t * LIS331HH){
    2490:	0f 93       	push	r16
    2492:	1f 93       	push	r17
    2494:	cf 93       	push	r28
    2496:	df 93       	push	r29
    2498:	cd b7       	in	r28, 0x3d	; 61
    249a:	de b7       	in	r29, 0x3e	; 62
    249c:	2c 97       	sbiw	r28, 0x0c	; 12
    249e:	cd bf       	out	0x3d, r28	; 61
    24a0:	de bf       	out	0x3e, r29	; 62
    24a2:	8c 01       	movw	r16, r24
	float volatile tmp1, tmp2, tmp3;
	float offset = -0.2246;
	
	tmp1 = (LIS331HH->raw_accel_x)*(48/65536.0);
    24a4:	fc 01       	movw	r30, r24
    24a6:	60 81       	ld	r22, Z
    24a8:	71 81       	ldd	r23, Z+1	; 0x01
    24aa:	07 2e       	mov	r0, r23
    24ac:	00 0c       	add	r0, r0
    24ae:	88 0b       	sbc	r24, r24
    24b0:	99 0b       	sbc	r25, r25
    24b2:	fa d7       	rcall	.+4084   	; 0x34a8 <__floatsisf>
    24b4:	20 e0       	ldi	r18, 0x00	; 0
    24b6:	30 e0       	ldi	r19, 0x00	; 0
    24b8:	40 e4       	ldi	r20, 0x40	; 64
    24ba:	5a e3       	ldi	r21, 0x3A	; 58
    24bc:	0e 94 48 1b 	call	0x3690	; 0x3690 <__mulsf3>
    24c0:	69 83       	std	Y+1, r22	; 0x01
    24c2:	7a 83       	std	Y+2, r23	; 0x02
    24c4:	8b 83       	std	Y+3, r24	; 0x03
    24c6:	9c 83       	std	Y+4, r25	; 0x04
	tmp2 = (LIS331HH->raw_accel_y)*(48/65536.0);
    24c8:	f8 01       	movw	r30, r16
    24ca:	62 81       	ldd	r22, Z+2	; 0x02
    24cc:	73 81       	ldd	r23, Z+3	; 0x03
    24ce:	07 2e       	mov	r0, r23
    24d0:	00 0c       	add	r0, r0
    24d2:	88 0b       	sbc	r24, r24
    24d4:	99 0b       	sbc	r25, r25
    24d6:	e8 d7       	rcall	.+4048   	; 0x34a8 <__floatsisf>
    24d8:	20 e0       	ldi	r18, 0x00	; 0
    24da:	30 e0       	ldi	r19, 0x00	; 0
    24dc:	40 e4       	ldi	r20, 0x40	; 64
    24de:	5a e3       	ldi	r21, 0x3A	; 58
    24e0:	0e 94 48 1b 	call	0x3690	; 0x3690 <__mulsf3>
    24e4:	6d 83       	std	Y+5, r22	; 0x05
    24e6:	7e 83       	std	Y+6, r23	; 0x06
    24e8:	8f 83       	std	Y+7, r24	; 0x07
    24ea:	98 87       	std	Y+8, r25	; 0x08
	tmp3 = (LIS331HH->raw_accel_z)*(48/65536.0);
    24ec:	f8 01       	movw	r30, r16
    24ee:	64 81       	ldd	r22, Z+4	; 0x04
    24f0:	75 81       	ldd	r23, Z+5	; 0x05
    24f2:	07 2e       	mov	r0, r23
    24f4:	00 0c       	add	r0, r0
    24f6:	88 0b       	sbc	r24, r24
    24f8:	99 0b       	sbc	r25, r25
    24fa:	d6 d7       	rcall	.+4012   	; 0x34a8 <__floatsisf>
    24fc:	20 e0       	ldi	r18, 0x00	; 0
    24fe:	30 e0       	ldi	r19, 0x00	; 0
    2500:	40 e4       	ldi	r20, 0x40	; 64
    2502:	5a e3       	ldi	r21, 0x3A	; 58
    2504:	0e 94 48 1b 	call	0x3690	; 0x3690 <__mulsf3>
    2508:	69 87       	std	Y+9, r22	; 0x09
    250a:	7a 87       	std	Y+10, r23	; 0x0a
    250c:	8b 87       	std	Y+11, r24	; 0x0b
    250e:	9c 87       	std	Y+12, r25	; 0x0c
	
	LIS331HH->accel_x = tmp1-offset;
    2510:	69 81       	ldd	r22, Y+1	; 0x01
    2512:	7a 81       	ldd	r23, Y+2	; 0x02
    2514:	8b 81       	ldd	r24, Y+3	; 0x03
    2516:	9c 81       	ldd	r25, Y+4	; 0x04
    2518:	2b e8       	ldi	r18, 0x8B	; 139
    251a:	3d ef       	ldi	r19, 0xFD	; 253
    251c:	45 e6       	ldi	r20, 0x65	; 101
    251e:	5e e3       	ldi	r21, 0x3E	; 62
    2520:	c0 d6       	rcall	.+3456   	; 0x32a2 <__addsf3>
    2522:	f8 01       	movw	r30, r16
    2524:	66 83       	std	Z+6, r22	; 0x06
    2526:	77 83       	std	Z+7, r23	; 0x07
    2528:	80 87       	std	Z+8, r24	; 0x08
    252a:	91 87       	std	Z+9, r25	; 0x09
	LIS331HH->accel_y = tmp2-offset;
    252c:	6d 81       	ldd	r22, Y+5	; 0x05
    252e:	7e 81       	ldd	r23, Y+6	; 0x06
    2530:	8f 81       	ldd	r24, Y+7	; 0x07
    2532:	98 85       	ldd	r25, Y+8	; 0x08
    2534:	2b e8       	ldi	r18, 0x8B	; 139
    2536:	3d ef       	ldi	r19, 0xFD	; 253
    2538:	45 e6       	ldi	r20, 0x65	; 101
    253a:	5e e3       	ldi	r21, 0x3E	; 62
    253c:	b2 d6       	rcall	.+3428   	; 0x32a2 <__addsf3>
    253e:	f8 01       	movw	r30, r16
    2540:	62 87       	std	Z+10, r22	; 0x0a
    2542:	73 87       	std	Z+11, r23	; 0x0b
    2544:	84 87       	std	Z+12, r24	; 0x0c
    2546:	95 87       	std	Z+13, r25	; 0x0d
	LIS331HH->accel_z = tmp3+offset;
    2548:	69 85       	ldd	r22, Y+9	; 0x09
    254a:	7a 85       	ldd	r23, Y+10	; 0x0a
    254c:	8b 85       	ldd	r24, Y+11	; 0x0b
    254e:	9c 85       	ldd	r25, Y+12	; 0x0c
    2550:	2b e8       	ldi	r18, 0x8B	; 139
    2552:	3d ef       	ldi	r19, 0xFD	; 253
    2554:	45 e6       	ldi	r20, 0x65	; 101
    2556:	5e e3       	ldi	r21, 0x3E	; 62
    2558:	a3 d6       	rcall	.+3398   	; 0x32a0 <__subsf3>
    255a:	f8 01       	movw	r30, r16
    255c:	66 87       	std	Z+14, r22	; 0x0e
    255e:	77 87       	std	Z+15, r23	; 0x0f
    2560:	80 8b       	std	Z+16, r24	; 0x10
    2562:	91 8b       	std	Z+17, r25	; 0x11
    2564:	2c 96       	adiw	r28, 0x0c	; 12
    2566:	cd bf       	out	0x3d, r28	; 61
    2568:	de bf       	out	0x3e, r29	; 62
    256a:	df 91       	pop	r29
    256c:	cf 91       	pop	r28
    256e:	1f 91       	pop	r17
    2570:	0f 91       	pop	r16
    2572:	08 95       	ret

00002574 <LPS25H_config>:
#include "I2C.h"
#include "util.h"

void LPS25H_config(void){
	//--------------urednianie: press 512, temp 64-----------
	I2C_WriteReg(0xB8,0x10,0x0F);
    2574:	4f e0       	ldi	r20, 0x0F	; 15
    2576:	60 e1       	ldi	r22, 0x10	; 16
    2578:	88 eb       	ldi	r24, 0xB8	; 184
    257a:	ff db       	rcall	.-2050   	; 0x1d7a <I2C_WriteReg>
	//------------Data ready interrupt------------------------
	I2C_WriteReg(0xB8,0x23,0x01);
    257c:	41 e0       	ldi	r20, 0x01	; 1
    257e:	63 e2       	ldi	r22, 0x23	; 35
    2580:	88 eb       	ldi	r24, 0xB8	; 184
    2582:	fb db       	rcall	.-2058   	; 0x1d7a <I2C_WriteReg>
	//-------------active mode, 25Hz output-------------------
	I2C_WriteReg(0xB8,0x20,0xC0);
    2584:	40 ec       	ldi	r20, 0xC0	; 192
    2586:	60 e2       	ldi	r22, 0x20	; 32
    2588:	88 eb       	ldi	r24, 0xB8	; 184
    258a:	f7 cb       	rjmp	.-2066   	; 0x1d7a <I2C_WriteReg>
    258c:	08 95       	ret

0000258e <LPS25H_update>:
}

void LPS25H_update(LPS25H_t * LPS25H){
    258e:	0f 93       	push	r16
    2590:	1f 93       	push	r17
    2592:	cf 93       	push	r28
    2594:	df 93       	push	r29
    2596:	cd b7       	in	r28, 0x3d	; 61
    2598:	de b7       	in	r29, 0x3e	; 62
    259a:	2a 97       	sbiw	r28, 0x0a	; 10
    259c:	cd bf       	out	0x3d, r28	; 61
    259e:	de bf       	out	0x3e, r29	; 62
    25a0:	8c 01       	movw	r16, r24
	uint8_t bufor123[10];
	I2C_ReadRegister(0xB8, (0x28 | 0x80), 5, bufor123);
    25a2:	9e 01       	movw	r18, r28
    25a4:	2f 5f       	subi	r18, 0xFF	; 255
    25a6:	3f 4f       	sbci	r19, 0xFF	; 255
    25a8:	45 e0       	ldi	r20, 0x05	; 5
    25aa:	68 ea       	ldi	r22, 0xA8	; 168
    25ac:	88 eb       	ldi	r24, 0xB8	; 184
    25ae:	fe db       	rcall	.-2052   	; 0x1dac <I2C_ReadRegister>
	
	LPS25H->raw_pressure = (uint32_t)(bufor123[0]) | (uint32_t)(bufor123[1])<<8 | (uint32_t)(bufor123[2])<<16;
    25b0:	8a 81       	ldd	r24, Y+2	; 0x02
    25b2:	4b 81       	ldd	r20, Y+3	; 0x03
    25b4:	50 e0       	ldi	r21, 0x00	; 0
    25b6:	60 e0       	ldi	r22, 0x00	; 0
    25b8:	70 e0       	ldi	r23, 0x00	; 0
    25ba:	ba 01       	movw	r22, r20
    25bc:	55 27       	eor	r21, r21
    25be:	44 27       	eor	r20, r20
    25c0:	58 2b       	or	r21, r24
    25c2:	89 81       	ldd	r24, Y+1	; 0x01
    25c4:	48 2b       	or	r20, r24
    25c6:	f8 01       	movw	r30, r16
    25c8:	40 83       	st	Z, r20
    25ca:	51 83       	std	Z+1, r21	; 0x01
    25cc:	62 83       	std	Z+2, r22	; 0x02
    25ce:	73 83       	std	Z+3, r23	; 0x03
	LPS25H->raw_temp = bufor123[3] | (bufor123[4]<<8);
    25d0:	8d 81       	ldd	r24, Y+5	; 0x05
    25d2:	90 e0       	ldi	r25, 0x00	; 0
    25d4:	98 2f       	mov	r25, r24
    25d6:	88 27       	eor	r24, r24
    25d8:	2c 81       	ldd	r18, Y+4	; 0x04
    25da:	82 2b       	or	r24, r18
    25dc:	80 87       	std	Z+8, r24	; 0x08
    25de:	91 87       	std	Z+9, r25	; 0x09
}
    25e0:	2a 96       	adiw	r28, 0x0a	; 10
    25e2:	cd bf       	out	0x3d, r28	; 61
    25e4:	de bf       	out	0x3e, r29	; 62
    25e6:	df 91       	pop	r29
    25e8:	cf 91       	pop	r28
    25ea:	1f 91       	pop	r17
    25ec:	0f 91       	pop	r16
    25ee:	08 95       	ret

000025f0 <LPS25H_calc>:

void LPS25H_calc(LPS25H_t * LPS25H){
    25f0:	cf 93       	push	r28
    25f2:	df 93       	push	r29
    25f4:	ec 01       	movw	r28, r24
	float x1;
	x1 = LPS25H->raw_pressure;
    25f6:	68 81       	ld	r22, Y
    25f8:	79 81       	ldd	r23, Y+1	; 0x01
    25fa:	8a 81       	ldd	r24, Y+2	; 0x02
    25fc:	9b 81       	ldd	r25, Y+3	; 0x03
    25fe:	52 d7       	rcall	.+3748   	; 0x34a4 <__floatunsisf>
	LPS25H->pressure = x1/4096.0;
    2600:	20 e0       	ldi	r18, 0x00	; 0
    2602:	30 e0       	ldi	r19, 0x00	; 0
    2604:	40 e8       	ldi	r20, 0x80	; 128
    2606:	59 e3       	ldi	r21, 0x39	; 57
    2608:	0e 94 48 1b 	call	0x3690	; 0x3690 <__mulsf3>
    260c:	6c 83       	std	Y+4, r22	; 0x04
    260e:	7d 83       	std	Y+5, r23	; 0x05
    2610:	8e 83       	std	Y+6, r24	; 0x06
    2612:	9f 83       	std	Y+7, r25	; 0x07
	x1 = LPS25H->raw_temp;
    2614:	68 85       	ldd	r22, Y+8	; 0x08
    2616:	79 85       	ldd	r23, Y+9	; 0x09
    2618:	07 2e       	mov	r0, r23
    261a:	00 0c       	add	r0, r0
    261c:	88 0b       	sbc	r24, r24
    261e:	99 0b       	sbc	r25, r25
    2620:	43 d7       	rcall	.+3718   	; 0x34a8 <__floatsisf>
	LPS25H->temp = x1/480.0+42.5;
    2622:	20 e0       	ldi	r18, 0x00	; 0
    2624:	30 e0       	ldi	r19, 0x00	; 0
    2626:	40 ef       	ldi	r20, 0xF0	; 240
    2628:	53 e4       	ldi	r21, 0x43	; 67
    262a:	a3 d6       	rcall	.+3398   	; 0x3372 <__divsf3>
    262c:	20 e0       	ldi	r18, 0x00	; 0
    262e:	30 e0       	ldi	r19, 0x00	; 0
    2630:	4a e2       	ldi	r20, 0x2A	; 42
    2632:	52 e4       	ldi	r21, 0x42	; 66
    2634:	36 d6       	rcall	.+3180   	; 0x32a2 <__addsf3>
    2636:	6a 87       	std	Y+10, r22	; 0x0a
    2638:	7b 87       	std	Y+11, r23	; 0x0b
    263a:	8c 87       	std	Y+12, r24	; 0x0c
    263c:	9d 87       	std	Y+13, r25	; 0x0d
	
	//check data
}
    263e:	df 91       	pop	r29
    2640:	cf 91       	pop	r28
    2642:	08 95       	ret

00002644 <altitudeCalcLPS>:


void altitudeCalcLPS(LPS25H_t * LPS25H){
    2644:	4f 92       	push	r4
    2646:	5f 92       	push	r5
    2648:	6f 92       	push	r6
    264a:	7f 92       	push	r7
    264c:	8f 92       	push	r8
    264e:	9f 92       	push	r9
    2650:	af 92       	push	r10
    2652:	bf 92       	push	r11
    2654:	cf 92       	push	r12
    2656:	df 92       	push	r13
    2658:	ef 92       	push	r14
    265a:	ff 92       	push	r15
    265c:	cf 93       	push	r28
    265e:	df 93       	push	r29
    2660:	ec 01       	movw	r28, r24
	//----Calculate new altitude----------------------------
	if(LPS25H->start_pressure == 0) LPS25H->start_pressure = LPS25H->pressure;
    2662:	20 e0       	ldi	r18, 0x00	; 0
    2664:	30 e0       	ldi	r19, 0x00	; 0
    2666:	a9 01       	movw	r20, r18
    2668:	6e 85       	ldd	r22, Y+14	; 0x0e
    266a:	7f 85       	ldd	r23, Y+15	; 0x0f
    266c:	88 89       	ldd	r24, Y+16	; 0x10
    266e:	99 89       	ldd	r25, Y+17	; 0x11
    2670:	7c d6       	rcall	.+3320   	; 0x336a <__cmpsf2>
    2672:	81 11       	cpse	r24, r1
    2674:	08 c0       	rjmp	.+16     	; 0x2686 <altitudeCalcLPS+0x42>
    2676:	8c 81       	ldd	r24, Y+4	; 0x04
    2678:	9d 81       	ldd	r25, Y+5	; 0x05
    267a:	ae 81       	ldd	r26, Y+6	; 0x06
    267c:	bf 81       	ldd	r27, Y+7	; 0x07
    267e:	8e 87       	std	Y+14, r24	; 0x0e
    2680:	9f 87       	std	Y+15, r25	; 0x0f
    2682:	a8 8b       	std	Y+16, r26	; 0x10
    2684:	b9 8b       	std	Y+17, r27	; 0x11
	float new_altitude = altitudeCalc(LPS25H->pressure, LPS25H->start_pressure);
    2686:	2e 85       	ldd	r18, Y+14	; 0x0e
    2688:	3f 85       	ldd	r19, Y+15	; 0x0f
    268a:	48 89       	ldd	r20, Y+16	; 0x10
    268c:	59 89       	ldd	r21, Y+17	; 0x11
    268e:	6c 81       	ldd	r22, Y+4	; 0x04
    2690:	7d 81       	ldd	r23, Y+5	; 0x05
    2692:	8e 81       	ldd	r24, Y+6	; 0x06
    2694:	9f 81       	ldd	r25, Y+7	; 0x07
    2696:	6d d6       	rcall	.+3290   	; 0x3372 <__divsf3>
    2698:	2e e5       	ldi	r18, 0x5E	; 94
    269a:	34 ed       	ldi	r19, 0xD4	; 212
    269c:	42 e4       	ldi	r20, 0x42	; 66
    269e:	5e e3       	ldi	r21, 0x3E	; 62
    26a0:	0e 94 ab 1b 	call	0x3756	; 0x3756 <pow>
    26a4:	2b 01       	movw	r4, r22
    26a6:	3c 01       	movw	r6, r24
	
	//----Exponenetal filtering-----------------------------
	float old_altitude = LPS25H->altitude;
    26a8:	8a 88       	ldd	r8, Y+18	; 0x12
    26aa:	9b 88       	ldd	r9, Y+19	; 0x13
    26ac:	ac 88       	ldd	r10, Y+20	; 0x14
    26ae:	bd 88       	ldd	r11, Y+21	; 0x15
	LPS25H->altitude = old_altitude*(1-LPS25H_alti_alpha) + new_altitude*LPS25H_alti_alpha;	//Exponential smoothing
    26b0:	2d ec       	ldi	r18, 0xCD	; 205
    26b2:	3c ec       	ldi	r19, 0xCC	; 204
    26b4:	4c e4       	ldi	r20, 0x4C	; 76
    26b6:	5f e3       	ldi	r21, 0x3F	; 63
    26b8:	c5 01       	movw	r24, r10
    26ba:	b4 01       	movw	r22, r8
    26bc:	e9 d7       	rcall	.+4050   	; 0x3690 <__mulsf3>
    26be:	6b 01       	movw	r12, r22
    26c0:	7c 01       	movw	r14, r24


void altitudeCalcLPS(LPS25H_t * LPS25H){
	//----Calculate new altitude----------------------------
	if(LPS25H->start_pressure == 0) LPS25H->start_pressure = LPS25H->pressure;
	float new_altitude = altitudeCalc(LPS25H->pressure, LPS25H->start_pressure);
    26c2:	a3 01       	movw	r20, r6
    26c4:	92 01       	movw	r18, r4
    26c6:	60 e0       	ldi	r22, 0x00	; 0
    26c8:	70 e0       	ldi	r23, 0x00	; 0
    26ca:	80 e8       	ldi	r24, 0x80	; 128
    26cc:	9f e3       	ldi	r25, 0x3F	; 63
    26ce:	e8 d5       	rcall	.+3024   	; 0x32a0 <__subsf3>
    26d0:	20 e0       	ldi	r18, 0x00	; 0
    26d2:	32 e1       	ldi	r19, 0x12	; 18
    26d4:	4a e2       	ldi	r20, 0x2A	; 42
    26d6:	57 e4       	ldi	r21, 0x47	; 71
    26d8:	db d7       	rcall	.+4022   	; 0x3690 <__mulsf3>
	
	//----Exponenetal filtering-----------------------------
	float old_altitude = LPS25H->altitude;
	LPS25H->altitude = old_altitude*(1-LPS25H_alti_alpha) + new_altitude*LPS25H_alti_alpha;	//Exponential smoothing
    26da:	2d ec       	ldi	r18, 0xCD	; 205
    26dc:	3c ec       	ldi	r19, 0xCC	; 204
    26de:	4c e4       	ldi	r20, 0x4C	; 76
    26e0:	5e e3       	ldi	r21, 0x3E	; 62
    26e2:	d6 d7       	rcall	.+4012   	; 0x3690 <__mulsf3>
    26e4:	9b 01       	movw	r18, r22
    26e6:	ac 01       	movw	r20, r24
    26e8:	c7 01       	movw	r24, r14
    26ea:	b6 01       	movw	r22, r12
    26ec:	da d5       	rcall	.+2996   	; 0x32a2 <__addsf3>
    26ee:	6b 01       	movw	r12, r22
    26f0:	7c 01       	movw	r14, r24
    26f2:	6a 8b       	std	Y+18, r22	; 0x12
    26f4:	7b 8b       	std	Y+19, r23	; 0x13
    26f6:	8c 8b       	std	Y+20, r24	; 0x14
    26f8:	9d 8b       	std	Y+21, r25	; 0x15
	
	//----Ascent velocity-----------------------------------
	LPS25H->velocity = LPS25H->velocity*(1-LPS25H_velo_alpha) + (LPS25H->altitude-old_altitude)*LPS25H_velo_alpha* sampling_rate;
    26fa:	26 e6       	ldi	r18, 0x66	; 102
    26fc:	36 e6       	ldi	r19, 0x66	; 102
    26fe:	46 e6       	ldi	r20, 0x66	; 102
    2700:	5f e3       	ldi	r21, 0x3F	; 63
    2702:	6a 8d       	ldd	r22, Y+26	; 0x1a
    2704:	7b 8d       	ldd	r23, Y+27	; 0x1b
    2706:	8c 8d       	ldd	r24, Y+28	; 0x1c
    2708:	9d 8d       	ldd	r25, Y+29	; 0x1d
    270a:	c2 d7       	rcall	.+3972   	; 0x3690 <__mulsf3>
    270c:	2b 01       	movw	r4, r22
    270e:	3c 01       	movw	r6, r24
    2710:	a5 01       	movw	r20, r10
    2712:	94 01       	movw	r18, r8
    2714:	c7 01       	movw	r24, r14
    2716:	b6 01       	movw	r22, r12
    2718:	c3 d5       	rcall	.+2950   	; 0x32a0 <__subsf3>
    271a:	2d ec       	ldi	r18, 0xCD	; 205
    271c:	3c ec       	ldi	r19, 0xCC	; 204
    271e:	4c ec       	ldi	r20, 0xCC	; 204
    2720:	5d e3       	ldi	r21, 0x3D	; 61
    2722:	b6 d7       	rcall	.+3948   	; 0x3690 <__mulsf3>
    2724:	20 e0       	ldi	r18, 0x00	; 0
    2726:	30 e0       	ldi	r19, 0x00	; 0
    2728:	48 ec       	ldi	r20, 0xC8	; 200
    272a:	51 e4       	ldi	r21, 0x41	; 65
    272c:	b1 d7       	rcall	.+3938   	; 0x3690 <__mulsf3>
    272e:	9b 01       	movw	r18, r22
    2730:	ac 01       	movw	r20, r24
    2732:	c3 01       	movw	r24, r6
    2734:	b2 01       	movw	r22, r4
    2736:	b5 d5       	rcall	.+2922   	; 0x32a2 <__addsf3>
    2738:	6a 8f       	std	Y+26, r22	; 0x1a
    273a:	7b 8f       	std	Y+27, r23	; 0x1b
    273c:	8c 8f       	std	Y+28, r24	; 0x1c
    273e:	9d 8f       	std	Y+29, r25	; 0x1d
}
    2740:	df 91       	pop	r29
    2742:	cf 91       	pop	r28
    2744:	ff 90       	pop	r15
    2746:	ef 90       	pop	r14
    2748:	df 90       	pop	r13
    274a:	cf 90       	pop	r12
    274c:	bf 90       	pop	r11
    274e:	af 90       	pop	r10
    2750:	9f 90       	pop	r9
    2752:	8f 90       	pop	r8
    2754:	7f 90       	pop	r7
    2756:	6f 90       	pop	r6
    2758:	5f 90       	pop	r5
    275a:	4f 90       	pop	r4
    275c:	08 95       	ret

0000275e <LSM9DS0_Init>:
#include "CanSat.h"

void LSM9DS0_Init(void){
	//GYRO
	//--------------Rate 380Hz BW 100Hz-----------------------
	SENSORS_I2C.MASTER.ADDR = 0xD4;
    275e:	84 ed       	ldi	r24, 0xD4	; 212
    2760:	80 93 86 04 	sts	0x0486, r24	; 0x800486 <__TEXT_REGION_LENGTH__+0x700486>
	while(!(SENSORS_I2C.MASTER.STATUS & TWI_MASTER_WIF_bm)) {}
    2764:	e0 e8       	ldi	r30, 0x80	; 128
    2766:	f4 e0       	ldi	r31, 0x04	; 4
    2768:	84 81       	ldd	r24, Z+4	; 0x04
    276a:	86 ff       	sbrs	r24, 6
    276c:	fd cf       	rjmp	.-6      	; 0x2768 <LSM9DS0_Init+0xa>
	SENSORS_I2C.MASTER.DATA = 0x20;
    276e:	80 e2       	ldi	r24, 0x20	; 32
    2770:	80 93 87 04 	sts	0x0487, r24	; 0x800487 <__TEXT_REGION_LENGTH__+0x700487>
	while(!(SENSORS_I2C.MASTER.STATUS & TWI_MASTER_WIF_bm)) {}
    2774:	e0 e8       	ldi	r30, 0x80	; 128
    2776:	f4 e0       	ldi	r31, 0x04	; 4
    2778:	84 81       	ldd	r24, Z+4	; 0x04
    277a:	86 ff       	sbrs	r24, 6
    277c:	fd cf       	rjmp	.-6      	; 0x2778 <LSM9DS0_Init+0x1a>
	SENSORS_I2C.MASTER.DATA = 0xBF;
    277e:	8f eb       	ldi	r24, 0xBF	; 191
    2780:	80 93 87 04 	sts	0x0487, r24	; 0x800487 <__TEXT_REGION_LENGTH__+0x700487>
	while(!(SENSORS_I2C.MASTER.STATUS & TWI_MASTER_WIF_bm)) {}
    2784:	e0 e8       	ldi	r30, 0x80	; 128
    2786:	f4 e0       	ldi	r31, 0x04	; 4
    2788:	84 81       	ldd	r24, Z+4	; 0x04
    278a:	86 ff       	sbrs	r24, 6
    278c:	fd cf       	rjmp	.-6      	; 0x2788 <LSM9DS0_Init+0x2a>
	SENSORS_I2C.MASTER.CTRLC = TWI_MASTER_CMD_STOP_gc;
    278e:	e0 e8       	ldi	r30, 0x80	; 128
    2790:	f4 e0       	ldi	r31, 0x04	; 4
    2792:	83 e0       	ldi	r24, 0x03	; 3
    2794:	83 83       	std	Z+3, r24	; 0x03
	//_delay_us(40);
	//------------Scale 2000 deg/s----------------------------
	SENSORS_I2C.MASTER.ADDR = 0xD4;
    2796:	84 ed       	ldi	r24, 0xD4	; 212
    2798:	86 83       	std	Z+6, r24	; 0x06
	while(!(SENSORS_I2C.MASTER.STATUS & TWI_MASTER_WIF_bm)) {}
    279a:	84 81       	ldd	r24, Z+4	; 0x04
    279c:	86 ff       	sbrs	r24, 6
    279e:	fd cf       	rjmp	.-6      	; 0x279a <LSM9DS0_Init+0x3c>
	SENSORS_I2C.MASTER.DATA = 0x23;
    27a0:	83 e2       	ldi	r24, 0x23	; 35
    27a2:	80 93 87 04 	sts	0x0487, r24	; 0x800487 <__TEXT_REGION_LENGTH__+0x700487>
	while(!(SENSORS_I2C.MASTER.STATUS & TWI_MASTER_WIF_bm)) {}
    27a6:	e0 e8       	ldi	r30, 0x80	; 128
    27a8:	f4 e0       	ldi	r31, 0x04	; 4
    27aa:	84 81       	ldd	r24, Z+4	; 0x04
    27ac:	86 ff       	sbrs	r24, 6
    27ae:	fd cf       	rjmp	.-6      	; 0x27aa <LSM9DS0_Init+0x4c>
	SENSORS_I2C.MASTER.DATA = 0x20;
    27b0:	80 e2       	ldi	r24, 0x20	; 32
    27b2:	80 93 87 04 	sts	0x0487, r24	; 0x800487 <__TEXT_REGION_LENGTH__+0x700487>
	while(!(SENSORS_I2C.MASTER.STATUS & TWI_MASTER_WIF_bm)) {}
    27b6:	e0 e8       	ldi	r30, 0x80	; 128
    27b8:	f4 e0       	ldi	r31, 0x04	; 4
    27ba:	84 81       	ldd	r24, Z+4	; 0x04
    27bc:	86 ff       	sbrs	r24, 6
    27be:	fd cf       	rjmp	.-6      	; 0x27ba <LSM9DS0_Init+0x5c>
	SENSORS_I2C.MASTER.CTRLC = TWI_MASTER_CMD_STOP_gc;
    27c0:	e0 e8       	ldi	r30, 0x80	; 128
    27c2:	f4 e0       	ldi	r31, 0x04	; 4
    27c4:	83 e0       	ldi	r24, 0x03	; 3
    27c6:	83 83       	std	Z+3, r24	; 0x03
	//_delay_us(40);
	
	//ACCEL
	//-------------Rate 400Hz --------------------------------
	SENSORS_I2C.MASTER.ADDR = 0x3A;
    27c8:	8a e3       	ldi	r24, 0x3A	; 58
    27ca:	86 83       	std	Z+6, r24	; 0x06
	while(!(SENSORS_I2C.MASTER.STATUS & TWI_MASTER_WIF_bm)) {}
    27cc:	84 81       	ldd	r24, Z+4	; 0x04
    27ce:	86 ff       	sbrs	r24, 6
    27d0:	fd cf       	rjmp	.-6      	; 0x27cc <LSM9DS0_Init+0x6e>
	SENSORS_I2C.MASTER.DATA = 0x20;
    27d2:	80 e2       	ldi	r24, 0x20	; 32
    27d4:	80 93 87 04 	sts	0x0487, r24	; 0x800487 <__TEXT_REGION_LENGTH__+0x700487>
	while(!(SENSORS_I2C.MASTER.STATUS & TWI_MASTER_WIF_bm)) {}
    27d8:	e0 e8       	ldi	r30, 0x80	; 128
    27da:	f4 e0       	ldi	r31, 0x04	; 4
    27dc:	84 81       	ldd	r24, Z+4	; 0x04
    27de:	86 ff       	sbrs	r24, 6
    27e0:	fd cf       	rjmp	.-6      	; 0x27dc <LSM9DS0_Init+0x7e>
	SENSORS_I2C.MASTER.DATA = 0x87;
    27e2:	87 e8       	ldi	r24, 0x87	; 135
    27e4:	80 93 87 04 	sts	0x0487, r24	; 0x800487 <__TEXT_REGION_LENGTH__+0x700487>
	while(!(SENSORS_I2C.MASTER.STATUS & TWI_MASTER_WIF_bm)) {}
    27e8:	e0 e8       	ldi	r30, 0x80	; 128
    27ea:	f4 e0       	ldi	r31, 0x04	; 4
    27ec:	84 81       	ldd	r24, Z+4	; 0x04
    27ee:	86 ff       	sbrs	r24, 6
    27f0:	fd cf       	rjmp	.-6      	; 0x27ec <LSM9DS0_Init+0x8e>
	SENSORS_I2C.MASTER.CTRLC = TWI_MASTER_CMD_STOP_gc;
    27f2:	e0 e8       	ldi	r30, 0x80	; 128
    27f4:	f4 e0       	ldi	r31, 0x04	; 4
    27f6:	83 e0       	ldi	r24, 0x03	; 3
    27f8:	83 83       	std	Z+3, r24	; 0x03
	
	//-------------BW 194Hz, +/- 16g--------------------------
	SENSORS_I2C.MASTER.ADDR = 0x3A;
    27fa:	8a e3       	ldi	r24, 0x3A	; 58
    27fc:	86 83       	std	Z+6, r24	; 0x06
	while(!(SENSORS_I2C.MASTER.STATUS & TWI_MASTER_WIF_bm)) {}
    27fe:	84 81       	ldd	r24, Z+4	; 0x04
    2800:	86 ff       	sbrs	r24, 6
    2802:	fd cf       	rjmp	.-6      	; 0x27fe <LSM9DS0_Init+0xa0>
	SENSORS_I2C.MASTER.DATA = 0x21;
    2804:	81 e2       	ldi	r24, 0x21	; 33
    2806:	80 93 87 04 	sts	0x0487, r24	; 0x800487 <__TEXT_REGION_LENGTH__+0x700487>
	while(!(SENSORS_I2C.MASTER.STATUS & TWI_MASTER_WIF_bm)) {}
    280a:	e0 e8       	ldi	r30, 0x80	; 128
    280c:	f4 e0       	ldi	r31, 0x04	; 4
    280e:	84 81       	ldd	r24, Z+4	; 0x04
    2810:	86 ff       	sbrs	r24, 6
    2812:	fd cf       	rjmp	.-6      	; 0x280e <LSM9DS0_Init+0xb0>
	SENSORS_I2C.MASTER.DATA = 0x60;
    2814:	80 e6       	ldi	r24, 0x60	; 96
    2816:	80 93 87 04 	sts	0x0487, r24	; 0x800487 <__TEXT_REGION_LENGTH__+0x700487>
	while(!(SENSORS_I2C.MASTER.STATUS & TWI_MASTER_WIF_bm)) {}
    281a:	e0 e8       	ldi	r30, 0x80	; 128
    281c:	f4 e0       	ldi	r31, 0x04	; 4
    281e:	84 81       	ldd	r24, Z+4	; 0x04
    2820:	86 ff       	sbrs	r24, 6
    2822:	fd cf       	rjmp	.-6      	; 0x281e <LSM9DS0_Init+0xc0>
	SENSORS_I2C.MASTER.CTRLC = TWI_MASTER_CMD_STOP_gc;
    2824:	e0 e8       	ldi	r30, 0x80	; 128
    2826:	f4 e0       	ldi	r31, 0x04	; 4
    2828:	83 e0       	ldi	r24, 0x03	; 3
    282a:	83 83       	std	Z+3, r24	; 0x03
	
	//MAG
	//-------------Rate 50Hz Hi res--------------------------
	SENSORS_I2C.MASTER.ADDR = 0x3A;
    282c:	8a e3       	ldi	r24, 0x3A	; 58
    282e:	86 83       	std	Z+6, r24	; 0x06
	while(!(SENSORS_I2C.MASTER.STATUS & TWI_MASTER_WIF_bm)) {}
    2830:	84 81       	ldd	r24, Z+4	; 0x04
    2832:	86 ff       	sbrs	r24, 6
    2834:	fd cf       	rjmp	.-6      	; 0x2830 <LSM9DS0_Init+0xd2>
	SENSORS_I2C.MASTER.DATA = 0x24;
    2836:	84 e2       	ldi	r24, 0x24	; 36
    2838:	80 93 87 04 	sts	0x0487, r24	; 0x800487 <__TEXT_REGION_LENGTH__+0x700487>
	while(!(SENSORS_I2C.MASTER.STATUS & TWI_MASTER_WIF_bm)) {}
    283c:	e0 e8       	ldi	r30, 0x80	; 128
    283e:	f4 e0       	ldi	r31, 0x04	; 4
    2840:	84 81       	ldd	r24, Z+4	; 0x04
    2842:	86 ff       	sbrs	r24, 6
    2844:	fd cf       	rjmp	.-6      	; 0x2840 <LSM9DS0_Init+0xe2>
	SENSORS_I2C.MASTER.DATA = 0xF0;
    2846:	80 ef       	ldi	r24, 0xF0	; 240
    2848:	80 93 87 04 	sts	0x0487, r24	; 0x800487 <__TEXT_REGION_LENGTH__+0x700487>
	while(!(SENSORS_I2C.MASTER.STATUS & TWI_MASTER_WIF_bm)) {}
    284c:	e0 e8       	ldi	r30, 0x80	; 128
    284e:	f4 e0       	ldi	r31, 0x04	; 4
    2850:	84 81       	ldd	r24, Z+4	; 0x04
    2852:	86 ff       	sbrs	r24, 6
    2854:	fd cf       	rjmp	.-6      	; 0x2850 <LSM9DS0_Init+0xf2>
	SENSORS_I2C.MASTER.CTRLC = TWI_MASTER_CMD_STOP_gc;
    2856:	e0 e8       	ldi	r30, 0x80	; 128
    2858:	f4 e0       	ldi	r31, 0x04	; 4
    285a:	83 e0       	ldi	r24, 0x03	; 3
    285c:	83 83       	std	Z+3, r24	; 0x03
	
	//-------------+/-2Gauss--------------------------
	SENSORS_I2C.MASTER.ADDR = 0x3A;
    285e:	8a e3       	ldi	r24, 0x3A	; 58
    2860:	86 83       	std	Z+6, r24	; 0x06
	while(!(SENSORS_I2C.MASTER.STATUS & TWI_MASTER_WIF_bm)) {}
    2862:	84 81       	ldd	r24, Z+4	; 0x04
    2864:	86 ff       	sbrs	r24, 6
    2866:	fd cf       	rjmp	.-6      	; 0x2862 <LSM9DS0_Init+0x104>
	SENSORS_I2C.MASTER.DATA = 0x25;
    2868:	85 e2       	ldi	r24, 0x25	; 37
    286a:	80 93 87 04 	sts	0x0487, r24	; 0x800487 <__TEXT_REGION_LENGTH__+0x700487>
	while(!(SENSORS_I2C.MASTER.STATUS & TWI_MASTER_WIF_bm)) {}
    286e:	e0 e8       	ldi	r30, 0x80	; 128
    2870:	f4 e0       	ldi	r31, 0x04	; 4
    2872:	84 81       	ldd	r24, Z+4	; 0x04
    2874:	86 ff       	sbrs	r24, 6
    2876:	fd cf       	rjmp	.-6      	; 0x2872 <LSM9DS0_Init+0x114>
	SENSORS_I2C.MASTER.DATA = 0x00;
    2878:	10 92 87 04 	sts	0x0487, r1	; 0x800487 <__TEXT_REGION_LENGTH__+0x700487>
	while(!(SENSORS_I2C.MASTER.STATUS & TWI_MASTER_WIF_bm)) {}
    287c:	e0 e8       	ldi	r30, 0x80	; 128
    287e:	f4 e0       	ldi	r31, 0x04	; 4
    2880:	84 81       	ldd	r24, Z+4	; 0x04
    2882:	86 ff       	sbrs	r24, 6
    2884:	fd cf       	rjmp	.-6      	; 0x2880 <LSM9DS0_Init+0x122>
	SENSORS_I2C.MASTER.CTRLC = TWI_MASTER_CMD_STOP_gc;
    2886:	e0 e8       	ldi	r30, 0x80	; 128
    2888:	f4 e0       	ldi	r31, 0x04	; 4
    288a:	83 e0       	ldi	r24, 0x03	; 3
    288c:	83 83       	std	Z+3, r24	; 0x03
	
	//-------------Continuous mode--------------------
	SENSORS_I2C.MASTER.ADDR = 0x3A;
    288e:	8a e3       	ldi	r24, 0x3A	; 58
    2890:	86 83       	std	Z+6, r24	; 0x06
	while(!(SENSORS_I2C.MASTER.STATUS & TWI_MASTER_WIF_bm)) {}
    2892:	84 81       	ldd	r24, Z+4	; 0x04
    2894:	86 ff       	sbrs	r24, 6
    2896:	fd cf       	rjmp	.-6      	; 0x2892 <LSM9DS0_Init+0x134>
	SENSORS_I2C.MASTER.DATA = 0x26;
    2898:	86 e2       	ldi	r24, 0x26	; 38
    289a:	80 93 87 04 	sts	0x0487, r24	; 0x800487 <__TEXT_REGION_LENGTH__+0x700487>
	while(!(SENSORS_I2C.MASTER.STATUS & TWI_MASTER_WIF_bm)) {}
    289e:	e0 e8       	ldi	r30, 0x80	; 128
    28a0:	f4 e0       	ldi	r31, 0x04	; 4
    28a2:	84 81       	ldd	r24, Z+4	; 0x04
    28a4:	86 ff       	sbrs	r24, 6
    28a6:	fd cf       	rjmp	.-6      	; 0x28a2 <LSM9DS0_Init+0x144>
	SENSORS_I2C.MASTER.DATA = 0x00;
    28a8:	10 92 87 04 	sts	0x0487, r1	; 0x800487 <__TEXT_REGION_LENGTH__+0x700487>
	while(!(SENSORS_I2C.MASTER.STATUS & TWI_MASTER_WIF_bm)) {}
    28ac:	e0 e8       	ldi	r30, 0x80	; 128
    28ae:	f4 e0       	ldi	r31, 0x04	; 4
    28b0:	84 81       	ldd	r24, Z+4	; 0x04
    28b2:	86 ff       	sbrs	r24, 6
    28b4:	fd cf       	rjmp	.-6      	; 0x28b0 <LSM9DS0_Init+0x152>
	SENSORS_I2C.MASTER.CTRLC = TWI_MASTER_CMD_STOP_gc;
    28b6:	83 e0       	ldi	r24, 0x03	; 3
    28b8:	80 93 83 04 	sts	0x0483, r24	; 0x800483 <__TEXT_REGION_LENGTH__+0x700483>
    28bc:	08 95       	ret

000028be <LSM9DS0_Update>:
}

void LSM9DS0_Update(LSM9DS0_t * dane){
    28be:	0f 93       	push	r16
    28c0:	1f 93       	push	r17
    28c2:	cf 93       	push	r28
    28c4:	df 93       	push	r29
    28c6:	ec 01       	movw	r28, r24
	
	//GYRO update
	SENSORS_I2C.MASTER.ADDR = 0xD4;
    28c8:	84 ed       	ldi	r24, 0xD4	; 212
    28ca:	80 93 86 04 	sts	0x0486, r24	; 0x800486 <__TEXT_REGION_LENGTH__+0x700486>
	while(!(SENSORS_I2C.MASTER.STATUS & TWI_MASTER_WIF_bm)) {}
    28ce:	e0 e8       	ldi	r30, 0x80	; 128
    28d0:	f4 e0       	ldi	r31, 0x04	; 4
    28d2:	84 81       	ldd	r24, Z+4	; 0x04
    28d4:	86 ff       	sbrs	r24, 6
    28d6:	fd cf       	rjmp	.-6      	; 0x28d2 <LSM9DS0_Update+0x14>
	SENSORS_I2C.MASTER.DATA = (0x28 | 0x80);
    28d8:	88 ea       	ldi	r24, 0xA8	; 168
    28da:	80 93 87 04 	sts	0x0487, r24	; 0x800487 <__TEXT_REGION_LENGTH__+0x700487>
	while(!(SENSORS_I2C.MASTER.STATUS & TWI_MASTER_WIF_bm)) {}
    28de:	e0 e8       	ldi	r30, 0x80	; 128
    28e0:	f4 e0       	ldi	r31, 0x04	; 4
    28e2:	84 81       	ldd	r24, Z+4	; 0x04
    28e4:	86 ff       	sbrs	r24, 6
    28e6:	fd cf       	rjmp	.-6      	; 0x28e2 <LSM9DS0_Update+0x24>
	//_delay_us(40);
	
	SENSORS_I2C.MASTER.CTRLC = TWI_MASTER_CMD_REPSTART_gc;
    28e8:	00 e8       	ldi	r16, 0x80	; 128
    28ea:	14 e0       	ldi	r17, 0x04	; 4
    28ec:	81 e0       	ldi	r24, 0x01	; 1
    28ee:	f8 01       	movw	r30, r16
    28f0:	83 83       	std	Z+3, r24	; 0x03
	SENSORS_I2C.MASTER.ADDR = 0xD5;
    28f2:	85 ed       	ldi	r24, 0xD5	; 213
    28f4:	86 83       	std	Z+6, r24	; 0x06
	dane->raw_gyro_x = I2C_ReadEnd(false);				//0x3B
    28f6:	80 e0       	ldi	r24, 0x00	; 0
    28f8:	33 da       	rcall	.-2970   	; 0x1d60 <I2C_ReadEnd>
    28fa:	90 e0       	ldi	r25, 0x00	; 0
    28fc:	8e 83       	std	Y+6, r24	; 0x06
    28fe:	9f 83       	std	Y+7, r25	; 0x07
	dane->raw_gyro_x |= I2C_ReadEnd(false) << 8;		//0x3C
    2900:	80 e0       	ldi	r24, 0x00	; 0
    2902:	2e da       	rcall	.-2980   	; 0x1d60 <I2C_ReadEnd>
    2904:	2e 81       	ldd	r18, Y+6	; 0x06
    2906:	3f 81       	ldd	r19, Y+7	; 0x07
    2908:	38 2b       	or	r19, r24
    290a:	2e 83       	std	Y+6, r18	; 0x06
    290c:	3f 83       	std	Y+7, r19	; 0x07
	dane->raw_gyro_y = I2C_ReadEnd(false);				//0x3D
    290e:	80 e0       	ldi	r24, 0x00	; 0
    2910:	27 da       	rcall	.-2994   	; 0x1d60 <I2C_ReadEnd>
    2912:	90 e0       	ldi	r25, 0x00	; 0
    2914:	88 87       	std	Y+8, r24	; 0x08
    2916:	99 87       	std	Y+9, r25	; 0x09
	dane->raw_gyro_y |= I2C_ReadEnd(false) << 8;		//0x3E
    2918:	80 e0       	ldi	r24, 0x00	; 0
    291a:	22 da       	rcall	.-3004   	; 0x1d60 <I2C_ReadEnd>
    291c:	28 85       	ldd	r18, Y+8	; 0x08
    291e:	39 85       	ldd	r19, Y+9	; 0x09
    2920:	38 2b       	or	r19, r24
    2922:	28 87       	std	Y+8, r18	; 0x08
    2924:	39 87       	std	Y+9, r19	; 0x09
	dane->raw_gyro_z = I2C_ReadEnd(false);				//0x3F
    2926:	80 e0       	ldi	r24, 0x00	; 0
    2928:	1b da       	rcall	.-3018   	; 0x1d60 <I2C_ReadEnd>
    292a:	90 e0       	ldi	r25, 0x00	; 0
    292c:	8a 87       	std	Y+10, r24	; 0x0a
    292e:	9b 87       	std	Y+11, r25	; 0x0b
	dane->raw_gyro_z |= I2C_ReadEnd(true) << 8;			//0x40
    2930:	81 e0       	ldi	r24, 0x01	; 1
    2932:	16 da       	rcall	.-3028   	; 0x1d60 <I2C_ReadEnd>
    2934:	2a 85       	ldd	r18, Y+10	; 0x0a
    2936:	3b 85       	ldd	r19, Y+11	; 0x0b
    2938:	38 2b       	or	r19, r24
    293a:	2a 87       	std	Y+10, r18	; 0x0a
    293c:	3b 87       	std	Y+11, r19	; 0x0b
	
	//MAG update
	SENSORS_I2C.MASTER.ADDR = 0x3A;
    293e:	8a e3       	ldi	r24, 0x3A	; 58
    2940:	f8 01       	movw	r30, r16
    2942:	86 83       	std	Z+6, r24	; 0x06
	while(!(SENSORS_I2C.MASTER.STATUS & TWI_MASTER_WIF_bm)) {}
    2944:	84 81       	ldd	r24, Z+4	; 0x04
    2946:	86 ff       	sbrs	r24, 6
    2948:	fd cf       	rjmp	.-6      	; 0x2944 <LSM9DS0_Update+0x86>
	SENSORS_I2C.MASTER.DATA = (0x08 | 0x80);
    294a:	88 e8       	ldi	r24, 0x88	; 136
    294c:	80 93 87 04 	sts	0x0487, r24	; 0x800487 <__TEXT_REGION_LENGTH__+0x700487>
	while(!(SENSORS_I2C.MASTER.STATUS & TWI_MASTER_WIF_bm)) {}
    2950:	e0 e8       	ldi	r30, 0x80	; 128
    2952:	f4 e0       	ldi	r31, 0x04	; 4
    2954:	84 81       	ldd	r24, Z+4	; 0x04
    2956:	86 ff       	sbrs	r24, 6
    2958:	fd cf       	rjmp	.-6      	; 0x2954 <LSM9DS0_Update+0x96>
	//_delay_us(40);
	
	SENSORS_I2C.MASTER.CTRLC = TWI_MASTER_CMD_REPSTART_gc;
    295a:	00 e8       	ldi	r16, 0x80	; 128
    295c:	14 e0       	ldi	r17, 0x04	; 4
    295e:	81 e0       	ldi	r24, 0x01	; 1
    2960:	f8 01       	movw	r30, r16
    2962:	83 83       	std	Z+3, r24	; 0x03
	SENSORS_I2C.MASTER.ADDR = 0x3B;
    2964:	8b e3       	ldi	r24, 0x3B	; 59
    2966:	86 83       	std	Z+6, r24	; 0x06
	dane->raw_mag_x = I2C_ReadEnd(false);				//0x08
    2968:	80 e0       	ldi	r24, 0x00	; 0
    296a:	fa d9       	rcall	.-3084   	; 0x1d60 <I2C_ReadEnd>
    296c:	90 e0       	ldi	r25, 0x00	; 0
    296e:	8e 87       	std	Y+14, r24	; 0x0e
    2970:	9f 87       	std	Y+15, r25	; 0x0f
	dane->raw_mag_x |= I2C_ReadEnd(false) << 8;			//0x09
    2972:	80 e0       	ldi	r24, 0x00	; 0
    2974:	f5 d9       	rcall	.-3094   	; 0x1d60 <I2C_ReadEnd>
    2976:	2e 85       	ldd	r18, Y+14	; 0x0e
    2978:	3f 85       	ldd	r19, Y+15	; 0x0f
    297a:	38 2b       	or	r19, r24
    297c:	2e 87       	std	Y+14, r18	; 0x0e
    297e:	3f 87       	std	Y+15, r19	; 0x0f
	dane->raw_mag_y = I2C_ReadEnd(false);				//0x0A
    2980:	80 e0       	ldi	r24, 0x00	; 0
    2982:	ee d9       	rcall	.-3108   	; 0x1d60 <I2C_ReadEnd>
    2984:	90 e0       	ldi	r25, 0x00	; 0
    2986:	88 8b       	std	Y+16, r24	; 0x10
    2988:	99 8b       	std	Y+17, r25	; 0x11
	dane->raw_mag_y |= I2C_ReadEnd(false) << 8;			//0x0B
    298a:	80 e0       	ldi	r24, 0x00	; 0
    298c:	e9 d9       	rcall	.-3118   	; 0x1d60 <I2C_ReadEnd>
    298e:	28 89       	ldd	r18, Y+16	; 0x10
    2990:	39 89       	ldd	r19, Y+17	; 0x11
    2992:	38 2b       	or	r19, r24
    2994:	28 8b       	std	Y+16, r18	; 0x10
    2996:	39 8b       	std	Y+17, r19	; 0x11
	dane->raw_mag_z = I2C_ReadEnd(false);				//0x0C
    2998:	80 e0       	ldi	r24, 0x00	; 0
    299a:	e2 d9       	rcall	.-3132   	; 0x1d60 <I2C_ReadEnd>
    299c:	90 e0       	ldi	r25, 0x00	; 0
    299e:	8a 8b       	std	Y+18, r24	; 0x12
    29a0:	9b 8b       	std	Y+19, r25	; 0x13
	dane->raw_mag_z |= I2C_ReadEnd(true) << 8;			//0x0D
    29a2:	81 e0       	ldi	r24, 0x01	; 1
    29a4:	dd d9       	rcall	.-3142   	; 0x1d60 <I2C_ReadEnd>
    29a6:	2a 89       	ldd	r18, Y+18	; 0x12
    29a8:	3b 89       	ldd	r19, Y+19	; 0x13
    29aa:	38 2b       	or	r19, r24
    29ac:	2a 8b       	std	Y+18, r18	; 0x12
    29ae:	3b 8b       	std	Y+19, r19	; 0x13
	
	//ACCEL update
	SENSORS_I2C.MASTER.ADDR = 0x3A;
    29b0:	8a e3       	ldi	r24, 0x3A	; 58
    29b2:	f8 01       	movw	r30, r16
    29b4:	86 83       	std	Z+6, r24	; 0x06
	while(!(SENSORS_I2C.MASTER.STATUS & TWI_MASTER_WIF_bm)) {}
    29b6:	84 81       	ldd	r24, Z+4	; 0x04
    29b8:	86 ff       	sbrs	r24, 6
    29ba:	fd cf       	rjmp	.-6      	; 0x29b6 <LSM9DS0_Update+0xf8>
	SENSORS_I2C.MASTER.DATA = (0x28 | 0x80);
    29bc:	88 ea       	ldi	r24, 0xA8	; 168
    29be:	80 93 87 04 	sts	0x0487, r24	; 0x800487 <__TEXT_REGION_LENGTH__+0x700487>
	while(!(SENSORS_I2C.MASTER.STATUS & TWI_MASTER_WIF_bm)) {}
    29c2:	e0 e8       	ldi	r30, 0x80	; 128
    29c4:	f4 e0       	ldi	r31, 0x04	; 4
    29c6:	84 81       	ldd	r24, Z+4	; 0x04
    29c8:	86 ff       	sbrs	r24, 6
    29ca:	fd cf       	rjmp	.-6      	; 0x29c6 <LSM9DS0_Update+0x108>
	//_delay_us(40);
	
	SENSORS_I2C.MASTER.CTRLC = TWI_MASTER_CMD_REPSTART_gc;
    29cc:	00 e8       	ldi	r16, 0x80	; 128
    29ce:	14 e0       	ldi	r17, 0x04	; 4
    29d0:	81 e0       	ldi	r24, 0x01	; 1
    29d2:	f8 01       	movw	r30, r16
    29d4:	83 83       	std	Z+3, r24	; 0x03
	SENSORS_I2C.MASTER.ADDR = 0x3B;
    29d6:	8b e3       	ldi	r24, 0x3B	; 59
    29d8:	86 83       	std	Z+6, r24	; 0x06
	dane->raw_accel_x = I2C_ReadEnd(false);				//0x3B
    29da:	80 e0       	ldi	r24, 0x00	; 0
    29dc:	c1 d9       	rcall	.-3198   	; 0x1d60 <I2C_ReadEnd>
    29de:	90 e0       	ldi	r25, 0x00	; 0
    29e0:	88 83       	st	Y, r24
    29e2:	99 83       	std	Y+1, r25	; 0x01
	dane->raw_accel_x |= I2C_ReadEnd(false) << 8;		//0x3C
    29e4:	80 e0       	ldi	r24, 0x00	; 0
    29e6:	bc d9       	rcall	.-3208   	; 0x1d60 <I2C_ReadEnd>
    29e8:	28 81       	ld	r18, Y
    29ea:	39 81       	ldd	r19, Y+1	; 0x01
    29ec:	38 2b       	or	r19, r24
    29ee:	28 83       	st	Y, r18
    29f0:	39 83       	std	Y+1, r19	; 0x01
	dane->raw_accel_y = I2C_ReadEnd(false);				//0x3D
    29f2:	80 e0       	ldi	r24, 0x00	; 0
    29f4:	b5 d9       	rcall	.-3222   	; 0x1d60 <I2C_ReadEnd>
    29f6:	90 e0       	ldi	r25, 0x00	; 0
    29f8:	8a 83       	std	Y+2, r24	; 0x02
    29fa:	9b 83       	std	Y+3, r25	; 0x03
	dane->raw_accel_y |= I2C_ReadEnd(false) << 8;		//0x3E
    29fc:	80 e0       	ldi	r24, 0x00	; 0
    29fe:	b0 d9       	rcall	.-3232   	; 0x1d60 <I2C_ReadEnd>
    2a00:	2a 81       	ldd	r18, Y+2	; 0x02
    2a02:	3b 81       	ldd	r19, Y+3	; 0x03
    2a04:	38 2b       	or	r19, r24
    2a06:	2a 83       	std	Y+2, r18	; 0x02
    2a08:	3b 83       	std	Y+3, r19	; 0x03
	dane->raw_accel_z = I2C_ReadEnd(false);				//0x3F
    2a0a:	80 e0       	ldi	r24, 0x00	; 0
    2a0c:	a9 d9       	rcall	.-3246   	; 0x1d60 <I2C_ReadEnd>
    2a0e:	90 e0       	ldi	r25, 0x00	; 0
    2a10:	8c 83       	std	Y+4, r24	; 0x04
    2a12:	9d 83       	std	Y+5, r25	; 0x05
	dane->raw_accel_z |= I2C_ReadEnd(true) << 8;		//0x40
    2a14:	81 e0       	ldi	r24, 0x01	; 1
    2a16:	a4 d9       	rcall	.-3256   	; 0x1d60 <I2C_ReadEnd>
    2a18:	2c 81       	ldd	r18, Y+4	; 0x04
    2a1a:	3d 81       	ldd	r19, Y+5	; 0x05
    2a1c:	38 2b       	or	r19, r24
    2a1e:	2c 83       	std	Y+4, r18	; 0x04
    2a20:	3d 83       	std	Y+5, r19	; 0x05
	
	//TEMP update
	SENSORS_I2C.MASTER.ADDR = 0x3A;
    2a22:	8a e3       	ldi	r24, 0x3A	; 58
    2a24:	f8 01       	movw	r30, r16
    2a26:	86 83       	std	Z+6, r24	; 0x06
	while(!(SENSORS_I2C.MASTER.STATUS & TWI_MASTER_WIF_bm)) {}
    2a28:	84 81       	ldd	r24, Z+4	; 0x04
    2a2a:	86 ff       	sbrs	r24, 6
    2a2c:	fd cf       	rjmp	.-6      	; 0x2a28 <LSM9DS0_Update+0x16a>
	SENSORS_I2C.MASTER.DATA = (0x05 | 0x80);
    2a2e:	85 e8       	ldi	r24, 0x85	; 133
    2a30:	80 93 87 04 	sts	0x0487, r24	; 0x800487 <__TEXT_REGION_LENGTH__+0x700487>
	while(!(SENSORS_I2C.MASTER.STATUS & TWI_MASTER_WIF_bm)) {}
    2a34:	e0 e8       	ldi	r30, 0x80	; 128
    2a36:	f4 e0       	ldi	r31, 0x04	; 4
    2a38:	84 81       	ldd	r24, Z+4	; 0x04
    2a3a:	86 ff       	sbrs	r24, 6
    2a3c:	fd cf       	rjmp	.-6      	; 0x2a38 <LSM9DS0_Update+0x17a>
	//_delay_us(40);
	
	SENSORS_I2C.MASTER.CTRLC = TWI_MASTER_CMD_REPSTART_gc;
    2a3e:	e0 e8       	ldi	r30, 0x80	; 128
    2a40:	f4 e0       	ldi	r31, 0x04	; 4
    2a42:	81 e0       	ldi	r24, 0x01	; 1
    2a44:	83 83       	std	Z+3, r24	; 0x03
	SENSORS_I2C.MASTER.ADDR = 0x3B;
    2a46:	8b e3       	ldi	r24, 0x3B	; 59
    2a48:	86 83       	std	Z+6, r24	; 0x06
	dane->raw_temp = I2C_ReadEnd(false);			//0x3F
    2a4a:	80 e0       	ldi	r24, 0x00	; 0
    2a4c:	89 d9       	rcall	.-3310   	; 0x1d60 <I2C_ReadEnd>
    2a4e:	90 e0       	ldi	r25, 0x00	; 0
    2a50:	8c 87       	std	Y+12, r24	; 0x0c
    2a52:	9d 87       	std	Y+13, r25	; 0x0d
	dane->raw_temp |= I2C_ReadEnd(true) << 8;		//0x40
    2a54:	81 e0       	ldi	r24, 0x01	; 1
    2a56:	84 d9       	rcall	.-3320   	; 0x1d60 <I2C_ReadEnd>
    2a58:	0c 85       	ldd	r16, Y+12	; 0x0c
    2a5a:	1d 85       	ldd	r17, Y+13	; 0x0d
    2a5c:	18 2b       	or	r17, r24
    2a5e:	0c 87       	std	Y+12, r16	; 0x0c
    2a60:	1d 87       	std	Y+13, r17	; 0x0d
	
	//calculate values
	dane->accel_x = ((dane->raw_accel_x - dane->offset_accel_x) * 0.732)/1000.0;
    2a62:	fe 01       	movw	r30, r28
    2a64:	ec 5b       	subi	r30, 0xBC	; 188
    2a66:	ff 4f       	sbci	r31, 0xFF	; 255
    2a68:	68 81       	ld	r22, Y
    2a6a:	79 81       	ldd	r23, Y+1	; 0x01
    2a6c:	80 81       	ld	r24, Z
    2a6e:	91 81       	ldd	r25, Z+1	; 0x01
    2a70:	68 1b       	sub	r22, r24
    2a72:	79 0b       	sbc	r23, r25
    2a74:	07 2e       	mov	r0, r23
    2a76:	00 0c       	add	r0, r0
    2a78:	88 0b       	sbc	r24, r24
    2a7a:	99 0b       	sbc	r25, r25
    2a7c:	15 d5       	rcall	.+2602   	; 0x34a8 <__floatsisf>
    2a7e:	2a e5       	ldi	r18, 0x5A	; 90
    2a80:	34 e6       	ldi	r19, 0x64	; 100
    2a82:	4b e3       	ldi	r20, 0x3B	; 59
    2a84:	5f e3       	ldi	r21, 0x3F	; 63
    2a86:	04 d6       	rcall	.+3080   	; 0x3690 <__mulsf3>
    2a88:	20 e0       	ldi	r18, 0x00	; 0
    2a8a:	30 e0       	ldi	r19, 0x00	; 0
    2a8c:	4a e7       	ldi	r20, 0x7A	; 122
    2a8e:	54 e4       	ldi	r21, 0x44	; 68
    2a90:	70 d4       	rcall	.+2272   	; 0x3372 <__divsf3>
    2a92:	6c 8b       	std	Y+20, r22	; 0x14
    2a94:	7d 8b       	std	Y+21, r23	; 0x15
    2a96:	8e 8b       	std	Y+22, r24	; 0x16
    2a98:	9f 8b       	std	Y+23, r25	; 0x17
	dane->accel_y = ((dane->raw_accel_y - dane->offset_accel_y) * 0.732)/1000.0;
    2a9a:	fe 01       	movw	r30, r28
    2a9c:	ea 5b       	subi	r30, 0xBA	; 186
    2a9e:	ff 4f       	sbci	r31, 0xFF	; 255
    2aa0:	6a 81       	ldd	r22, Y+2	; 0x02
    2aa2:	7b 81       	ldd	r23, Y+3	; 0x03
    2aa4:	80 81       	ld	r24, Z
    2aa6:	91 81       	ldd	r25, Z+1	; 0x01
    2aa8:	68 1b       	sub	r22, r24
    2aaa:	79 0b       	sbc	r23, r25
    2aac:	07 2e       	mov	r0, r23
    2aae:	00 0c       	add	r0, r0
    2ab0:	88 0b       	sbc	r24, r24
    2ab2:	99 0b       	sbc	r25, r25
    2ab4:	f9 d4       	rcall	.+2546   	; 0x34a8 <__floatsisf>
    2ab6:	2a e5       	ldi	r18, 0x5A	; 90
    2ab8:	34 e6       	ldi	r19, 0x64	; 100
    2aba:	4b e3       	ldi	r20, 0x3B	; 59
    2abc:	5f e3       	ldi	r21, 0x3F	; 63
    2abe:	e8 d5       	rcall	.+3024   	; 0x3690 <__mulsf3>
    2ac0:	20 e0       	ldi	r18, 0x00	; 0
    2ac2:	30 e0       	ldi	r19, 0x00	; 0
    2ac4:	4a e7       	ldi	r20, 0x7A	; 122
    2ac6:	54 e4       	ldi	r21, 0x44	; 68
    2ac8:	54 d4       	rcall	.+2216   	; 0x3372 <__divsf3>
    2aca:	68 8f       	std	Y+24, r22	; 0x18
    2acc:	79 8f       	std	Y+25, r23	; 0x19
    2ace:	8a 8f       	std	Y+26, r24	; 0x1a
    2ad0:	9b 8f       	std	Y+27, r25	; 0x1b
	dane->accel_z = ((dane->raw_accel_z - dane->offset_accel_z) * 0.732)/1000.0;
    2ad2:	fe 01       	movw	r30, r28
    2ad4:	e8 5b       	subi	r30, 0xB8	; 184
    2ad6:	ff 4f       	sbci	r31, 0xFF	; 255
    2ad8:	6c 81       	ldd	r22, Y+4	; 0x04
    2ada:	7d 81       	ldd	r23, Y+5	; 0x05
    2adc:	80 81       	ld	r24, Z
    2ade:	91 81       	ldd	r25, Z+1	; 0x01
    2ae0:	68 1b       	sub	r22, r24
    2ae2:	79 0b       	sbc	r23, r25
    2ae4:	07 2e       	mov	r0, r23
    2ae6:	00 0c       	add	r0, r0
    2ae8:	88 0b       	sbc	r24, r24
    2aea:	99 0b       	sbc	r25, r25
    2aec:	dd d4       	rcall	.+2490   	; 0x34a8 <__floatsisf>
    2aee:	2a e5       	ldi	r18, 0x5A	; 90
    2af0:	34 e6       	ldi	r19, 0x64	; 100
    2af2:	4b e3       	ldi	r20, 0x3B	; 59
    2af4:	5f e3       	ldi	r21, 0x3F	; 63
    2af6:	cc d5       	rcall	.+2968   	; 0x3690 <__mulsf3>
    2af8:	20 e0       	ldi	r18, 0x00	; 0
    2afa:	30 e0       	ldi	r19, 0x00	; 0
    2afc:	4a e7       	ldi	r20, 0x7A	; 122
    2afe:	54 e4       	ldi	r21, 0x44	; 68
    2b00:	38 d4       	rcall	.+2160   	; 0x3372 <__divsf3>
    2b02:	6c 8f       	std	Y+28, r22	; 0x1c
    2b04:	7d 8f       	std	Y+29, r23	; 0x1d
    2b06:	8e 8f       	std	Y+30, r24	; 0x1e
    2b08:	9f 8f       	std	Y+31, r25	; 0x1f
	dane->gyro_x = ((dane->raw_gyro_x - dane->offset_gyro_x) * 4000.0)/65536.0;
    2b0a:	fe 01       	movw	r30, r28
    2b0c:	e6 5b       	subi	r30, 0xB6	; 182
    2b0e:	ff 4f       	sbci	r31, 0xFF	; 255
    2b10:	6e 81       	ldd	r22, Y+6	; 0x06
    2b12:	7f 81       	ldd	r23, Y+7	; 0x07
    2b14:	80 81       	ld	r24, Z
    2b16:	91 81       	ldd	r25, Z+1	; 0x01
    2b18:	68 1b       	sub	r22, r24
    2b1a:	79 0b       	sbc	r23, r25
    2b1c:	07 2e       	mov	r0, r23
    2b1e:	00 0c       	add	r0, r0
    2b20:	88 0b       	sbc	r24, r24
    2b22:	99 0b       	sbc	r25, r25
    2b24:	c1 d4       	rcall	.+2434   	; 0x34a8 <__floatsisf>
    2b26:	20 e0       	ldi	r18, 0x00	; 0
    2b28:	30 e0       	ldi	r19, 0x00	; 0
    2b2a:	4a e7       	ldi	r20, 0x7A	; 122
    2b2c:	55 e4       	ldi	r21, 0x45	; 69
    2b2e:	b0 d5       	rcall	.+2912   	; 0x3690 <__mulsf3>
    2b30:	20 e0       	ldi	r18, 0x00	; 0
    2b32:	30 e0       	ldi	r19, 0x00	; 0
    2b34:	40 e8       	ldi	r20, 0x80	; 128
    2b36:	57 e3       	ldi	r21, 0x37	; 55
    2b38:	ab d5       	rcall	.+2902   	; 0x3690 <__mulsf3>
    2b3a:	6c a3       	std	Y+36, r22	; 0x24
    2b3c:	7d a3       	std	Y+37, r23	; 0x25
    2b3e:	8e a3       	std	Y+38, r24	; 0x26
    2b40:	9f a3       	std	Y+39, r25	; 0x27
	dane->gyro_y = ((dane->raw_gyro_y - dane->offset_gyro_y) * 4000.0)/65536.0;
    2b42:	fe 01       	movw	r30, r28
    2b44:	e4 5b       	subi	r30, 0xB4	; 180
    2b46:	ff 4f       	sbci	r31, 0xFF	; 255
    2b48:	68 85       	ldd	r22, Y+8	; 0x08
    2b4a:	79 85       	ldd	r23, Y+9	; 0x09
    2b4c:	80 81       	ld	r24, Z
    2b4e:	91 81       	ldd	r25, Z+1	; 0x01
    2b50:	68 1b       	sub	r22, r24
    2b52:	79 0b       	sbc	r23, r25
    2b54:	07 2e       	mov	r0, r23
    2b56:	00 0c       	add	r0, r0
    2b58:	88 0b       	sbc	r24, r24
    2b5a:	99 0b       	sbc	r25, r25
    2b5c:	a5 d4       	rcall	.+2378   	; 0x34a8 <__floatsisf>
    2b5e:	20 e0       	ldi	r18, 0x00	; 0
    2b60:	30 e0       	ldi	r19, 0x00	; 0
    2b62:	4a e7       	ldi	r20, 0x7A	; 122
    2b64:	55 e4       	ldi	r21, 0x45	; 69
    2b66:	94 d5       	rcall	.+2856   	; 0x3690 <__mulsf3>
    2b68:	20 e0       	ldi	r18, 0x00	; 0
    2b6a:	30 e0       	ldi	r19, 0x00	; 0
    2b6c:	40 e8       	ldi	r20, 0x80	; 128
    2b6e:	57 e3       	ldi	r21, 0x37	; 55
    2b70:	8f d5       	rcall	.+2846   	; 0x3690 <__mulsf3>
    2b72:	68 a7       	std	Y+40, r22	; 0x28
    2b74:	79 a7       	std	Y+41, r23	; 0x29
    2b76:	8a a7       	std	Y+42, r24	; 0x2a
    2b78:	9b a7       	std	Y+43, r25	; 0x2b
	dane->gyro_z = ((dane->raw_gyro_z - dane->offset_gyro_z) * 4000.0)/65536.0;
    2b7a:	fe 01       	movw	r30, r28
    2b7c:	e2 5b       	subi	r30, 0xB2	; 178
    2b7e:	ff 4f       	sbci	r31, 0xFF	; 255
    2b80:	6a 85       	ldd	r22, Y+10	; 0x0a
    2b82:	7b 85       	ldd	r23, Y+11	; 0x0b
    2b84:	80 81       	ld	r24, Z
    2b86:	91 81       	ldd	r25, Z+1	; 0x01
    2b88:	68 1b       	sub	r22, r24
    2b8a:	79 0b       	sbc	r23, r25
    2b8c:	07 2e       	mov	r0, r23
    2b8e:	00 0c       	add	r0, r0
    2b90:	88 0b       	sbc	r24, r24
    2b92:	99 0b       	sbc	r25, r25
    2b94:	89 d4       	rcall	.+2322   	; 0x34a8 <__floatsisf>
    2b96:	20 e0       	ldi	r18, 0x00	; 0
    2b98:	30 e0       	ldi	r19, 0x00	; 0
    2b9a:	4a e7       	ldi	r20, 0x7A	; 122
    2b9c:	55 e4       	ldi	r21, 0x45	; 69
    2b9e:	78 d5       	rcall	.+2800   	; 0x3690 <__mulsf3>
    2ba0:	20 e0       	ldi	r18, 0x00	; 0
    2ba2:	30 e0       	ldi	r19, 0x00	; 0
    2ba4:	40 e8       	ldi	r20, 0x80	; 128
    2ba6:	57 e3       	ldi	r21, 0x37	; 55
    2ba8:	73 d5       	rcall	.+2790   	; 0x3690 <__mulsf3>
    2baa:	6c a7       	std	Y+44, r22	; 0x2c
    2bac:	7d a7       	std	Y+45, r23	; 0x2d
    2bae:	8e a7       	std	Y+46, r24	; 0x2e
    2bb0:	9f a7       	std	Y+47, r25	; 0x2f
	dane->mag_x = ((dane->raw_mag_x - dane->offset_mag_x) * 4.0)/655.360;
    2bb2:	fe 01       	movw	r30, r28
    2bb4:	e0 5b       	subi	r30, 0xB0	; 176
    2bb6:	ff 4f       	sbci	r31, 0xFF	; 255
    2bb8:	6e 85       	ldd	r22, Y+14	; 0x0e
    2bba:	7f 85       	ldd	r23, Y+15	; 0x0f
    2bbc:	80 81       	ld	r24, Z
    2bbe:	91 81       	ldd	r25, Z+1	; 0x01
    2bc0:	68 1b       	sub	r22, r24
    2bc2:	79 0b       	sbc	r23, r25
    2bc4:	07 2e       	mov	r0, r23
    2bc6:	00 0c       	add	r0, r0
    2bc8:	88 0b       	sbc	r24, r24
    2bca:	99 0b       	sbc	r25, r25
    2bcc:	6d d4       	rcall	.+2266   	; 0x34a8 <__floatsisf>
    2bce:	20 e0       	ldi	r18, 0x00	; 0
    2bd0:	30 e0       	ldi	r19, 0x00	; 0
    2bd2:	40 e8       	ldi	r20, 0x80	; 128
    2bd4:	50 e4       	ldi	r21, 0x40	; 64
    2bd6:	5c d5       	rcall	.+2744   	; 0x3690 <__mulsf3>
    2bd8:	2a e0       	ldi	r18, 0x0A	; 10
    2bda:	37 ed       	ldi	r19, 0xD7	; 215
    2bdc:	43 e2       	ldi	r20, 0x23	; 35
    2bde:	54 e4       	ldi	r21, 0x44	; 68
    2be0:	c8 d3       	rcall	.+1936   	; 0x3372 <__divsf3>
    2be2:	6c ab       	std	Y+52, r22	; 0x34
    2be4:	7d ab       	std	Y+53, r23	; 0x35
    2be6:	8e ab       	std	Y+54, r24	; 0x36
    2be8:	9f ab       	std	Y+55, r25	; 0x37
	dane->mag_y = ((dane->raw_mag_y - dane->offset_mag_y) * 4.0)/655.360;
    2bea:	fe 01       	movw	r30, r28
    2bec:	ee 5a       	subi	r30, 0xAE	; 174
    2bee:	ff 4f       	sbci	r31, 0xFF	; 255
    2bf0:	68 89       	ldd	r22, Y+16	; 0x10
    2bf2:	79 89       	ldd	r23, Y+17	; 0x11
    2bf4:	80 81       	ld	r24, Z
    2bf6:	91 81       	ldd	r25, Z+1	; 0x01
    2bf8:	68 1b       	sub	r22, r24
    2bfa:	79 0b       	sbc	r23, r25
    2bfc:	07 2e       	mov	r0, r23
    2bfe:	00 0c       	add	r0, r0
    2c00:	88 0b       	sbc	r24, r24
    2c02:	99 0b       	sbc	r25, r25
    2c04:	51 d4       	rcall	.+2210   	; 0x34a8 <__floatsisf>
    2c06:	20 e0       	ldi	r18, 0x00	; 0
    2c08:	30 e0       	ldi	r19, 0x00	; 0
    2c0a:	40 e8       	ldi	r20, 0x80	; 128
    2c0c:	50 e4       	ldi	r21, 0x40	; 64
    2c0e:	40 d5       	rcall	.+2688   	; 0x3690 <__mulsf3>
    2c10:	2a e0       	ldi	r18, 0x0A	; 10
    2c12:	37 ed       	ldi	r19, 0xD7	; 215
    2c14:	43 e2       	ldi	r20, 0x23	; 35
    2c16:	54 e4       	ldi	r21, 0x44	; 68
    2c18:	ac d3       	rcall	.+1880   	; 0x3372 <__divsf3>
    2c1a:	68 af       	std	Y+56, r22	; 0x38
    2c1c:	79 af       	std	Y+57, r23	; 0x39
    2c1e:	8a af       	std	Y+58, r24	; 0x3a
    2c20:	9b af       	std	Y+59, r25	; 0x3b
	dane->mag_z = ((dane->raw_mag_z - dane->offset_mag_z) * 4.0)/655.360;
    2c22:	fe 01       	movw	r30, r28
    2c24:	ec 5a       	subi	r30, 0xAC	; 172
    2c26:	ff 4f       	sbci	r31, 0xFF	; 255
    2c28:	6a 89       	ldd	r22, Y+18	; 0x12
    2c2a:	7b 89       	ldd	r23, Y+19	; 0x13
    2c2c:	80 81       	ld	r24, Z
    2c2e:	91 81       	ldd	r25, Z+1	; 0x01
    2c30:	68 1b       	sub	r22, r24
    2c32:	79 0b       	sbc	r23, r25
    2c34:	07 2e       	mov	r0, r23
    2c36:	00 0c       	add	r0, r0
    2c38:	88 0b       	sbc	r24, r24
    2c3a:	99 0b       	sbc	r25, r25
    2c3c:	35 d4       	rcall	.+2154   	; 0x34a8 <__floatsisf>
    2c3e:	20 e0       	ldi	r18, 0x00	; 0
    2c40:	30 e0       	ldi	r19, 0x00	; 0
    2c42:	40 e8       	ldi	r20, 0x80	; 128
    2c44:	50 e4       	ldi	r21, 0x40	; 64
    2c46:	24 d5       	rcall	.+2632   	; 0x3690 <__mulsf3>
    2c48:	2a e0       	ldi	r18, 0x0A	; 10
    2c4a:	37 ed       	ldi	r19, 0xD7	; 215
    2c4c:	43 e2       	ldi	r20, 0x23	; 35
    2c4e:	54 e4       	ldi	r21, 0x44	; 68
    2c50:	90 d3       	rcall	.+1824   	; 0x3372 <__divsf3>
    2c52:	6c af       	std	Y+60, r22	; 0x3c
    2c54:	7d af       	std	Y+61, r23	; 0x3d
    2c56:	8e af       	std	Y+62, r24	; 0x3e
    2c58:	9f af       	std	Y+63, r25	; 0x3f
	dane->temp = 21.0 + dane->raw_temp / 8.0;
    2c5a:	b8 01       	movw	r22, r16
    2c5c:	11 0f       	add	r17, r17
    2c5e:	88 0b       	sbc	r24, r24
    2c60:	99 0b       	sbc	r25, r25
    2c62:	22 d4       	rcall	.+2116   	; 0x34a8 <__floatsisf>
    2c64:	20 e0       	ldi	r18, 0x00	; 0
    2c66:	30 e0       	ldi	r19, 0x00	; 0
    2c68:	40 e0       	ldi	r20, 0x00	; 0
    2c6a:	5e e3       	ldi	r21, 0x3E	; 62
    2c6c:	11 d5       	rcall	.+2594   	; 0x3690 <__mulsf3>
    2c6e:	20 e0       	ldi	r18, 0x00	; 0
    2c70:	30 e0       	ldi	r19, 0x00	; 0
    2c72:	48 ea       	ldi	r20, 0xA8	; 168
    2c74:	51 e4       	ldi	r21, 0x41	; 65
    2c76:	15 d3       	rcall	.+1578   	; 0x32a2 <__addsf3>
    2c78:	68 ab       	std	Y+48, r22	; 0x30
    2c7a:	79 ab       	std	Y+49, r23	; 0x31
    2c7c:	8a ab       	std	Y+50, r24	; 0x32
    2c7e:	9b ab       	std	Y+51, r25	; 0x33
    2c80:	df 91       	pop	r29
    2c82:	cf 91       	pop	r28
    2c84:	1f 91       	pop	r17
    2c86:	0f 91       	pop	r16
    2c88:	08 95       	ret

00002c8a <MPU9150_WakeUp>:
	z = (z-128);
	
	(*data).sens_mag_x = x;
	(*data).sens_mag_y = y;
	(*data).sens_mag_z = z;
}
    2c8a:	42 e0       	ldi	r20, 0x02	; 2
    2c8c:	6b e6       	ldi	r22, 0x6B	; 107
    2c8e:	80 ed       	ldi	r24, 0xD0	; 208
    2c90:	74 d8       	rcall	.-3864   	; 0x1d7a <I2C_WriteReg>
    2c92:	42 e0       	ldi	r20, 0x02	; 2
    2c94:	6a e1       	ldi	r22, 0x1A	; 26
    2c96:	80 ed       	ldi	r24, 0xD0	; 208
    2c98:	70 d8       	rcall	.-3872   	; 0x1d7a <I2C_WriteReg>
    2c9a:	48 e1       	ldi	r20, 0x18	; 24
    2c9c:	6b e1       	ldi	r22, 0x1B	; 27
    2c9e:	80 ed       	ldi	r24, 0xD0	; 208
    2ca0:	6c d8       	rcall	.-3880   	; 0x1d7a <I2C_WriteReg>
    2ca2:	48 e1       	ldi	r20, 0x18	; 24
    2ca4:	6c e1       	ldi	r22, 0x1C	; 28
    2ca6:	80 ed       	ldi	r24, 0xD0	; 208
    2ca8:	68 c8       	rjmp	.-3888   	; 0x1d7a <I2C_WriteReg>
    2caa:	08 95       	ret

00002cac <MPU9150_RawUpdate>:
    2cac:	0f 93       	push	r16
    2cae:	1f 93       	push	r17
    2cb0:	cf 93       	push	r28
    2cb2:	df 93       	push	r29
    2cb4:	cd b7       	in	r28, 0x3d	; 61
    2cb6:	de b7       	in	r29, 0x3e	; 62
    2cb8:	64 97       	sbiw	r28, 0x14	; 20
    2cba:	cd bf       	out	0x3d, r28	; 61
    2cbc:	de bf       	out	0x3e, r29	; 62
    2cbe:	8c 01       	movw	r16, r24
    2cc0:	9e 01       	movw	r18, r28
    2cc2:	2f 5f       	subi	r18, 0xFF	; 255
    2cc4:	3f 4f       	sbci	r19, 0xFF	; 255
    2cc6:	4e e0       	ldi	r20, 0x0E	; 14
    2cc8:	6b e3       	ldi	r22, 0x3B	; 59
    2cca:	80 ed       	ldi	r24, 0xD0	; 208
    2ccc:	6f d8       	rcall	.-3874   	; 0x1dac <I2C_ReadRegister>
    2cce:	89 81       	ldd	r24, Y+1	; 0x01
    2cd0:	90 e0       	ldi	r25, 0x00	; 0
    2cd2:	98 2f       	mov	r25, r24
    2cd4:	88 27       	eor	r24, r24
    2cd6:	2a 81       	ldd	r18, Y+2	; 0x02
    2cd8:	82 2b       	or	r24, r18
    2cda:	f8 01       	movw	r30, r16
    2cdc:	80 83       	st	Z, r24
    2cde:	91 83       	std	Z+1, r25	; 0x01
    2ce0:	8b 81       	ldd	r24, Y+3	; 0x03
    2ce2:	90 e0       	ldi	r25, 0x00	; 0
    2ce4:	98 2f       	mov	r25, r24
    2ce6:	88 27       	eor	r24, r24
    2ce8:	2c 81       	ldd	r18, Y+4	; 0x04
    2cea:	82 2b       	or	r24, r18
    2cec:	82 83       	std	Z+2, r24	; 0x02
    2cee:	93 83       	std	Z+3, r25	; 0x03
    2cf0:	8d 81       	ldd	r24, Y+5	; 0x05
    2cf2:	90 e0       	ldi	r25, 0x00	; 0
    2cf4:	98 2f       	mov	r25, r24
    2cf6:	88 27       	eor	r24, r24
    2cf8:	2e 81       	ldd	r18, Y+6	; 0x06
    2cfa:	82 2b       	or	r24, r18
    2cfc:	84 83       	std	Z+4, r24	; 0x04
    2cfe:	95 83       	std	Z+5, r25	; 0x05
    2d00:	8f 81       	ldd	r24, Y+7	; 0x07
    2d02:	90 e0       	ldi	r25, 0x00	; 0
    2d04:	98 2f       	mov	r25, r24
    2d06:	88 27       	eor	r24, r24
    2d08:	28 85       	ldd	r18, Y+8	; 0x08
    2d0a:	82 2b       	or	r24, r18
    2d0c:	84 87       	std	Z+12, r24	; 0x0c
    2d0e:	95 87       	std	Z+13, r25	; 0x0d
    2d10:	89 85       	ldd	r24, Y+9	; 0x09
    2d12:	90 e0       	ldi	r25, 0x00	; 0
    2d14:	98 2f       	mov	r25, r24
    2d16:	88 27       	eor	r24, r24
    2d18:	2a 85       	ldd	r18, Y+10	; 0x0a
    2d1a:	82 2b       	or	r24, r18
    2d1c:	86 83       	std	Z+6, r24	; 0x06
    2d1e:	97 83       	std	Z+7, r25	; 0x07
    2d20:	8b 85       	ldd	r24, Y+11	; 0x0b
    2d22:	90 e0       	ldi	r25, 0x00	; 0
    2d24:	98 2f       	mov	r25, r24
    2d26:	88 27       	eor	r24, r24
    2d28:	2c 85       	ldd	r18, Y+12	; 0x0c
    2d2a:	82 2b       	or	r24, r18
    2d2c:	80 87       	std	Z+8, r24	; 0x08
    2d2e:	91 87       	std	Z+9, r25	; 0x09
    2d30:	8d 85       	ldd	r24, Y+13	; 0x0d
    2d32:	90 e0       	ldi	r25, 0x00	; 0
    2d34:	98 2f       	mov	r25, r24
    2d36:	88 27       	eor	r24, r24
    2d38:	2e 85       	ldd	r18, Y+14	; 0x0e
    2d3a:	82 2b       	or	r24, r18
    2d3c:	82 87       	std	Z+10, r24	; 0x0a
    2d3e:	93 87       	std	Z+11, r25	; 0x0b
    2d40:	64 96       	adiw	r28, 0x14	; 20
    2d42:	cd bf       	out	0x3d, r28	; 61
    2d44:	de bf       	out	0x3e, r29	; 62
    2d46:	df 91       	pop	r29
    2d48:	cf 91       	pop	r28
    2d4a:	1f 91       	pop	r17
    2d4c:	0f 91       	pop	r16
    2d4e:	08 95       	ret

00002d50 <MPU9150_Conv>:

void MPU9150_Conv(MPU9150_t * MPU9150){
    2d50:	cf 93       	push	r28
    2d52:	df 93       	push	r29
    2d54:	ec 01       	movw	r28, r24
	MPU9150->mag_x = (MPU9150->raw_mag_x + ((MPU9150->raw_mag_x * MPU9150->sens_mag_x) >> 8)) * 0.3;
    2d56:	2e 85       	ldd	r18, Y+14	; 0x0e
    2d58:	3f 85       	ldd	r19, Y+15	; 0x0f
    2d5a:	fc 01       	movw	r30, r24
    2d5c:	ec 5a       	subi	r30, 0xAC	; 172
    2d5e:	ff 4f       	sbci	r31, 0xFF	; 255
    2d60:	40 81       	ld	r20, Z
    2d62:	42 03       	mulsu	r20, r18
    2d64:	b0 01       	movw	r22, r0
    2d66:	43 9f       	mul	r20, r19
    2d68:	70 0d       	add	r23, r0
    2d6a:	11 24       	eor	r1, r1
    2d6c:	67 2f       	mov	r22, r23
    2d6e:	77 0f       	add	r23, r23
    2d70:	77 0b       	sbc	r23, r23
    2d72:	62 0f       	add	r22, r18
    2d74:	73 1f       	adc	r23, r19
    2d76:	07 2e       	mov	r0, r23
    2d78:	00 0c       	add	r0, r0
    2d7a:	88 0b       	sbc	r24, r24
    2d7c:	99 0b       	sbc	r25, r25
    2d7e:	94 d3       	rcall	.+1832   	; 0x34a8 <__floatsisf>
    2d80:	2a e9       	ldi	r18, 0x9A	; 154
    2d82:	39 e9       	ldi	r19, 0x99	; 153
    2d84:	49 e9       	ldi	r20, 0x99	; 153
    2d86:	5e e3       	ldi	r21, 0x3E	; 62
    2d88:	83 d4       	rcall	.+2310   	; 0x3690 <__mulsf3>
    2d8a:	6a ab       	std	Y+50, r22	; 0x32
    2d8c:	7b ab       	std	Y+51, r23	; 0x33
    2d8e:	8c ab       	std	Y+52, r24	; 0x34
    2d90:	9d ab       	std	Y+53, r25	; 0x35
	MPU9150->mag_y = (MPU9150->raw_mag_y + ((MPU9150->raw_mag_y * MPU9150->sens_mag_y) >> 8)) * 0.3;
    2d92:	28 89       	ldd	r18, Y+16	; 0x10
    2d94:	39 89       	ldd	r19, Y+17	; 0x11
    2d96:	fe 01       	movw	r30, r28
    2d98:	eb 5a       	subi	r30, 0xAB	; 171
    2d9a:	ff 4f       	sbci	r31, 0xFF	; 255
    2d9c:	40 81       	ld	r20, Z
    2d9e:	42 03       	mulsu	r20, r18
    2da0:	b0 01       	movw	r22, r0
    2da2:	43 9f       	mul	r20, r19
    2da4:	70 0d       	add	r23, r0
    2da6:	11 24       	eor	r1, r1
    2da8:	67 2f       	mov	r22, r23
    2daa:	77 0f       	add	r23, r23
    2dac:	77 0b       	sbc	r23, r23
    2dae:	62 0f       	add	r22, r18
    2db0:	73 1f       	adc	r23, r19
    2db2:	07 2e       	mov	r0, r23
    2db4:	00 0c       	add	r0, r0
    2db6:	88 0b       	sbc	r24, r24
    2db8:	99 0b       	sbc	r25, r25
    2dba:	76 d3       	rcall	.+1772   	; 0x34a8 <__floatsisf>
    2dbc:	2a e9       	ldi	r18, 0x9A	; 154
    2dbe:	39 e9       	ldi	r19, 0x99	; 153
    2dc0:	49 e9       	ldi	r20, 0x99	; 153
    2dc2:	5e e3       	ldi	r21, 0x3E	; 62
    2dc4:	65 d4       	rcall	.+2250   	; 0x3690 <__mulsf3>
    2dc6:	6e ab       	std	Y+54, r22	; 0x36
    2dc8:	7f ab       	std	Y+55, r23	; 0x37
    2dca:	88 af       	std	Y+56, r24	; 0x38
    2dcc:	99 af       	std	Y+57, r25	; 0x39
	MPU9150->mag_z = (MPU9150->raw_mag_z + ((MPU9150->raw_mag_z * MPU9150->sens_mag_z) >> 8)) * 0.3;
    2dce:	2a 89       	ldd	r18, Y+18	; 0x12
    2dd0:	3b 89       	ldd	r19, Y+19	; 0x13
    2dd2:	fe 01       	movw	r30, r28
    2dd4:	ea 5a       	subi	r30, 0xAA	; 170
    2dd6:	ff 4f       	sbci	r31, 0xFF	; 255
    2dd8:	40 81       	ld	r20, Z
    2dda:	42 03       	mulsu	r20, r18
    2ddc:	b0 01       	movw	r22, r0
    2dde:	43 9f       	mul	r20, r19
    2de0:	70 0d       	add	r23, r0
    2de2:	11 24       	eor	r1, r1
    2de4:	67 2f       	mov	r22, r23
    2de6:	77 0f       	add	r23, r23
    2de8:	77 0b       	sbc	r23, r23
    2dea:	62 0f       	add	r22, r18
    2dec:	73 1f       	adc	r23, r19
    2dee:	07 2e       	mov	r0, r23
    2df0:	00 0c       	add	r0, r0
    2df2:	88 0b       	sbc	r24, r24
    2df4:	99 0b       	sbc	r25, r25
    2df6:	58 d3       	rcall	.+1712   	; 0x34a8 <__floatsisf>
    2df8:	2a e9       	ldi	r18, 0x9A	; 154
    2dfa:	39 e9       	ldi	r19, 0x99	; 153
    2dfc:	49 e9       	ldi	r20, 0x99	; 153
    2dfe:	5e e3       	ldi	r21, 0x3E	; 62
    2e00:	47 d4       	rcall	.+2190   	; 0x3690 <__mulsf3>
    2e02:	6a af       	std	Y+58, r22	; 0x3a
    2e04:	7b af       	std	Y+59, r23	; 0x3b
    2e06:	8c af       	std	Y+60, r24	; 0x3c
    2e08:	9d af       	std	Y+61, r25	; 0x3d
	
	MPU9150->accel_x = (MPU9150->raw_accel_x - MPU9150->offset_accel_x) / 2048.0;	//16384.0; -2g
    2e0a:	fe 01       	movw	r30, r28
    2e0c:	ee 5b       	subi	r30, 0xBE	; 190
    2e0e:	ff 4f       	sbci	r31, 0xFF	; 255
    2e10:	68 81       	ld	r22, Y
    2e12:	79 81       	ldd	r23, Y+1	; 0x01
    2e14:	80 81       	ld	r24, Z
    2e16:	91 81       	ldd	r25, Z+1	; 0x01
    2e18:	68 1b       	sub	r22, r24
    2e1a:	79 0b       	sbc	r23, r25
    2e1c:	07 2e       	mov	r0, r23
    2e1e:	00 0c       	add	r0, r0
    2e20:	88 0b       	sbc	r24, r24
    2e22:	99 0b       	sbc	r25, r25
    2e24:	41 d3       	rcall	.+1666   	; 0x34a8 <__floatsisf>
    2e26:	20 e0       	ldi	r18, 0x00	; 0
    2e28:	30 e0       	ldi	r19, 0x00	; 0
    2e2a:	40 e0       	ldi	r20, 0x00	; 0
    2e2c:	5a e3       	ldi	r21, 0x3A	; 58
    2e2e:	30 d4       	rcall	.+2144   	; 0x3690 <__mulsf3>
    2e30:	6c 8b       	std	Y+20, r22	; 0x14
    2e32:	7d 8b       	std	Y+21, r23	; 0x15
    2e34:	8e 8b       	std	Y+22, r24	; 0x16
    2e36:	9f 8b       	std	Y+23, r25	; 0x17
	MPU9150->accel_y = (MPU9150->raw_accel_y - MPU9150->offset_accel_y) / 2048.0; //16384.0;
    2e38:	fe 01       	movw	r30, r28
    2e3a:	ec 5b       	subi	r30, 0xBC	; 188
    2e3c:	ff 4f       	sbci	r31, 0xFF	; 255
    2e3e:	6a 81       	ldd	r22, Y+2	; 0x02
    2e40:	7b 81       	ldd	r23, Y+3	; 0x03
    2e42:	80 81       	ld	r24, Z
    2e44:	91 81       	ldd	r25, Z+1	; 0x01
    2e46:	68 1b       	sub	r22, r24
    2e48:	79 0b       	sbc	r23, r25
    2e4a:	07 2e       	mov	r0, r23
    2e4c:	00 0c       	add	r0, r0
    2e4e:	88 0b       	sbc	r24, r24
    2e50:	99 0b       	sbc	r25, r25
    2e52:	2a d3       	rcall	.+1620   	; 0x34a8 <__floatsisf>
    2e54:	20 e0       	ldi	r18, 0x00	; 0
    2e56:	30 e0       	ldi	r19, 0x00	; 0
    2e58:	40 e0       	ldi	r20, 0x00	; 0
    2e5a:	5a e3       	ldi	r21, 0x3A	; 58
    2e5c:	19 d4       	rcall	.+2098   	; 0x3690 <__mulsf3>
    2e5e:	68 8f       	std	Y+24, r22	; 0x18
    2e60:	79 8f       	std	Y+25, r23	; 0x19
    2e62:	8a 8f       	std	Y+26, r24	; 0x1a
    2e64:	9b 8f       	std	Y+27, r25	; 0x1b
	MPU9150->accel_z = (MPU9150->raw_accel_z - MPU9150->offset_accel_z) / 2048.0; //16384.0;
    2e66:	fe 01       	movw	r30, r28
    2e68:	ea 5b       	subi	r30, 0xBA	; 186
    2e6a:	ff 4f       	sbci	r31, 0xFF	; 255
    2e6c:	6c 81       	ldd	r22, Y+4	; 0x04
    2e6e:	7d 81       	ldd	r23, Y+5	; 0x05
    2e70:	80 81       	ld	r24, Z
    2e72:	91 81       	ldd	r25, Z+1	; 0x01
    2e74:	68 1b       	sub	r22, r24
    2e76:	79 0b       	sbc	r23, r25
    2e78:	07 2e       	mov	r0, r23
    2e7a:	00 0c       	add	r0, r0
    2e7c:	88 0b       	sbc	r24, r24
    2e7e:	99 0b       	sbc	r25, r25
    2e80:	13 d3       	rcall	.+1574   	; 0x34a8 <__floatsisf>
    2e82:	20 e0       	ldi	r18, 0x00	; 0
    2e84:	30 e0       	ldi	r19, 0x00	; 0
    2e86:	40 e0       	ldi	r20, 0x00	; 0
    2e88:	5a e3       	ldi	r21, 0x3A	; 58
    2e8a:	02 d4       	rcall	.+2052   	; 0x3690 <__mulsf3>
    2e8c:	6c 8f       	std	Y+28, r22	; 0x1c
    2e8e:	7d 8f       	std	Y+29, r23	; 0x1d
    2e90:	8e 8f       	std	Y+30, r24	; 0x1e
    2e92:	9f 8f       	std	Y+31, r25	; 0x1f
	
	MPU9150->gyro_x = (MPU9150->raw_gyro_x - MPU9150->offset_gyro_x) / 16.4;	//131 - 250deg/s, 62.5 - 500deg/s,32.8 - 1000deg/s,16.4 - 2000deg/s
    2e94:	fe 01       	movw	r30, r28
    2e96:	e8 5b       	subi	r30, 0xB8	; 184
    2e98:	ff 4f       	sbci	r31, 0xFF	; 255
    2e9a:	6e 81       	ldd	r22, Y+6	; 0x06
    2e9c:	7f 81       	ldd	r23, Y+7	; 0x07
    2e9e:	80 81       	ld	r24, Z
    2ea0:	91 81       	ldd	r25, Z+1	; 0x01
    2ea2:	68 1b       	sub	r22, r24
    2ea4:	79 0b       	sbc	r23, r25
    2ea6:	07 2e       	mov	r0, r23
    2ea8:	00 0c       	add	r0, r0
    2eaa:	88 0b       	sbc	r24, r24
    2eac:	99 0b       	sbc	r25, r25
    2eae:	fc d2       	rcall	.+1528   	; 0x34a8 <__floatsisf>
    2eb0:	23 e3       	ldi	r18, 0x33	; 51
    2eb2:	33 e3       	ldi	r19, 0x33	; 51
    2eb4:	43 e8       	ldi	r20, 0x83	; 131
    2eb6:	51 e4       	ldi	r21, 0x41	; 65
    2eb8:	5c d2       	rcall	.+1208   	; 0x3372 <__divsf3>
    2eba:	6c a3       	std	Y+36, r22	; 0x24
    2ebc:	7d a3       	std	Y+37, r23	; 0x25
    2ebe:	8e a3       	std	Y+38, r24	; 0x26
    2ec0:	9f a3       	std	Y+39, r25	; 0x27
	MPU9150->gyro_y = (MPU9150->raw_gyro_y - MPU9150->offset_gyro_y) / 16.4;
    2ec2:	fe 01       	movw	r30, r28
    2ec4:	e6 5b       	subi	r30, 0xB6	; 182
    2ec6:	ff 4f       	sbci	r31, 0xFF	; 255
    2ec8:	68 85       	ldd	r22, Y+8	; 0x08
    2eca:	79 85       	ldd	r23, Y+9	; 0x09
    2ecc:	80 81       	ld	r24, Z
    2ece:	91 81       	ldd	r25, Z+1	; 0x01
    2ed0:	68 1b       	sub	r22, r24
    2ed2:	79 0b       	sbc	r23, r25
    2ed4:	07 2e       	mov	r0, r23
    2ed6:	00 0c       	add	r0, r0
    2ed8:	88 0b       	sbc	r24, r24
    2eda:	99 0b       	sbc	r25, r25
    2edc:	e5 d2       	rcall	.+1482   	; 0x34a8 <__floatsisf>
    2ede:	23 e3       	ldi	r18, 0x33	; 51
    2ee0:	33 e3       	ldi	r19, 0x33	; 51
    2ee2:	43 e8       	ldi	r20, 0x83	; 131
    2ee4:	51 e4       	ldi	r21, 0x41	; 65
    2ee6:	45 d2       	rcall	.+1162   	; 0x3372 <__divsf3>
    2ee8:	68 a7       	std	Y+40, r22	; 0x28
    2eea:	79 a7       	std	Y+41, r23	; 0x29
    2eec:	8a a7       	std	Y+42, r24	; 0x2a
    2eee:	9b a7       	std	Y+43, r25	; 0x2b
	MPU9150->gyro_z = (MPU9150->raw_gyro_z - MPU9150->offset_gyro_z) / 16.4;
    2ef0:	fe 01       	movw	r30, r28
    2ef2:	e4 5b       	subi	r30, 0xB4	; 180
    2ef4:	ff 4f       	sbci	r31, 0xFF	; 255
    2ef6:	6a 85       	ldd	r22, Y+10	; 0x0a
    2ef8:	7b 85       	ldd	r23, Y+11	; 0x0b
    2efa:	80 81       	ld	r24, Z
    2efc:	91 81       	ldd	r25, Z+1	; 0x01
    2efe:	68 1b       	sub	r22, r24
    2f00:	79 0b       	sbc	r23, r25
    2f02:	07 2e       	mov	r0, r23
    2f04:	00 0c       	add	r0, r0
    2f06:	88 0b       	sbc	r24, r24
    2f08:	99 0b       	sbc	r25, r25
    2f0a:	ce d2       	rcall	.+1436   	; 0x34a8 <__floatsisf>
    2f0c:	23 e3       	ldi	r18, 0x33	; 51
    2f0e:	33 e3       	ldi	r19, 0x33	; 51
    2f10:	43 e8       	ldi	r20, 0x83	; 131
    2f12:	51 e4       	ldi	r21, 0x41	; 65
    2f14:	2e d2       	rcall	.+1116   	; 0x3372 <__divsf3>
    2f16:	6c a7       	std	Y+44, r22	; 0x2c
    2f18:	7d a7       	std	Y+45, r23	; 0x2d
    2f1a:	8e a7       	std	Y+46, r24	; 0x2e
    2f1c:	9f a7       	std	Y+47, r25	; 0x2f
	
	MPU9150->temp  = (MPU9150->raw_temp + 11900.0) / 34.0;	//chyba *10
    2f1e:	6c 85       	ldd	r22, Y+12	; 0x0c
    2f20:	7d 85       	ldd	r23, Y+13	; 0x0d
    2f22:	07 2e       	mov	r0, r23
    2f24:	00 0c       	add	r0, r0
    2f26:	88 0b       	sbc	r24, r24
    2f28:	99 0b       	sbc	r25, r25
    2f2a:	be d2       	rcall	.+1404   	; 0x34a8 <__floatsisf>
    2f2c:	20 e0       	ldi	r18, 0x00	; 0
    2f2e:	30 ef       	ldi	r19, 0xF0	; 240
    2f30:	49 e3       	ldi	r20, 0x39	; 57
    2f32:	56 e4       	ldi	r21, 0x46	; 70
    2f34:	b6 d1       	rcall	.+876    	; 0x32a2 <__addsf3>
    2f36:	20 e0       	ldi	r18, 0x00	; 0
    2f38:	30 e0       	ldi	r19, 0x00	; 0
    2f3a:	48 e0       	ldi	r20, 0x08	; 8
    2f3c:	52 e4       	ldi	r21, 0x42	; 66
    2f3e:	19 d2       	rcall	.+1074   	; 0x3372 <__divsf3>
    2f40:	80 d2       	rcall	.+1280   	; 0x3442 <__fixsfsi>
    2f42:	68 ab       	std	Y+48, r22	; 0x30
    2f44:	79 ab       	std	Y+49, r23	; 0x31
    2f46:	df 91       	pop	r29
    2f48:	cf 91       	pop	r28
    2f4a:	08 95       	ret

00002f4c <prepareFrame>:
	while((*s) && ((*s) != '*'))
	c ^= *s++;
	return c;
}

void decodeNMEA(GPS_t * GPS, ringBuffer_t * GPSbuf){
    2f4c:	cf 93       	push	r28
    2f4e:	df 93       	push	r29
    2f50:	dc 01       	movw	r26, r24
    2f52:	16 96       	adiw	r26, 0x06	; 6
    2f54:	cd 91       	ld	r28, X+
    2f56:	dc 91       	ld	r29, X
    2f58:	17 97       	sbiw	r26, 0x07	; 7
    2f5a:	1e 96       	adiw	r26, 0x0e	; 14
    2f5c:	ed 91       	ld	r30, X+
    2f5e:	fc 91       	ld	r31, X
    2f60:	1f 97       	sbiw	r26, 0x0f	; 15
    2f62:	8c a5       	ldd	r24, Y+44	; 0x2c
    2f64:	1f 92       	push	r1
    2f66:	8f 93       	push	r24
    2f68:	ce 01       	movw	r24, r28
    2f6a:	80 96       	adiw	r24, 0x20	; 32
    2f6c:	9f 93       	push	r25
    2f6e:	8f 93       	push	r24
    2f70:	0e 97       	sbiw	r24, 0x0e	; 14
    2f72:	9f 93       	push	r25
    2f74:	8f 93       	push	r24
    2f76:	24 96       	adiw	r28, 0x04	; 4
    2f78:	df 93       	push	r29
    2f7a:	cf 93       	push	r28
    2f7c:	83 a1       	ldd	r24, Z+35	; 0x23
    2f7e:	8f 93       	push	r24
    2f80:	82 a1       	ldd	r24, Z+34	; 0x22
    2f82:	8f 93       	push	r24
    2f84:	81 a1       	ldd	r24, Z+33	; 0x21
    2f86:	8f 93       	push	r24
    2f88:	80 a1       	ldd	r24, Z+32	; 0x20
    2f8a:	8f 93       	push	r24
    2f8c:	83 81       	ldd	r24, Z+3	; 0x03
    2f8e:	8f 93       	push	r24
    2f90:	82 81       	ldd	r24, Z+2	; 0x02
    2f92:	8f 93       	push	r24
    2f94:	81 81       	ldd	r24, Z+1	; 0x01
    2f96:	8f 93       	push	r24
    2f98:	80 81       	ld	r24, Z
    2f9a:	8f 93       	push	r24
    2f9c:	83 89       	ldd	r24, Z+19	; 0x13
    2f9e:	8f 93       	push	r24
    2fa0:	82 89       	ldd	r24, Z+18	; 0x12
    2fa2:	8f 93       	push	r24
    2fa4:	81 89       	ldd	r24, Z+17	; 0x11
    2fa6:	8f 93       	push	r24
    2fa8:	80 89       	ldd	r24, Z+16	; 0x10
    2faa:	8f 93       	push	r24
    2fac:	87 89       	ldd	r24, Z+23	; 0x17
    2fae:	8f 93       	push	r24
    2fb0:	86 89       	ldd	r24, Z+22	; 0x16
    2fb2:	8f 93       	push	r24
    2fb4:	85 89       	ldd	r24, Z+21	; 0x15
    2fb6:	8f 93       	push	r24
    2fb8:	84 89       	ldd	r24, Z+20	; 0x14
    2fba:	8f 93       	push	r24
    2fbc:	18 96       	adiw	r26, 0x08	; 8
    2fbe:	ed 91       	ld	r30, X+
    2fc0:	fc 91       	ld	r31, X
    2fc2:	19 97       	sbiw	r26, 0x09	; 9
    2fc4:	87 81       	ldd	r24, Z+7	; 0x07
    2fc6:	8f 93       	push	r24
    2fc8:	86 81       	ldd	r24, Z+6	; 0x06
    2fca:	8f 93       	push	r24
    2fcc:	85 81       	ldd	r24, Z+5	; 0x05
    2fce:	8f 93       	push	r24
    2fd0:	84 81       	ldd	r24, Z+4	; 0x04
    2fd2:	8f 93       	push	r24
    2fd4:	1a 96       	adiw	r26, 0x0a	; 10
    2fd6:	ed 91       	ld	r30, X+
    2fd8:	fc 91       	ld	r31, X
    2fda:	1b 97       	sbiw	r26, 0x0b	; 11
    2fdc:	87 81       	ldd	r24, Z+7	; 0x07
    2fde:	1f 92       	push	r1
    2fe0:	8f 93       	push	r24
    2fe2:	56 96       	adiw	r26, 0x16	; 22
    2fe4:	ed 91       	ld	r30, X+
    2fe6:	fc 91       	ld	r31, X
    2fe8:	57 97       	sbiw	r26, 0x17	; 23
    2fea:	83 81       	ldd	r24, Z+3	; 0x03
    2fec:	8f 93       	push	r24
    2fee:	82 81       	ldd	r24, Z+2	; 0x02
    2ff0:	8f 93       	push	r24
    2ff2:	81 81       	ldd	r24, Z+1	; 0x01
    2ff4:	8f 93       	push	r24
    2ff6:	80 81       	ld	r24, Z
    2ff8:	8f 93       	push	r24
    2ffa:	80 ed       	ldi	r24, 0xD0	; 208
    2ffc:	90 e2       	ldi	r25, 0x20	; 32
    2ffe:	9f 93       	push	r25
    3000:	8f 93       	push	r24
    3002:	51 96       	adiw	r26, 0x11	; 17
    3004:	8c 91       	ld	r24, X
    3006:	51 97       	sbiw	r26, 0x11	; 17
    3008:	8f 93       	push	r24
    300a:	50 96       	adiw	r26, 0x10	; 16
    300c:	8c 91       	ld	r24, X
    300e:	8f 93       	push	r24
    3010:	80 d5       	rcall	.+2816   	; 0x3b12 <sprintf>
    3012:	8d b7       	in	r24, 0x3d	; 61
    3014:	9e b7       	in	r25, 0x3e	; 62
    3016:	86 96       	adiw	r24, 0x26	; 38
    3018:	8d bf       	out	0x3d, r24	; 61
    301a:	9e bf       	out	0x3e, r25	; 62
    301c:	df 91       	pop	r29
    301e:	cf 91       	pop	r28
    3020:	08 95       	ret

00003022 <GPSbuf_init>:
	}
 	(*GPSbuf).mutex = false;
	 */
}

void GPSbuf_init(GPS_t * gps){
    3022:	fc 01       	movw	r30, r24
	gps->altitude[0] = '0';
    3024:	80 e3       	ldi	r24, 0x30	; 48
    3026:	80 a3       	std	Z+32, r24	; 0x20
	gps->altitude[1] = '0';
    3028:	81 a3       	std	Z+33, r24	; 0x21
	gps->altitude[2] = '0';
    302a:	82 a3       	std	Z+34, r24	; 0x22
	gps->altitude[3] = '0';
    302c:	83 a3       	std	Z+35, r24	; 0x23
	gps->altitude[4] = '0';
    302e:	84 a3       	std	Z+36, r24	; 0x24
	gps->altitude[5] = '0';
    3030:	85 a3       	std	Z+37, r24	; 0x25
	gps->altitude[6] = '0';
    3032:	86 a3       	std	Z+38, r24	; 0x26
	gps->altitude[7] = '0';
    3034:	87 a3       	std	Z+39, r24	; 0x27
	gps->altitude[8] = '0';
    3036:	80 a7       	std	Z+40, r24	; 0x28
	gps->altitude[9] = '0';
    3038:	81 a7       	std	Z+41, r24	; 0x29

	gps->longitude[0] = '0';
    303a:	82 8b       	std	Z+18, r24	; 0x12
	gps->longitude[1] = '0';
    303c:	83 8b       	std	Z+19, r24	; 0x13
	gps->longitude[2] = '0';
    303e:	84 8b       	std	Z+20, r24	; 0x14
	gps->longitude[3] = '0';
    3040:	85 8b       	std	Z+21, r24	; 0x15
	gps->longitude[4] = '0';
    3042:	86 8b       	std	Z+22, r24	; 0x16
	gps->longitude[5] = '0';
    3044:	87 8b       	std	Z+23, r24	; 0x17
	gps->longitude[6] = '0';
    3046:	80 8f       	std	Z+24, r24	; 0x18
	gps->longitude[7] = '0';
    3048:	81 8f       	std	Z+25, r24	; 0x19
	gps->longitude[8] = '0';
    304a:	82 8f       	std	Z+26, r24	; 0x1a
	gps->longitude[9] = '0';
    304c:	83 8f       	std	Z+27, r24	; 0x1b
	gps->longitude[10] = '0';
    304e:	84 8f       	std	Z+28, r24	; 0x1c
	gps->longitude[11] = '0';
    3050:	85 8f       	std	Z+29, r24	; 0x1d
	gps->longitude[12] = '0';
    3052:	86 8f       	std	Z+30, r24	; 0x1e
	
	gps->latitude[0] = '0';
    3054:	84 83       	std	Z+4, r24	; 0x04
	gps->latitude[1] = '0';
    3056:	85 83       	std	Z+5, r24	; 0x05
	gps->latitude[2] = '0';
    3058:	86 83       	std	Z+6, r24	; 0x06
	gps->latitude[3] = '0';
    305a:	87 83       	std	Z+7, r24	; 0x07
	gps->latitude[4] = '0';
    305c:	80 87       	std	Z+8, r24	; 0x08
	gps->latitude[5] = '0';
    305e:	81 87       	std	Z+9, r24	; 0x09
	gps->latitude[6] = '0';
    3060:	82 87       	std	Z+10, r24	; 0x0a
	gps->latitude[7] = '0';
    3062:	83 87       	std	Z+11, r24	; 0x0b
	gps->latitude[8] = '0';
    3064:	84 87       	std	Z+12, r24	; 0x0c
	gps->latitude[9] = '0';
    3066:	85 87       	std	Z+13, r24	; 0x0d
	gps->latitude[10] = '0';
    3068:	86 87       	std	Z+14, r24	; 0x0e
	gps->latitude[11] = '0';
    306a:	87 87       	std	Z+15, r24	; 0x0f
	gps->latitude[12] = '0';
    306c:	80 8b       	std	Z+16, r24	; 0x10
	
	gps->fix = 0;
    306e:	14 a6       	std	Z+44, r1	; 0x2c
    3070:	08 95       	ret

00003072 <MinAngleVector3D>:
}

float MinAngleVector3D(float x, float y, float z){
    3072:	4f 92       	push	r4
    3074:	5f 92       	push	r5
    3076:	6f 92       	push	r6
    3078:	7f 92       	push	r7
    307a:	8f 92       	push	r8
    307c:	9f 92       	push	r9
    307e:	af 92       	push	r10
    3080:	bf 92       	push	r11
    3082:	cf 92       	push	r12
    3084:	df 92       	push	r13
    3086:	ef 92       	push	r14
    3088:	ff 92       	push	r15
    308a:	0f 93       	push	r16
    308c:	1f 93       	push	r17
    308e:	cf 93       	push	r28
    3090:	df 93       	push	r29
    3092:	cd b7       	in	r28, 0x3d	; 61
    3094:	de b7       	in	r29, 0x3e	; 62
    3096:	60 97       	sbiw	r28, 0x10	; 16
    3098:	cd bf       	out	0x3d, r28	; 61
    309a:	de bf       	out	0x3e, r29	; 62
    309c:	2b 01       	movw	r4, r22
    309e:	3c 01       	movw	r6, r24
    30a0:	2d 83       	std	Y+5, r18	; 0x05
    30a2:	3e 83       	std	Y+6, r19	; 0x06
    30a4:	4f 83       	std	Y+7, r20	; 0x07
    30a6:	58 87       	std	Y+8, r21	; 0x08
    30a8:	47 01       	movw	r8, r14
    30aa:	58 01       	movw	r10, r16
	float dot, length,cosa, angle1, angle2, angle3;
	//-----assume reference [1, 0 ,0]-------------------------
	dot = fabs(x);
	length = VectorLength3D(x,y,z);
    30ac:	9b 01       	movw	r18, r22
    30ae:	ac 01       	movw	r20, r24
    30b0:	ef d2       	rcall	.+1502   	; 0x3690 <__mulsf3>
    30b2:	6b 01       	movw	r12, r22
    30b4:	7c 01       	movw	r14, r24
    30b6:	2d 81       	ldd	r18, Y+5	; 0x05
    30b8:	3e 81       	ldd	r19, Y+6	; 0x06
    30ba:	4f 81       	ldd	r20, Y+7	; 0x07
    30bc:	58 85       	ldd	r21, Y+8	; 0x08
    30be:	ca 01       	movw	r24, r20
    30c0:	b9 01       	movw	r22, r18
    30c2:	e6 d2       	rcall	.+1484   	; 0x3690 <__mulsf3>
    30c4:	69 83       	std	Y+1, r22	; 0x01
    30c6:	7a 83       	std	Y+2, r23	; 0x02
    30c8:	8b 83       	std	Y+3, r24	; 0x03
    30ca:	9c 83       	std	Y+4, r25	; 0x04
    30cc:	9b 01       	movw	r18, r22
    30ce:	ac 01       	movw	r20, r24
    30d0:	c7 01       	movw	r24, r14
    30d2:	b6 01       	movw	r22, r12
    30d4:	e6 d0       	rcall	.+460    	; 0x32a2 <__addsf3>
    30d6:	6d 87       	std	Y+13, r22	; 0x0d
    30d8:	7e 87       	std	Y+14, r23	; 0x0e
    30da:	8f 87       	std	Y+15, r24	; 0x0f
    30dc:	98 8b       	std	Y+16, r25	; 0x10
    30de:	a5 01       	movw	r20, r10
    30e0:	94 01       	movw	r18, r8
    30e2:	c5 01       	movw	r24, r10
    30e4:	b4 01       	movw	r22, r8
    30e6:	d4 d2       	rcall	.+1448   	; 0x3690 <__mulsf3>
    30e8:	69 87       	std	Y+9, r22	; 0x09
    30ea:	7a 87       	std	Y+10, r23	; 0x0a
    30ec:	8b 87       	std	Y+11, r24	; 0x0b
    30ee:	9c 87       	std	Y+12, r25	; 0x0c
    30f0:	29 81       	ldd	r18, Y+1	; 0x01
    30f2:	3a 81       	ldd	r19, Y+2	; 0x02
    30f4:	4b 81       	ldd	r20, Y+3	; 0x03
    30f6:	5c 81       	ldd	r21, Y+4	; 0x04
    30f8:	c7 01       	movw	r24, r14
    30fa:	b6 01       	movw	r22, r12
    30fc:	d2 d0       	rcall	.+420    	; 0x32a2 <__addsf3>
    30fe:	6b 01       	movw	r12, r22
    3100:	7c 01       	movw	r14, r24
    3102:	29 85       	ldd	r18, Y+9	; 0x09
    3104:	3a 85       	ldd	r19, Y+10	; 0x0a
    3106:	4b 85       	ldd	r20, Y+11	; 0x0b
    3108:	5c 85       	ldd	r21, Y+12	; 0x0c
    310a:	c7 01       	movw	r24, r14
    310c:	b6 01       	movw	r22, r12
    310e:	c9 d0       	rcall	.+402    	; 0x32a2 <__addsf3>
    3110:	72 d3       	rcall	.+1764   	; 0x37f6 <sqrt>
    3112:	69 83       	std	Y+1, r22	; 0x01
    3114:	7a 83       	std	Y+2, r23	; 0x02
    3116:	8b 83       	std	Y+3, r24	; 0x03
    3118:	9c 83       	std	Y+4, r25	; 0x04
}

float MinAngleVector3D(float x, float y, float z){
	float dot, length,cosa, angle1, angle2, angle3;
	//-----assume reference [1, 0 ,0]-------------------------
	dot = fabs(x);
    311a:	c3 01       	movw	r24, r6
    311c:	b2 01       	movw	r22, r4
    311e:	9f 77       	andi	r25, 0x7F	; 127
	length = VectorLength3D(x,y,z);
	cosa = dot/length;
    3120:	29 81       	ldd	r18, Y+1	; 0x01
    3122:	3a 81       	ldd	r19, Y+2	; 0x02
    3124:	4b 81       	ldd	r20, Y+3	; 0x03
    3126:	5c 81       	ldd	r21, Y+4	; 0x04
    3128:	24 d1       	rcall	.+584    	; 0x3372 <__divsf3>
	angle1 = acos(cosa)/3.14*180.0;
    312a:	ac d0       	rcall	.+344    	; 0x3284 <acos>
    312c:	23 ec       	ldi	r18, 0xC3	; 195
    312e:	35 ef       	ldi	r19, 0xF5	; 245
    3130:	48 e4       	ldi	r20, 0x48	; 72
    3132:	50 e4       	ldi	r21, 0x40	; 64
    3134:	1e d1       	rcall	.+572    	; 0x3372 <__divsf3>
    3136:	20 e0       	ldi	r18, 0x00	; 0
    3138:	30 e0       	ldi	r19, 0x00	; 0
    313a:	44 e3       	ldi	r20, 0x34	; 52
    313c:	53 e4       	ldi	r21, 0x43	; 67
    313e:	a8 d2       	rcall	.+1360   	; 0x3690 <__mulsf3>
    3140:	f6 2e       	mov	r15, r22
    3142:	e7 2e       	mov	r14, r23
    3144:	d8 2e       	mov	r13, r24
    3146:	c9 2e       	mov	r12, r25
	//-----assume reference [0, 1 ,0]-------------------------
	dot = fabs(y);
    3148:	6d 81       	ldd	r22, Y+5	; 0x05
    314a:	7e 81       	ldd	r23, Y+6	; 0x06
    314c:	8f 81       	ldd	r24, Y+7	; 0x07
    314e:	98 85       	ldd	r25, Y+8	; 0x08
    3150:	9f 77       	andi	r25, 0x7F	; 127
	length = VectorLength3D(x,y,z);
	cosa = dot/length;
    3152:	29 81       	ldd	r18, Y+1	; 0x01
    3154:	3a 81       	ldd	r19, Y+2	; 0x02
    3156:	4b 81       	ldd	r20, Y+3	; 0x03
    3158:	5c 81       	ldd	r21, Y+4	; 0x04
    315a:	0b d1       	rcall	.+534    	; 0x3372 <__divsf3>
	angle2 = acos(cosa)/3.14*180.0;
    315c:	93 d0       	rcall	.+294    	; 0x3284 <acos>
    315e:	23 ec       	ldi	r18, 0xC3	; 195
    3160:	35 ef       	ldi	r19, 0xF5	; 245
    3162:	48 e4       	ldi	r20, 0x48	; 72
    3164:	50 e4       	ldi	r21, 0x40	; 64
    3166:	05 d1       	rcall	.+522    	; 0x3372 <__divsf3>
    3168:	20 e0       	ldi	r18, 0x00	; 0
    316a:	30 e0       	ldi	r19, 0x00	; 0
    316c:	44 e3       	ldi	r20, 0x34	; 52
    316e:	53 e4       	ldi	r21, 0x43	; 67
    3170:	8f d2       	rcall	.+1310   	; 0x3690 <__mulsf3>
    3172:	66 2e       	mov	r6, r22
    3174:	77 2e       	mov	r7, r23
    3176:	18 2f       	mov	r17, r24
    3178:	09 2f       	mov	r16, r25
	//-----assume reference [0, 0 ,1]-------------------------
	dot = fabs(z);
    317a:	c5 01       	movw	r24, r10
    317c:	b4 01       	movw	r22, r8
    317e:	9f 77       	andi	r25, 0x7F	; 127
	length = VectorLength3D(x,y,z);
	cosa = dot/length;
    3180:	29 81       	ldd	r18, Y+1	; 0x01
    3182:	3a 81       	ldd	r19, Y+2	; 0x02
    3184:	4b 81       	ldd	r20, Y+3	; 0x03
    3186:	5c 81       	ldd	r21, Y+4	; 0x04
    3188:	f4 d0       	rcall	.+488    	; 0x3372 <__divsf3>
	angle3 = acos(cosa)/3.14*180.0;
    318a:	7c d0       	rcall	.+248    	; 0x3284 <acos>
    318c:	23 ec       	ldi	r18, 0xC3	; 195
    318e:	35 ef       	ldi	r19, 0xF5	; 245
    3190:	48 e4       	ldi	r20, 0x48	; 72
    3192:	50 e4       	ldi	r21, 0x40	; 64
    3194:	ee d0       	rcall	.+476    	; 0x3372 <__divsf3>
    3196:	20 e0       	ldi	r18, 0x00	; 0
    3198:	30 e0       	ldi	r19, 0x00	; 0
    319a:	44 e3       	ldi	r20, 0x34	; 52
    319c:	53 e4       	ldi	r21, 0x43	; 67
    319e:	78 d2       	rcall	.+1264   	; 0x3690 <__mulsf3>
    31a0:	b6 2e       	mov	r11, r22
    31a2:	a7 2e       	mov	r10, r23
    31a4:	98 2e       	mov	r9, r24
    31a6:	89 2e       	mov	r8, r25
	//-----compare--------------------------------------------
	if((angle1 <= angle2) && (angle1 <= angle3)) return angle1;
    31a8:	26 2d       	mov	r18, r6
    31aa:	37 2d       	mov	r19, r7
    31ac:	41 2f       	mov	r20, r17
    31ae:	50 2f       	mov	r21, r16
    31b0:	6f 2d       	mov	r22, r15
    31b2:	7e 2d       	mov	r23, r14
    31b4:	8d 2d       	mov	r24, r13
    31b6:	9c 2d       	mov	r25, r12
    31b8:	d8 d0       	rcall	.+432    	; 0x336a <__cmpsf2>
    31ba:	18 16       	cp	r1, r24
    31bc:	5c f0       	brlt	.+22     	; 0x31d4 <MinAngleVector3D+0x162>
    31be:	2b 2d       	mov	r18, r11
    31c0:	3a 2d       	mov	r19, r10
    31c2:	49 2d       	mov	r20, r9
    31c4:	58 2d       	mov	r21, r8
    31c6:	6f 2d       	mov	r22, r15
    31c8:	7e 2d       	mov	r23, r14
    31ca:	8d 2d       	mov	r24, r13
    31cc:	9c 2d       	mov	r25, r12
    31ce:	cd d0       	rcall	.+410    	; 0x336a <__cmpsf2>
    31d0:	18 16       	cp	r1, r24
    31d2:	7c f5       	brge	.+94     	; 0x3232 <MinAngleVector3D+0x1c0>
	else if((angle2 <= angle1) && (angle2 <= angle3)) return angle2;
    31d4:	26 2d       	mov	r18, r6
    31d6:	37 2d       	mov	r19, r7
    31d8:	41 2f       	mov	r20, r17
    31da:	50 2f       	mov	r21, r16
    31dc:	6f 2d       	mov	r22, r15
    31de:	7e 2d       	mov	r23, r14
    31e0:	8d 2d       	mov	r24, r13
    31e2:	9c 2d       	mov	r25, r12
    31e4:	51 d2       	rcall	.+1186   	; 0x3688 <__gesf2>
    31e6:	88 23       	and	r24, r24
    31e8:	5c f0       	brlt	.+22     	; 0x3200 <MinAngleVector3D+0x18e>
    31ea:	2b 2d       	mov	r18, r11
    31ec:	3a 2d       	mov	r19, r10
    31ee:	49 2d       	mov	r20, r9
    31f0:	58 2d       	mov	r21, r8
    31f2:	66 2d       	mov	r22, r6
    31f4:	77 2d       	mov	r23, r7
    31f6:	81 2f       	mov	r24, r17
    31f8:	90 2f       	mov	r25, r16
    31fa:	b7 d0       	rcall	.+366    	; 0x336a <__cmpsf2>
    31fc:	18 16       	cp	r1, r24
    31fe:	f4 f4       	brge	.+60     	; 0x323c <MinAngleVector3D+0x1ca>
	else if((angle3 <= angle2) && (angle3 <= angle1)) return angle3;
    3200:	2b 2d       	mov	r18, r11
    3202:	3a 2d       	mov	r19, r10
    3204:	49 2d       	mov	r20, r9
    3206:	58 2d       	mov	r21, r8
    3208:	66 2d       	mov	r22, r6
    320a:	77 2d       	mov	r23, r7
    320c:	81 2f       	mov	r24, r17
    320e:	90 2f       	mov	r25, r16
    3210:	3b d2       	rcall	.+1142   	; 0x3688 <__gesf2>
    3212:	88 23       	and	r24, r24
    3214:	b4 f0       	brlt	.+44     	; 0x3242 <MinAngleVector3D+0x1d0>
    3216:	2b 2d       	mov	r18, r11
    3218:	3a 2d       	mov	r19, r10
    321a:	49 2d       	mov	r20, r9
    321c:	58 2d       	mov	r21, r8
    321e:	6f 2d       	mov	r22, r15
    3220:	7e 2d       	mov	r23, r14
    3222:	8d 2d       	mov	r24, r13
    3224:	9c 2d       	mov	r25, r12
    3226:	30 d2       	rcall	.+1120   	; 0x3688 <__gesf2>
    3228:	88 23       	and	r24, r24
    322a:	84 f0       	brlt	.+32     	; 0x324c <MinAngleVector3D+0x1da>
    322c:	19 2d       	mov	r17, r9
    322e:	08 2d       	mov	r16, r8
    3230:	11 c0       	rjmp	.+34     	; 0x3254 <MinAngleVector3D+0x1e2>
	dot = fabs(z);
	length = VectorLength3D(x,y,z);
	cosa = dot/length;
	angle3 = acos(cosa)/3.14*180.0;
	//-----compare--------------------------------------------
	if((angle1 <= angle2) && (angle1 <= angle3)) return angle1;
    3232:	bf 2c       	mov	r11, r15
    3234:	ae 2c       	mov	r10, r14
    3236:	1d 2d       	mov	r17, r13
    3238:	0c 2d       	mov	r16, r12
    323a:	0c c0       	rjmp	.+24     	; 0x3254 <MinAngleVector3D+0x1e2>
	else if((angle2 <= angle1) && (angle2 <= angle3)) return angle2;
    323c:	b6 2c       	mov	r11, r6
    323e:	a7 2c       	mov	r10, r7
    3240:	09 c0       	rjmp	.+18     	; 0x3254 <MinAngleVector3D+0x1e2>
	else if((angle3 <= angle2) && (angle3 <= angle1)) return angle3;
	else return 0;
    3242:	b1 2c       	mov	r11, r1
    3244:	a1 2c       	mov	r10, r1
    3246:	10 e0       	ldi	r17, 0x00	; 0
    3248:	00 e0       	ldi	r16, 0x00	; 0
    324a:	04 c0       	rjmp	.+8      	; 0x3254 <MinAngleVector3D+0x1e2>
    324c:	b1 2c       	mov	r11, r1
    324e:	a1 2c       	mov	r10, r1
    3250:	10 e0       	ldi	r17, 0x00	; 0
    3252:	00 e0       	ldi	r16, 0x00	; 0
    3254:	6b 2d       	mov	r22, r11
    3256:	7a 2d       	mov	r23, r10
    3258:	81 2f       	mov	r24, r17
    325a:	90 2f       	mov	r25, r16
    325c:	60 96       	adiw	r28, 0x10	; 16
    325e:	cd bf       	out	0x3d, r28	; 61
    3260:	de bf       	out	0x3e, r29	; 62
    3262:	df 91       	pop	r29
    3264:	cf 91       	pop	r28
    3266:	1f 91       	pop	r17
    3268:	0f 91       	pop	r16
    326a:	ff 90       	pop	r15
    326c:	ef 90       	pop	r14
    326e:	df 90       	pop	r13
    3270:	cf 90       	pop	r12
    3272:	bf 90       	pop	r11
    3274:	af 90       	pop	r10
    3276:	9f 90       	pop	r9
    3278:	8f 90       	pop	r8
    327a:	7f 90       	pop	r7
    327c:	6f 90       	pop	r6
    327e:	5f 90       	pop	r5
    3280:	4f 90       	pop	r4
    3282:	08 95       	ret

00003284 <acos>:
    3284:	9f 93       	push	r25
    3286:	9f 77       	andi	r25, 0x7F	; 127
    3288:	4a d1       	rcall	.+660    	; 0x351e <__fp_arccos>
    328a:	0f 90       	pop	r0
    328c:	00 20       	and	r0, r0
    328e:	3a f4       	brpl	.+14     	; 0x329e <acos+0x1a>
    3290:	90 58       	subi	r25, 0x80	; 128
    3292:	a2 ea       	ldi	r26, 0xA2	; 162
    3294:	2a ed       	ldi	r18, 0xDA	; 218
    3296:	3f e0       	ldi	r19, 0x0F	; 15
    3298:	49 e4       	ldi	r20, 0x49	; 73
    329a:	50 e4       	ldi	r21, 0x40	; 64
    329c:	13 d0       	rcall	.+38     	; 0x32c4 <__addsf3x>
    329e:	ba c1       	rjmp	.+884    	; 0x3614 <__fp_round>

000032a0 <__subsf3>:
    32a0:	50 58       	subi	r21, 0x80	; 128

000032a2 <__addsf3>:
    32a2:	bb 27       	eor	r27, r27
    32a4:	aa 27       	eor	r26, r26
    32a6:	0e d0       	rcall	.+28     	; 0x32c4 <__addsf3x>
    32a8:	b5 c1       	rjmp	.+874    	; 0x3614 <__fp_round>
    32aa:	a6 d1       	rcall	.+844    	; 0x35f8 <__fp_pscA>
    32ac:	30 f0       	brcs	.+12     	; 0x32ba <__addsf3+0x18>
    32ae:	ab d1       	rcall	.+854    	; 0x3606 <__fp_pscB>
    32b0:	20 f0       	brcs	.+8      	; 0x32ba <__addsf3+0x18>
    32b2:	31 f4       	brne	.+12     	; 0x32c0 <__addsf3+0x1e>
    32b4:	9f 3f       	cpi	r25, 0xFF	; 255
    32b6:	11 f4       	brne	.+4      	; 0x32bc <__addsf3+0x1a>
    32b8:	1e f4       	brtc	.+6      	; 0x32c0 <__addsf3+0x1e>
    32ba:	76 c1       	rjmp	.+748    	; 0x35a8 <__fp_nan>
    32bc:	0e f4       	brtc	.+2      	; 0x32c0 <__addsf3+0x1e>
    32be:	e0 95       	com	r30
    32c0:	e7 fb       	bst	r30, 7
    32c2:	6c c1       	rjmp	.+728    	; 0x359c <__fp_inf>

000032c4 <__addsf3x>:
    32c4:	e9 2f       	mov	r30, r25
    32c6:	b7 d1       	rcall	.+878    	; 0x3636 <__fp_split3>
    32c8:	80 f3       	brcs	.-32     	; 0x32aa <__addsf3+0x8>
    32ca:	ba 17       	cp	r27, r26
    32cc:	62 07       	cpc	r22, r18
    32ce:	73 07       	cpc	r23, r19
    32d0:	84 07       	cpc	r24, r20
    32d2:	95 07       	cpc	r25, r21
    32d4:	18 f0       	brcs	.+6      	; 0x32dc <__addsf3x+0x18>
    32d6:	71 f4       	brne	.+28     	; 0x32f4 <__addsf3x+0x30>
    32d8:	9e f5       	brtc	.+102    	; 0x3340 <__addsf3x+0x7c>
    32da:	cf c1       	rjmp	.+926    	; 0x367a <__fp_zero>
    32dc:	0e f4       	brtc	.+2      	; 0x32e0 <__addsf3x+0x1c>
    32de:	e0 95       	com	r30
    32e0:	0b 2e       	mov	r0, r27
    32e2:	ba 2f       	mov	r27, r26
    32e4:	a0 2d       	mov	r26, r0
    32e6:	0b 01       	movw	r0, r22
    32e8:	b9 01       	movw	r22, r18
    32ea:	90 01       	movw	r18, r0
    32ec:	0c 01       	movw	r0, r24
    32ee:	ca 01       	movw	r24, r20
    32f0:	a0 01       	movw	r20, r0
    32f2:	11 24       	eor	r1, r1
    32f4:	ff 27       	eor	r31, r31
    32f6:	59 1b       	sub	r21, r25
    32f8:	99 f0       	breq	.+38     	; 0x3320 <__addsf3x+0x5c>
    32fa:	59 3f       	cpi	r21, 0xF9	; 249
    32fc:	50 f4       	brcc	.+20     	; 0x3312 <__addsf3x+0x4e>
    32fe:	50 3e       	cpi	r21, 0xE0	; 224
    3300:	68 f1       	brcs	.+90     	; 0x335c <__addsf3x+0x98>
    3302:	1a 16       	cp	r1, r26
    3304:	f0 40       	sbci	r31, 0x00	; 0
    3306:	a2 2f       	mov	r26, r18
    3308:	23 2f       	mov	r18, r19
    330a:	34 2f       	mov	r19, r20
    330c:	44 27       	eor	r20, r20
    330e:	58 5f       	subi	r21, 0xF8	; 248
    3310:	f3 cf       	rjmp	.-26     	; 0x32f8 <__addsf3x+0x34>
    3312:	46 95       	lsr	r20
    3314:	37 95       	ror	r19
    3316:	27 95       	ror	r18
    3318:	a7 95       	ror	r26
    331a:	f0 40       	sbci	r31, 0x00	; 0
    331c:	53 95       	inc	r21
    331e:	c9 f7       	brne	.-14     	; 0x3312 <__addsf3x+0x4e>
    3320:	7e f4       	brtc	.+30     	; 0x3340 <__addsf3x+0x7c>
    3322:	1f 16       	cp	r1, r31
    3324:	ba 0b       	sbc	r27, r26
    3326:	62 0b       	sbc	r22, r18
    3328:	73 0b       	sbc	r23, r19
    332a:	84 0b       	sbc	r24, r20
    332c:	ba f0       	brmi	.+46     	; 0x335c <__addsf3x+0x98>
    332e:	91 50       	subi	r25, 0x01	; 1
    3330:	a1 f0       	breq	.+40     	; 0x335a <__addsf3x+0x96>
    3332:	ff 0f       	add	r31, r31
    3334:	bb 1f       	adc	r27, r27
    3336:	66 1f       	adc	r22, r22
    3338:	77 1f       	adc	r23, r23
    333a:	88 1f       	adc	r24, r24
    333c:	c2 f7       	brpl	.-16     	; 0x332e <__addsf3x+0x6a>
    333e:	0e c0       	rjmp	.+28     	; 0x335c <__addsf3x+0x98>
    3340:	ba 0f       	add	r27, r26
    3342:	62 1f       	adc	r22, r18
    3344:	73 1f       	adc	r23, r19
    3346:	84 1f       	adc	r24, r20
    3348:	48 f4       	brcc	.+18     	; 0x335c <__addsf3x+0x98>
    334a:	87 95       	ror	r24
    334c:	77 95       	ror	r23
    334e:	67 95       	ror	r22
    3350:	b7 95       	ror	r27
    3352:	f7 95       	ror	r31
    3354:	9e 3f       	cpi	r25, 0xFE	; 254
    3356:	08 f0       	brcs	.+2      	; 0x335a <__addsf3x+0x96>
    3358:	b3 cf       	rjmp	.-154    	; 0x32c0 <__addsf3+0x1e>
    335a:	93 95       	inc	r25
    335c:	88 0f       	add	r24, r24
    335e:	08 f0       	brcs	.+2      	; 0x3362 <__addsf3x+0x9e>
    3360:	99 27       	eor	r25, r25
    3362:	ee 0f       	add	r30, r30
    3364:	97 95       	ror	r25
    3366:	87 95       	ror	r24
    3368:	08 95       	ret

0000336a <__cmpsf2>:
    336a:	f4 d0       	rcall	.+488    	; 0x3554 <__fp_cmp>
    336c:	08 f4       	brcc	.+2      	; 0x3370 <__cmpsf2+0x6>
    336e:	81 e0       	ldi	r24, 0x01	; 1
    3370:	08 95       	ret

00003372 <__divsf3>:
    3372:	0c d0       	rcall	.+24     	; 0x338c <__divsf3x>
    3374:	4f c1       	rjmp	.+670    	; 0x3614 <__fp_round>
    3376:	47 d1       	rcall	.+654    	; 0x3606 <__fp_pscB>
    3378:	40 f0       	brcs	.+16     	; 0x338a <__divsf3+0x18>
    337a:	3e d1       	rcall	.+636    	; 0x35f8 <__fp_pscA>
    337c:	30 f0       	brcs	.+12     	; 0x338a <__divsf3+0x18>
    337e:	21 f4       	brne	.+8      	; 0x3388 <__divsf3+0x16>
    3380:	5f 3f       	cpi	r21, 0xFF	; 255
    3382:	19 f0       	breq	.+6      	; 0x338a <__divsf3+0x18>
    3384:	0b c1       	rjmp	.+534    	; 0x359c <__fp_inf>
    3386:	51 11       	cpse	r21, r1
    3388:	79 c1       	rjmp	.+754    	; 0x367c <__fp_szero>
    338a:	0e c1       	rjmp	.+540    	; 0x35a8 <__fp_nan>

0000338c <__divsf3x>:
    338c:	54 d1       	rcall	.+680    	; 0x3636 <__fp_split3>
    338e:	98 f3       	brcs	.-26     	; 0x3376 <__divsf3+0x4>

00003390 <__divsf3_pse>:
    3390:	99 23       	and	r25, r25
    3392:	c9 f3       	breq	.-14     	; 0x3386 <__divsf3+0x14>
    3394:	55 23       	and	r21, r21
    3396:	b1 f3       	breq	.-20     	; 0x3384 <__divsf3+0x12>
    3398:	95 1b       	sub	r25, r21
    339a:	55 0b       	sbc	r21, r21
    339c:	bb 27       	eor	r27, r27
    339e:	aa 27       	eor	r26, r26
    33a0:	62 17       	cp	r22, r18
    33a2:	73 07       	cpc	r23, r19
    33a4:	84 07       	cpc	r24, r20
    33a6:	38 f0       	brcs	.+14     	; 0x33b6 <__divsf3_pse+0x26>
    33a8:	9f 5f       	subi	r25, 0xFF	; 255
    33aa:	5f 4f       	sbci	r21, 0xFF	; 255
    33ac:	22 0f       	add	r18, r18
    33ae:	33 1f       	adc	r19, r19
    33b0:	44 1f       	adc	r20, r20
    33b2:	aa 1f       	adc	r26, r26
    33b4:	a9 f3       	breq	.-22     	; 0x33a0 <__divsf3_pse+0x10>
    33b6:	33 d0       	rcall	.+102    	; 0x341e <__divsf3_pse+0x8e>
    33b8:	0e 2e       	mov	r0, r30
    33ba:	3a f0       	brmi	.+14     	; 0x33ca <__divsf3_pse+0x3a>
    33bc:	e0 e8       	ldi	r30, 0x80	; 128
    33be:	30 d0       	rcall	.+96     	; 0x3420 <__divsf3_pse+0x90>
    33c0:	91 50       	subi	r25, 0x01	; 1
    33c2:	50 40       	sbci	r21, 0x00	; 0
    33c4:	e6 95       	lsr	r30
    33c6:	00 1c       	adc	r0, r0
    33c8:	ca f7       	brpl	.-14     	; 0x33bc <__divsf3_pse+0x2c>
    33ca:	29 d0       	rcall	.+82     	; 0x341e <__divsf3_pse+0x8e>
    33cc:	fe 2f       	mov	r31, r30
    33ce:	27 d0       	rcall	.+78     	; 0x341e <__divsf3_pse+0x8e>
    33d0:	66 0f       	add	r22, r22
    33d2:	77 1f       	adc	r23, r23
    33d4:	88 1f       	adc	r24, r24
    33d6:	bb 1f       	adc	r27, r27
    33d8:	26 17       	cp	r18, r22
    33da:	37 07       	cpc	r19, r23
    33dc:	48 07       	cpc	r20, r24
    33de:	ab 07       	cpc	r26, r27
    33e0:	b0 e8       	ldi	r27, 0x80	; 128
    33e2:	09 f0       	breq	.+2      	; 0x33e6 <__divsf3_pse+0x56>
    33e4:	bb 0b       	sbc	r27, r27
    33e6:	80 2d       	mov	r24, r0
    33e8:	bf 01       	movw	r22, r30
    33ea:	ff 27       	eor	r31, r31
    33ec:	93 58       	subi	r25, 0x83	; 131
    33ee:	5f 4f       	sbci	r21, 0xFF	; 255
    33f0:	2a f0       	brmi	.+10     	; 0x33fc <__divsf3_pse+0x6c>
    33f2:	9e 3f       	cpi	r25, 0xFE	; 254
    33f4:	51 05       	cpc	r21, r1
    33f6:	68 f0       	brcs	.+26     	; 0x3412 <__divsf3_pse+0x82>
    33f8:	d1 c0       	rjmp	.+418    	; 0x359c <__fp_inf>
    33fa:	40 c1       	rjmp	.+640    	; 0x367c <__fp_szero>
    33fc:	5f 3f       	cpi	r21, 0xFF	; 255
    33fe:	ec f3       	brlt	.-6      	; 0x33fa <__divsf3_pse+0x6a>
    3400:	98 3e       	cpi	r25, 0xE8	; 232
    3402:	dc f3       	brlt	.-10     	; 0x33fa <__divsf3_pse+0x6a>
    3404:	86 95       	lsr	r24
    3406:	77 95       	ror	r23
    3408:	67 95       	ror	r22
    340a:	b7 95       	ror	r27
    340c:	f7 95       	ror	r31
    340e:	9f 5f       	subi	r25, 0xFF	; 255
    3410:	c9 f7       	brne	.-14     	; 0x3404 <__divsf3_pse+0x74>
    3412:	88 0f       	add	r24, r24
    3414:	91 1d       	adc	r25, r1
    3416:	96 95       	lsr	r25
    3418:	87 95       	ror	r24
    341a:	97 f9       	bld	r25, 7
    341c:	08 95       	ret
    341e:	e1 e0       	ldi	r30, 0x01	; 1
    3420:	66 0f       	add	r22, r22
    3422:	77 1f       	adc	r23, r23
    3424:	88 1f       	adc	r24, r24
    3426:	bb 1f       	adc	r27, r27
    3428:	62 17       	cp	r22, r18
    342a:	73 07       	cpc	r23, r19
    342c:	84 07       	cpc	r24, r20
    342e:	ba 07       	cpc	r27, r26
    3430:	20 f0       	brcs	.+8      	; 0x343a <__divsf3_pse+0xaa>
    3432:	62 1b       	sub	r22, r18
    3434:	73 0b       	sbc	r23, r19
    3436:	84 0b       	sbc	r24, r20
    3438:	ba 0b       	sbc	r27, r26
    343a:	ee 1f       	adc	r30, r30
    343c:	88 f7       	brcc	.-30     	; 0x3420 <__divsf3_pse+0x90>
    343e:	e0 95       	com	r30
    3440:	08 95       	ret

00003442 <__fixsfsi>:
    3442:	04 d0       	rcall	.+8      	; 0x344c <__fixunssfsi>
    3444:	68 94       	set
    3446:	b1 11       	cpse	r27, r1
    3448:	19 c1       	rjmp	.+562    	; 0x367c <__fp_szero>
    344a:	08 95       	ret

0000344c <__fixunssfsi>:
    344c:	fc d0       	rcall	.+504    	; 0x3646 <__fp_splitA>
    344e:	88 f0       	brcs	.+34     	; 0x3472 <__fixunssfsi+0x26>
    3450:	9f 57       	subi	r25, 0x7F	; 127
    3452:	90 f0       	brcs	.+36     	; 0x3478 <__fixunssfsi+0x2c>
    3454:	b9 2f       	mov	r27, r25
    3456:	99 27       	eor	r25, r25
    3458:	b7 51       	subi	r27, 0x17	; 23
    345a:	a0 f0       	brcs	.+40     	; 0x3484 <__fixunssfsi+0x38>
    345c:	d1 f0       	breq	.+52     	; 0x3492 <__fixunssfsi+0x46>
    345e:	66 0f       	add	r22, r22
    3460:	77 1f       	adc	r23, r23
    3462:	88 1f       	adc	r24, r24
    3464:	99 1f       	adc	r25, r25
    3466:	1a f0       	brmi	.+6      	; 0x346e <__fixunssfsi+0x22>
    3468:	ba 95       	dec	r27
    346a:	c9 f7       	brne	.-14     	; 0x345e <__fixunssfsi+0x12>
    346c:	12 c0       	rjmp	.+36     	; 0x3492 <__fixunssfsi+0x46>
    346e:	b1 30       	cpi	r27, 0x01	; 1
    3470:	81 f0       	breq	.+32     	; 0x3492 <__fixunssfsi+0x46>
    3472:	03 d1       	rcall	.+518    	; 0x367a <__fp_zero>
    3474:	b1 e0       	ldi	r27, 0x01	; 1
    3476:	08 95       	ret
    3478:	00 c1       	rjmp	.+512    	; 0x367a <__fp_zero>
    347a:	67 2f       	mov	r22, r23
    347c:	78 2f       	mov	r23, r24
    347e:	88 27       	eor	r24, r24
    3480:	b8 5f       	subi	r27, 0xF8	; 248
    3482:	39 f0       	breq	.+14     	; 0x3492 <__fixunssfsi+0x46>
    3484:	b9 3f       	cpi	r27, 0xF9	; 249
    3486:	cc f3       	brlt	.-14     	; 0x347a <__fixunssfsi+0x2e>
    3488:	86 95       	lsr	r24
    348a:	77 95       	ror	r23
    348c:	67 95       	ror	r22
    348e:	b3 95       	inc	r27
    3490:	d9 f7       	brne	.-10     	; 0x3488 <__fixunssfsi+0x3c>
    3492:	3e f4       	brtc	.+14     	; 0x34a2 <__fixunssfsi+0x56>
    3494:	90 95       	com	r25
    3496:	80 95       	com	r24
    3498:	70 95       	com	r23
    349a:	61 95       	neg	r22
    349c:	7f 4f       	sbci	r23, 0xFF	; 255
    349e:	8f 4f       	sbci	r24, 0xFF	; 255
    34a0:	9f 4f       	sbci	r25, 0xFF	; 255
    34a2:	08 95       	ret

000034a4 <__floatunsisf>:
    34a4:	e8 94       	clt
    34a6:	09 c0       	rjmp	.+18     	; 0x34ba <__floatsisf+0x12>

000034a8 <__floatsisf>:
    34a8:	97 fb       	bst	r25, 7
    34aa:	3e f4       	brtc	.+14     	; 0x34ba <__floatsisf+0x12>
    34ac:	90 95       	com	r25
    34ae:	80 95       	com	r24
    34b0:	70 95       	com	r23
    34b2:	61 95       	neg	r22
    34b4:	7f 4f       	sbci	r23, 0xFF	; 255
    34b6:	8f 4f       	sbci	r24, 0xFF	; 255
    34b8:	9f 4f       	sbci	r25, 0xFF	; 255
    34ba:	99 23       	and	r25, r25
    34bc:	a9 f0       	breq	.+42     	; 0x34e8 <__floatsisf+0x40>
    34be:	f9 2f       	mov	r31, r25
    34c0:	96 e9       	ldi	r25, 0x96	; 150
    34c2:	bb 27       	eor	r27, r27
    34c4:	93 95       	inc	r25
    34c6:	f6 95       	lsr	r31
    34c8:	87 95       	ror	r24
    34ca:	77 95       	ror	r23
    34cc:	67 95       	ror	r22
    34ce:	b7 95       	ror	r27
    34d0:	f1 11       	cpse	r31, r1
    34d2:	f8 cf       	rjmp	.-16     	; 0x34c4 <__floatsisf+0x1c>
    34d4:	fa f4       	brpl	.+62     	; 0x3514 <__floatsisf+0x6c>
    34d6:	bb 0f       	add	r27, r27
    34d8:	11 f4       	brne	.+4      	; 0x34de <__floatsisf+0x36>
    34da:	60 ff       	sbrs	r22, 0
    34dc:	1b c0       	rjmp	.+54     	; 0x3514 <__floatsisf+0x6c>
    34de:	6f 5f       	subi	r22, 0xFF	; 255
    34e0:	7f 4f       	sbci	r23, 0xFF	; 255
    34e2:	8f 4f       	sbci	r24, 0xFF	; 255
    34e4:	9f 4f       	sbci	r25, 0xFF	; 255
    34e6:	16 c0       	rjmp	.+44     	; 0x3514 <__floatsisf+0x6c>
    34e8:	88 23       	and	r24, r24
    34ea:	11 f0       	breq	.+4      	; 0x34f0 <__floatsisf+0x48>
    34ec:	96 e9       	ldi	r25, 0x96	; 150
    34ee:	11 c0       	rjmp	.+34     	; 0x3512 <__floatsisf+0x6a>
    34f0:	77 23       	and	r23, r23
    34f2:	21 f0       	breq	.+8      	; 0x34fc <__floatsisf+0x54>
    34f4:	9e e8       	ldi	r25, 0x8E	; 142
    34f6:	87 2f       	mov	r24, r23
    34f8:	76 2f       	mov	r23, r22
    34fa:	05 c0       	rjmp	.+10     	; 0x3506 <__floatsisf+0x5e>
    34fc:	66 23       	and	r22, r22
    34fe:	71 f0       	breq	.+28     	; 0x351c <__floatsisf+0x74>
    3500:	96 e8       	ldi	r25, 0x86	; 134
    3502:	86 2f       	mov	r24, r22
    3504:	70 e0       	ldi	r23, 0x00	; 0
    3506:	60 e0       	ldi	r22, 0x00	; 0
    3508:	2a f0       	brmi	.+10     	; 0x3514 <__floatsisf+0x6c>
    350a:	9a 95       	dec	r25
    350c:	66 0f       	add	r22, r22
    350e:	77 1f       	adc	r23, r23
    3510:	88 1f       	adc	r24, r24
    3512:	da f7       	brpl	.-10     	; 0x350a <__floatsisf+0x62>
    3514:	88 0f       	add	r24, r24
    3516:	96 95       	lsr	r25
    3518:	87 95       	ror	r24
    351a:	97 f9       	bld	r25, 7
    351c:	08 95       	ret

0000351e <__fp_arccos>:
    351e:	df 93       	push	r29
    3520:	cf 93       	push	r28
    3522:	1f 93       	push	r17
    3524:	0f 93       	push	r16
    3526:	8b 01       	movw	r16, r22
    3528:	ec 01       	movw	r28, r24
    352a:	e2 e2       	ldi	r30, 0x22	; 34
    352c:	f2 e0       	ldi	r31, 0x02	; 2
    352e:	3f d0       	rcall	.+126    	; 0x35ae <__fp_powser>
    3530:	71 d0       	rcall	.+226    	; 0x3614 <__fp_round>
    3532:	98 01       	movw	r18, r16
    3534:	ae 01       	movw	r20, r28
    3536:	8b 01       	movw	r16, r22
    3538:	ec 01       	movw	r28, r24
    353a:	60 e0       	ldi	r22, 0x00	; 0
    353c:	70 e0       	ldi	r23, 0x00	; 0
    353e:	80 e8       	ldi	r24, 0x80	; 128
    3540:	9f e3       	ldi	r25, 0x3F	; 63
    3542:	ae de       	rcall	.-676    	; 0x32a0 <__subsf3>
    3544:	58 d1       	rcall	.+688    	; 0x37f6 <sqrt>
    3546:	98 01       	movw	r18, r16
    3548:	ae 01       	movw	r20, r28
    354a:	0f 91       	pop	r16
    354c:	1f 91       	pop	r17
    354e:	cf 91       	pop	r28
    3550:	df 91       	pop	r29
    3552:	aa c0       	rjmp	.+340    	; 0x36a8 <__mulsf3x>

00003554 <__fp_cmp>:
    3554:	99 0f       	add	r25, r25
    3556:	00 08       	sbc	r0, r0
    3558:	55 0f       	add	r21, r21
    355a:	aa 0b       	sbc	r26, r26
    355c:	e0 e8       	ldi	r30, 0x80	; 128
    355e:	fe ef       	ldi	r31, 0xFE	; 254
    3560:	16 16       	cp	r1, r22
    3562:	17 06       	cpc	r1, r23
    3564:	e8 07       	cpc	r30, r24
    3566:	f9 07       	cpc	r31, r25
    3568:	c0 f0       	brcs	.+48     	; 0x359a <__fp_cmp+0x46>
    356a:	12 16       	cp	r1, r18
    356c:	13 06       	cpc	r1, r19
    356e:	e4 07       	cpc	r30, r20
    3570:	f5 07       	cpc	r31, r21
    3572:	98 f0       	brcs	.+38     	; 0x359a <__fp_cmp+0x46>
    3574:	62 1b       	sub	r22, r18
    3576:	73 0b       	sbc	r23, r19
    3578:	84 0b       	sbc	r24, r20
    357a:	95 0b       	sbc	r25, r21
    357c:	39 f4       	brne	.+14     	; 0x358c <__fp_cmp+0x38>
    357e:	0a 26       	eor	r0, r26
    3580:	61 f0       	breq	.+24     	; 0x359a <__fp_cmp+0x46>
    3582:	23 2b       	or	r18, r19
    3584:	24 2b       	or	r18, r20
    3586:	25 2b       	or	r18, r21
    3588:	21 f4       	brne	.+8      	; 0x3592 <__fp_cmp+0x3e>
    358a:	08 95       	ret
    358c:	0a 26       	eor	r0, r26
    358e:	09 f4       	brne	.+2      	; 0x3592 <__fp_cmp+0x3e>
    3590:	a1 40       	sbci	r26, 0x01	; 1
    3592:	a6 95       	lsr	r26
    3594:	8f ef       	ldi	r24, 0xFF	; 255
    3596:	81 1d       	adc	r24, r1
    3598:	81 1d       	adc	r24, r1
    359a:	08 95       	ret

0000359c <__fp_inf>:
    359c:	97 f9       	bld	r25, 7
    359e:	9f 67       	ori	r25, 0x7F	; 127
    35a0:	80 e8       	ldi	r24, 0x80	; 128
    35a2:	70 e0       	ldi	r23, 0x00	; 0
    35a4:	60 e0       	ldi	r22, 0x00	; 0
    35a6:	08 95       	ret

000035a8 <__fp_nan>:
    35a8:	9f ef       	ldi	r25, 0xFF	; 255
    35aa:	80 ec       	ldi	r24, 0xC0	; 192
    35ac:	08 95       	ret

000035ae <__fp_powser>:
    35ae:	df 93       	push	r29
    35b0:	cf 93       	push	r28
    35b2:	1f 93       	push	r17
    35b4:	0f 93       	push	r16
    35b6:	ff 92       	push	r15
    35b8:	ef 92       	push	r14
    35ba:	df 92       	push	r13
    35bc:	7b 01       	movw	r14, r22
    35be:	8c 01       	movw	r16, r24
    35c0:	68 94       	set
    35c2:	05 c0       	rjmp	.+10     	; 0x35ce <__fp_powser+0x20>
    35c4:	da 2e       	mov	r13, r26
    35c6:	ef 01       	movw	r28, r30
    35c8:	6f d0       	rcall	.+222    	; 0x36a8 <__mulsf3x>
    35ca:	fe 01       	movw	r30, r28
    35cc:	e8 94       	clt
    35ce:	a5 91       	lpm	r26, Z+
    35d0:	25 91       	lpm	r18, Z+
    35d2:	35 91       	lpm	r19, Z+
    35d4:	45 91       	lpm	r20, Z+
    35d6:	55 91       	lpm	r21, Z+
    35d8:	ae f3       	brts	.-22     	; 0x35c4 <__fp_powser+0x16>
    35da:	ef 01       	movw	r28, r30
    35dc:	73 de       	rcall	.-794    	; 0x32c4 <__addsf3x>
    35de:	fe 01       	movw	r30, r28
    35e0:	97 01       	movw	r18, r14
    35e2:	a8 01       	movw	r20, r16
    35e4:	da 94       	dec	r13
    35e6:	79 f7       	brne	.-34     	; 0x35c6 <__fp_powser+0x18>
    35e8:	df 90       	pop	r13
    35ea:	ef 90       	pop	r14
    35ec:	ff 90       	pop	r15
    35ee:	0f 91       	pop	r16
    35f0:	1f 91       	pop	r17
    35f2:	cf 91       	pop	r28
    35f4:	df 91       	pop	r29
    35f6:	08 95       	ret

000035f8 <__fp_pscA>:
    35f8:	00 24       	eor	r0, r0
    35fa:	0a 94       	dec	r0
    35fc:	16 16       	cp	r1, r22
    35fe:	17 06       	cpc	r1, r23
    3600:	18 06       	cpc	r1, r24
    3602:	09 06       	cpc	r0, r25
    3604:	08 95       	ret

00003606 <__fp_pscB>:
    3606:	00 24       	eor	r0, r0
    3608:	0a 94       	dec	r0
    360a:	12 16       	cp	r1, r18
    360c:	13 06       	cpc	r1, r19
    360e:	14 06       	cpc	r1, r20
    3610:	05 06       	cpc	r0, r21
    3612:	08 95       	ret

00003614 <__fp_round>:
    3614:	09 2e       	mov	r0, r25
    3616:	03 94       	inc	r0
    3618:	00 0c       	add	r0, r0
    361a:	11 f4       	brne	.+4      	; 0x3620 <__fp_round+0xc>
    361c:	88 23       	and	r24, r24
    361e:	52 f0       	brmi	.+20     	; 0x3634 <__fp_round+0x20>
    3620:	bb 0f       	add	r27, r27
    3622:	40 f4       	brcc	.+16     	; 0x3634 <__fp_round+0x20>
    3624:	bf 2b       	or	r27, r31
    3626:	11 f4       	brne	.+4      	; 0x362c <__fp_round+0x18>
    3628:	60 ff       	sbrs	r22, 0
    362a:	04 c0       	rjmp	.+8      	; 0x3634 <__fp_round+0x20>
    362c:	6f 5f       	subi	r22, 0xFF	; 255
    362e:	7f 4f       	sbci	r23, 0xFF	; 255
    3630:	8f 4f       	sbci	r24, 0xFF	; 255
    3632:	9f 4f       	sbci	r25, 0xFF	; 255
    3634:	08 95       	ret

00003636 <__fp_split3>:
    3636:	57 fd       	sbrc	r21, 7
    3638:	90 58       	subi	r25, 0x80	; 128
    363a:	44 0f       	add	r20, r20
    363c:	55 1f       	adc	r21, r21
    363e:	59 f0       	breq	.+22     	; 0x3656 <__fp_splitA+0x10>
    3640:	5f 3f       	cpi	r21, 0xFF	; 255
    3642:	71 f0       	breq	.+28     	; 0x3660 <__fp_splitA+0x1a>
    3644:	47 95       	ror	r20

00003646 <__fp_splitA>:
    3646:	88 0f       	add	r24, r24
    3648:	97 fb       	bst	r25, 7
    364a:	99 1f       	adc	r25, r25
    364c:	61 f0       	breq	.+24     	; 0x3666 <__fp_splitA+0x20>
    364e:	9f 3f       	cpi	r25, 0xFF	; 255
    3650:	79 f0       	breq	.+30     	; 0x3670 <__fp_splitA+0x2a>
    3652:	87 95       	ror	r24
    3654:	08 95       	ret
    3656:	12 16       	cp	r1, r18
    3658:	13 06       	cpc	r1, r19
    365a:	14 06       	cpc	r1, r20
    365c:	55 1f       	adc	r21, r21
    365e:	f2 cf       	rjmp	.-28     	; 0x3644 <__fp_split3+0xe>
    3660:	46 95       	lsr	r20
    3662:	f1 df       	rcall	.-30     	; 0x3646 <__fp_splitA>
    3664:	08 c0       	rjmp	.+16     	; 0x3676 <__fp_splitA+0x30>
    3666:	16 16       	cp	r1, r22
    3668:	17 06       	cpc	r1, r23
    366a:	18 06       	cpc	r1, r24
    366c:	99 1f       	adc	r25, r25
    366e:	f1 cf       	rjmp	.-30     	; 0x3652 <__fp_splitA+0xc>
    3670:	86 95       	lsr	r24
    3672:	71 05       	cpc	r23, r1
    3674:	61 05       	cpc	r22, r1
    3676:	08 94       	sec
    3678:	08 95       	ret

0000367a <__fp_zero>:
    367a:	e8 94       	clt

0000367c <__fp_szero>:
    367c:	bb 27       	eor	r27, r27
    367e:	66 27       	eor	r22, r22
    3680:	77 27       	eor	r23, r23
    3682:	cb 01       	movw	r24, r22
    3684:	97 f9       	bld	r25, 7
    3686:	08 95       	ret

00003688 <__gesf2>:
    3688:	65 df       	rcall	.-310    	; 0x3554 <__fp_cmp>
    368a:	08 f4       	brcc	.+2      	; 0x368e <__gesf2+0x6>
    368c:	8f ef       	ldi	r24, 0xFF	; 255
    368e:	08 95       	ret

00003690 <__mulsf3>:
    3690:	0b d0       	rcall	.+22     	; 0x36a8 <__mulsf3x>
    3692:	c0 cf       	rjmp	.-128    	; 0x3614 <__fp_round>
    3694:	b1 df       	rcall	.-158    	; 0x35f8 <__fp_pscA>
    3696:	28 f0       	brcs	.+10     	; 0x36a2 <__mulsf3+0x12>
    3698:	b6 df       	rcall	.-148    	; 0x3606 <__fp_pscB>
    369a:	18 f0       	brcs	.+6      	; 0x36a2 <__mulsf3+0x12>
    369c:	95 23       	and	r25, r21
    369e:	09 f0       	breq	.+2      	; 0x36a2 <__mulsf3+0x12>
    36a0:	7d cf       	rjmp	.-262    	; 0x359c <__fp_inf>
    36a2:	82 cf       	rjmp	.-252    	; 0x35a8 <__fp_nan>
    36a4:	11 24       	eor	r1, r1
    36a6:	ea cf       	rjmp	.-44     	; 0x367c <__fp_szero>

000036a8 <__mulsf3x>:
    36a8:	c6 df       	rcall	.-116    	; 0x3636 <__fp_split3>
    36aa:	a0 f3       	brcs	.-24     	; 0x3694 <__mulsf3+0x4>

000036ac <__mulsf3_pse>:
    36ac:	95 9f       	mul	r25, r21
    36ae:	d1 f3       	breq	.-12     	; 0x36a4 <__mulsf3+0x14>
    36b0:	95 0f       	add	r25, r21
    36b2:	50 e0       	ldi	r21, 0x00	; 0
    36b4:	55 1f       	adc	r21, r21
    36b6:	62 9f       	mul	r22, r18
    36b8:	f0 01       	movw	r30, r0
    36ba:	72 9f       	mul	r23, r18
    36bc:	bb 27       	eor	r27, r27
    36be:	f0 0d       	add	r31, r0
    36c0:	b1 1d       	adc	r27, r1
    36c2:	63 9f       	mul	r22, r19
    36c4:	aa 27       	eor	r26, r26
    36c6:	f0 0d       	add	r31, r0
    36c8:	b1 1d       	adc	r27, r1
    36ca:	aa 1f       	adc	r26, r26
    36cc:	64 9f       	mul	r22, r20
    36ce:	66 27       	eor	r22, r22
    36d0:	b0 0d       	add	r27, r0
    36d2:	a1 1d       	adc	r26, r1
    36d4:	66 1f       	adc	r22, r22
    36d6:	82 9f       	mul	r24, r18
    36d8:	22 27       	eor	r18, r18
    36da:	b0 0d       	add	r27, r0
    36dc:	a1 1d       	adc	r26, r1
    36de:	62 1f       	adc	r22, r18
    36e0:	73 9f       	mul	r23, r19
    36e2:	b0 0d       	add	r27, r0
    36e4:	a1 1d       	adc	r26, r1
    36e6:	62 1f       	adc	r22, r18
    36e8:	83 9f       	mul	r24, r19
    36ea:	a0 0d       	add	r26, r0
    36ec:	61 1d       	adc	r22, r1
    36ee:	22 1f       	adc	r18, r18
    36f0:	74 9f       	mul	r23, r20
    36f2:	33 27       	eor	r19, r19
    36f4:	a0 0d       	add	r26, r0
    36f6:	61 1d       	adc	r22, r1
    36f8:	23 1f       	adc	r18, r19
    36fa:	84 9f       	mul	r24, r20
    36fc:	60 0d       	add	r22, r0
    36fe:	21 1d       	adc	r18, r1
    3700:	82 2f       	mov	r24, r18
    3702:	76 2f       	mov	r23, r22
    3704:	6a 2f       	mov	r22, r26
    3706:	11 24       	eor	r1, r1
    3708:	9f 57       	subi	r25, 0x7F	; 127
    370a:	50 40       	sbci	r21, 0x00	; 0
    370c:	8a f0       	brmi	.+34     	; 0x3730 <__mulsf3_pse+0x84>
    370e:	e1 f0       	breq	.+56     	; 0x3748 <__mulsf3_pse+0x9c>
    3710:	88 23       	and	r24, r24
    3712:	4a f0       	brmi	.+18     	; 0x3726 <__mulsf3_pse+0x7a>
    3714:	ee 0f       	add	r30, r30
    3716:	ff 1f       	adc	r31, r31
    3718:	bb 1f       	adc	r27, r27
    371a:	66 1f       	adc	r22, r22
    371c:	77 1f       	adc	r23, r23
    371e:	88 1f       	adc	r24, r24
    3720:	91 50       	subi	r25, 0x01	; 1
    3722:	50 40       	sbci	r21, 0x00	; 0
    3724:	a9 f7       	brne	.-22     	; 0x3710 <__mulsf3_pse+0x64>
    3726:	9e 3f       	cpi	r25, 0xFE	; 254
    3728:	51 05       	cpc	r21, r1
    372a:	70 f0       	brcs	.+28     	; 0x3748 <__mulsf3_pse+0x9c>
    372c:	37 cf       	rjmp	.-402    	; 0x359c <__fp_inf>
    372e:	a6 cf       	rjmp	.-180    	; 0x367c <__fp_szero>
    3730:	5f 3f       	cpi	r21, 0xFF	; 255
    3732:	ec f3       	brlt	.-6      	; 0x372e <__mulsf3_pse+0x82>
    3734:	98 3e       	cpi	r25, 0xE8	; 232
    3736:	dc f3       	brlt	.-10     	; 0x372e <__mulsf3_pse+0x82>
    3738:	86 95       	lsr	r24
    373a:	77 95       	ror	r23
    373c:	67 95       	ror	r22
    373e:	b7 95       	ror	r27
    3740:	f7 95       	ror	r31
    3742:	e7 95       	ror	r30
    3744:	9f 5f       	subi	r25, 0xFF	; 255
    3746:	c1 f7       	brne	.-16     	; 0x3738 <__mulsf3_pse+0x8c>
    3748:	fe 2b       	or	r31, r30
    374a:	88 0f       	add	r24, r24
    374c:	91 1d       	adc	r25, r1
    374e:	96 95       	lsr	r25
    3750:	87 95       	ror	r24
    3752:	97 f9       	bld	r25, 7
    3754:	08 95       	ret

00003756 <pow>:
    3756:	fa 01       	movw	r30, r20
    3758:	ee 0f       	add	r30, r30
    375a:	ff 1f       	adc	r31, r31
    375c:	30 96       	adiw	r30, 0x00	; 0
    375e:	21 05       	cpc	r18, r1
    3760:	31 05       	cpc	r19, r1
    3762:	99 f1       	breq	.+102    	; 0x37ca <pow+0x74>
    3764:	61 15       	cp	r22, r1
    3766:	71 05       	cpc	r23, r1
    3768:	61 f4       	brne	.+24     	; 0x3782 <pow+0x2c>
    376a:	80 38       	cpi	r24, 0x80	; 128
    376c:	bf e3       	ldi	r27, 0x3F	; 63
    376e:	9b 07       	cpc	r25, r27
    3770:	49 f1       	breq	.+82     	; 0x37c4 <pow+0x6e>
    3772:	68 94       	set
    3774:	90 38       	cpi	r25, 0x80	; 128
    3776:	81 05       	cpc	r24, r1
    3778:	61 f0       	breq	.+24     	; 0x3792 <pow+0x3c>
    377a:	80 38       	cpi	r24, 0x80	; 128
    377c:	bf ef       	ldi	r27, 0xFF	; 255
    377e:	9b 07       	cpc	r25, r27
    3780:	41 f0       	breq	.+16     	; 0x3792 <pow+0x3c>
    3782:	99 23       	and	r25, r25
    3784:	42 f5       	brpl	.+80     	; 0x37d6 <pow+0x80>
    3786:	ff 3f       	cpi	r31, 0xFF	; 255
    3788:	e1 05       	cpc	r30, r1
    378a:	31 05       	cpc	r19, r1
    378c:	21 05       	cpc	r18, r1
    378e:	11 f1       	breq	.+68     	; 0x37d4 <pow+0x7e>
    3790:	e8 94       	clt
    3792:	08 94       	sec
    3794:	e7 95       	ror	r30
    3796:	d9 01       	movw	r26, r18
    3798:	aa 23       	and	r26, r26
    379a:	29 f4       	brne	.+10     	; 0x37a6 <pow+0x50>
    379c:	ab 2f       	mov	r26, r27
    379e:	be 2f       	mov	r27, r30
    37a0:	f8 5f       	subi	r31, 0xF8	; 248
    37a2:	d0 f3       	brcs	.-12     	; 0x3798 <pow+0x42>
    37a4:	10 c0       	rjmp	.+32     	; 0x37c6 <pow+0x70>
    37a6:	ff 5f       	subi	r31, 0xFF	; 255
    37a8:	70 f4       	brcc	.+28     	; 0x37c6 <pow+0x70>
    37aa:	a6 95       	lsr	r26
    37ac:	e0 f7       	brcc	.-8      	; 0x37a6 <pow+0x50>
    37ae:	f7 39       	cpi	r31, 0x97	; 151
    37b0:	50 f0       	brcs	.+20     	; 0x37c6 <pow+0x70>
    37b2:	19 f0       	breq	.+6      	; 0x37ba <pow+0x64>
    37b4:	ff 3a       	cpi	r31, 0xAF	; 175
    37b6:	38 f4       	brcc	.+14     	; 0x37c6 <pow+0x70>
    37b8:	9f 77       	andi	r25, 0x7F	; 127
    37ba:	9f 93       	push	r25
    37bc:	0c d0       	rcall	.+24     	; 0x37d6 <pow+0x80>
    37be:	0f 90       	pop	r0
    37c0:	07 fc       	sbrc	r0, 7
    37c2:	90 58       	subi	r25, 0x80	; 128
    37c4:	08 95       	ret
    37c6:	3e f0       	brts	.+14     	; 0x37d6 <pow+0x80>
    37c8:	ef ce       	rjmp	.-546    	; 0x35a8 <__fp_nan>
    37ca:	60 e0       	ldi	r22, 0x00	; 0
    37cc:	70 e0       	ldi	r23, 0x00	; 0
    37ce:	80 e8       	ldi	r24, 0x80	; 128
    37d0:	9f e3       	ldi	r25, 0x3F	; 63
    37d2:	08 95       	ret
    37d4:	4f e7       	ldi	r20, 0x7F	; 127
    37d6:	9f 77       	andi	r25, 0x7F	; 127
    37d8:	5f 93       	push	r21
    37da:	4f 93       	push	r20
    37dc:	3f 93       	push	r19
    37de:	2f 93       	push	r18
    37e0:	d0 d0       	rcall	.+416    	; 0x3982 <log>
    37e2:	2f 91       	pop	r18
    37e4:	3f 91       	pop	r19
    37e6:	4f 91       	pop	r20
    37e8:	5f 91       	pop	r21
    37ea:	52 df       	rcall	.-348    	; 0x3690 <__mulsf3>
    37ec:	47 c0       	rjmp	.+142    	; 0x387c <exp>
    37ee:	11 f4       	brne	.+4      	; 0x37f4 <pow+0x9e>
    37f0:	0e f4       	brtc	.+2      	; 0x37f4 <pow+0x9e>
    37f2:	da ce       	rjmp	.-588    	; 0x35a8 <__fp_nan>
    37f4:	6f c0       	rjmp	.+222    	; 0x38d4 <__fp_mpack>

000037f6 <sqrt>:
    37f6:	27 df       	rcall	.-434    	; 0x3646 <__fp_splitA>
    37f8:	d0 f3       	brcs	.-12     	; 0x37ee <pow+0x98>
    37fa:	99 23       	and	r25, r25
    37fc:	d9 f3       	breq	.-10     	; 0x37f4 <pow+0x9e>
    37fe:	ce f3       	brts	.-14     	; 0x37f2 <pow+0x9c>
    3800:	9f 57       	subi	r25, 0x7F	; 127
    3802:	55 0b       	sbc	r21, r21
    3804:	87 ff       	sbrs	r24, 7
    3806:	74 d0       	rcall	.+232    	; 0x38f0 <__fp_norm2>
    3808:	00 24       	eor	r0, r0
    380a:	a0 e6       	ldi	r26, 0x60	; 96
    380c:	40 ea       	ldi	r20, 0xA0	; 160
    380e:	90 01       	movw	r18, r0
    3810:	80 58       	subi	r24, 0x80	; 128
    3812:	56 95       	lsr	r21
    3814:	97 95       	ror	r25
    3816:	28 f4       	brcc	.+10     	; 0x3822 <sqrt+0x2c>
    3818:	80 5c       	subi	r24, 0xC0	; 192
    381a:	66 0f       	add	r22, r22
    381c:	77 1f       	adc	r23, r23
    381e:	88 1f       	adc	r24, r24
    3820:	20 f0       	brcs	.+8      	; 0x382a <sqrt+0x34>
    3822:	26 17       	cp	r18, r22
    3824:	37 07       	cpc	r19, r23
    3826:	48 07       	cpc	r20, r24
    3828:	30 f4       	brcc	.+12     	; 0x3836 <sqrt+0x40>
    382a:	62 1b       	sub	r22, r18
    382c:	73 0b       	sbc	r23, r19
    382e:	84 0b       	sbc	r24, r20
    3830:	20 29       	or	r18, r0
    3832:	31 29       	or	r19, r1
    3834:	4a 2b       	or	r20, r26
    3836:	a6 95       	lsr	r26
    3838:	17 94       	ror	r1
    383a:	07 94       	ror	r0
    383c:	20 25       	eor	r18, r0
    383e:	31 25       	eor	r19, r1
    3840:	4a 27       	eor	r20, r26
    3842:	58 f7       	brcc	.-42     	; 0x381a <sqrt+0x24>
    3844:	66 0f       	add	r22, r22
    3846:	77 1f       	adc	r23, r23
    3848:	88 1f       	adc	r24, r24
    384a:	20 f0       	brcs	.+8      	; 0x3854 <sqrt+0x5e>
    384c:	26 17       	cp	r18, r22
    384e:	37 07       	cpc	r19, r23
    3850:	48 07       	cpc	r20, r24
    3852:	30 f4       	brcc	.+12     	; 0x3860 <sqrt+0x6a>
    3854:	62 0b       	sbc	r22, r18
    3856:	73 0b       	sbc	r23, r19
    3858:	84 0b       	sbc	r24, r20
    385a:	20 0d       	add	r18, r0
    385c:	31 1d       	adc	r19, r1
    385e:	41 1d       	adc	r20, r1
    3860:	a0 95       	com	r26
    3862:	81 f7       	brne	.-32     	; 0x3844 <sqrt+0x4e>
    3864:	b9 01       	movw	r22, r18
    3866:	84 2f       	mov	r24, r20
    3868:	91 58       	subi	r25, 0x81	; 129
    386a:	88 0f       	add	r24, r24
    386c:	96 95       	lsr	r25
    386e:	87 95       	ror	r24
    3870:	08 95       	ret
    3872:	19 f4       	brne	.+6      	; 0x387a <sqrt+0x84>
    3874:	0e f0       	brts	.+2      	; 0x3878 <sqrt+0x82>
    3876:	92 ce       	rjmp	.-732    	; 0x359c <__fp_inf>
    3878:	00 cf       	rjmp	.-512    	; 0x367a <__fp_zero>
    387a:	96 ce       	rjmp	.-724    	; 0x35a8 <__fp_nan>

0000387c <exp>:
    387c:	e4 de       	rcall	.-568    	; 0x3646 <__fp_splitA>
    387e:	c8 f3       	brcs	.-14     	; 0x3872 <sqrt+0x7c>
    3880:	96 38       	cpi	r25, 0x86	; 134
    3882:	c0 f7       	brcc	.-16     	; 0x3874 <sqrt+0x7e>
    3884:	07 f8       	bld	r0, 7
    3886:	0f 92       	push	r0
    3888:	e8 94       	clt
    388a:	2b e3       	ldi	r18, 0x3B	; 59
    388c:	3a ea       	ldi	r19, 0xAA	; 170
    388e:	48 eb       	ldi	r20, 0xB8	; 184
    3890:	5f e7       	ldi	r21, 0x7F	; 127
    3892:	0c df       	rcall	.-488    	; 0x36ac <__mulsf3_pse>
    3894:	0f 92       	push	r0
    3896:	0f 92       	push	r0
    3898:	0f 92       	push	r0
    389a:	4d b7       	in	r20, 0x3d	; 61
    389c:	5e b7       	in	r21, 0x3e	; 62
    389e:	0f 92       	push	r0
    38a0:	b0 d0       	rcall	.+352    	; 0x3a02 <modf>
    38a2:	ea e4       	ldi	r30, 0x4A	; 74
    38a4:	f2 e0       	ldi	r31, 0x02	; 2
    38a6:	83 de       	rcall	.-762    	; 0x35ae <__fp_powser>
    38a8:	4f 91       	pop	r20
    38aa:	5f 91       	pop	r21
    38ac:	ef 91       	pop	r30
    38ae:	ff 91       	pop	r31
    38b0:	e5 95       	asr	r30
    38b2:	ee 1f       	adc	r30, r30
    38b4:	ff 1f       	adc	r31, r31
    38b6:	49 f0       	breq	.+18     	; 0x38ca <exp+0x4e>
    38b8:	fe 57       	subi	r31, 0x7E	; 126
    38ba:	e0 68       	ori	r30, 0x80	; 128
    38bc:	44 27       	eor	r20, r20
    38be:	ee 0f       	add	r30, r30
    38c0:	44 1f       	adc	r20, r20
    38c2:	fa 95       	dec	r31
    38c4:	e1 f7       	brne	.-8      	; 0x38be <exp+0x42>
    38c6:	41 95       	neg	r20
    38c8:	55 0b       	sbc	r21, r21
    38ca:	22 d0       	rcall	.+68     	; 0x3910 <ldexp>
    38cc:	0f 90       	pop	r0
    38ce:	07 fe       	sbrs	r0, 7
    38d0:	16 c0       	rjmp	.+44     	; 0x38fe <inverse>
    38d2:	08 95       	ret

000038d4 <__fp_mpack>:
    38d4:	9f 3f       	cpi	r25, 0xFF	; 255
    38d6:	31 f0       	breq	.+12     	; 0x38e4 <__fp_mpack_finite+0xc>

000038d8 <__fp_mpack_finite>:
    38d8:	91 50       	subi	r25, 0x01	; 1
    38da:	20 f4       	brcc	.+8      	; 0x38e4 <__fp_mpack_finite+0xc>
    38dc:	87 95       	ror	r24
    38de:	77 95       	ror	r23
    38e0:	67 95       	ror	r22
    38e2:	b7 95       	ror	r27
    38e4:	88 0f       	add	r24, r24
    38e6:	91 1d       	adc	r25, r1
    38e8:	96 95       	lsr	r25
    38ea:	87 95       	ror	r24
    38ec:	97 f9       	bld	r25, 7
    38ee:	08 95       	ret

000038f0 <__fp_norm2>:
    38f0:	91 50       	subi	r25, 0x01	; 1
    38f2:	50 40       	sbci	r21, 0x00	; 0
    38f4:	66 0f       	add	r22, r22
    38f6:	77 1f       	adc	r23, r23
    38f8:	88 1f       	adc	r24, r24
    38fa:	d2 f7       	brpl	.-12     	; 0x38f0 <__fp_norm2>
    38fc:	08 95       	ret

000038fe <inverse>:
    38fe:	9b 01       	movw	r18, r22
    3900:	ac 01       	movw	r20, r24
    3902:	60 e0       	ldi	r22, 0x00	; 0
    3904:	70 e0       	ldi	r23, 0x00	; 0
    3906:	80 e8       	ldi	r24, 0x80	; 128
    3908:	9f e3       	ldi	r25, 0x3F	; 63
    390a:	33 cd       	rjmp	.-1434   	; 0x3372 <__divsf3>
    390c:	47 ce       	rjmp	.-882    	; 0x359c <__fp_inf>
    390e:	e2 cf       	rjmp	.-60     	; 0x38d4 <__fp_mpack>

00003910 <ldexp>:
    3910:	9a de       	rcall	.-716    	; 0x3646 <__fp_splitA>
    3912:	e8 f3       	brcs	.-6      	; 0x390e <inverse+0x10>
    3914:	99 23       	and	r25, r25
    3916:	d9 f3       	breq	.-10     	; 0x390e <inverse+0x10>
    3918:	94 0f       	add	r25, r20
    391a:	51 1d       	adc	r21, r1
    391c:	bb f3       	brvs	.-18     	; 0x390c <inverse+0xe>
    391e:	91 50       	subi	r25, 0x01	; 1
    3920:	50 40       	sbci	r21, 0x00	; 0
    3922:	94 f0       	brlt	.+36     	; 0x3948 <ldexp+0x38>
    3924:	59 f0       	breq	.+22     	; 0x393c <ldexp+0x2c>
    3926:	88 23       	and	r24, r24
    3928:	32 f0       	brmi	.+12     	; 0x3936 <ldexp+0x26>
    392a:	66 0f       	add	r22, r22
    392c:	77 1f       	adc	r23, r23
    392e:	88 1f       	adc	r24, r24
    3930:	91 50       	subi	r25, 0x01	; 1
    3932:	50 40       	sbci	r21, 0x00	; 0
    3934:	c1 f7       	brne	.-16     	; 0x3926 <ldexp+0x16>
    3936:	9e 3f       	cpi	r25, 0xFE	; 254
    3938:	51 05       	cpc	r21, r1
    393a:	44 f7       	brge	.-48     	; 0x390c <inverse+0xe>
    393c:	88 0f       	add	r24, r24
    393e:	91 1d       	adc	r25, r1
    3940:	96 95       	lsr	r25
    3942:	87 95       	ror	r24
    3944:	97 f9       	bld	r25, 7
    3946:	08 95       	ret
    3948:	5f 3f       	cpi	r21, 0xFF	; 255
    394a:	ac f0       	brlt	.+42     	; 0x3976 <ldexp+0x66>
    394c:	98 3e       	cpi	r25, 0xE8	; 232
    394e:	9c f0       	brlt	.+38     	; 0x3976 <ldexp+0x66>
    3950:	bb 27       	eor	r27, r27
    3952:	86 95       	lsr	r24
    3954:	77 95       	ror	r23
    3956:	67 95       	ror	r22
    3958:	b7 95       	ror	r27
    395a:	08 f4       	brcc	.+2      	; 0x395e <ldexp+0x4e>
    395c:	b1 60       	ori	r27, 0x01	; 1
    395e:	93 95       	inc	r25
    3960:	c1 f7       	brne	.-16     	; 0x3952 <ldexp+0x42>
    3962:	bb 0f       	add	r27, r27
    3964:	58 f7       	brcc	.-42     	; 0x393c <ldexp+0x2c>
    3966:	11 f4       	brne	.+4      	; 0x396c <ldexp+0x5c>
    3968:	60 ff       	sbrs	r22, 0
    396a:	e8 cf       	rjmp	.-48     	; 0x393c <ldexp+0x2c>
    396c:	6f 5f       	subi	r22, 0xFF	; 255
    396e:	7f 4f       	sbci	r23, 0xFF	; 255
    3970:	8f 4f       	sbci	r24, 0xFF	; 255
    3972:	9f 4f       	sbci	r25, 0xFF	; 255
    3974:	e3 cf       	rjmp	.-58     	; 0x393c <ldexp+0x2c>
    3976:	82 ce       	rjmp	.-764    	; 0x367c <__fp_szero>
    3978:	0e f0       	brts	.+2      	; 0x397c <ldexp+0x6c>
    397a:	ac cf       	rjmp	.-168    	; 0x38d4 <__fp_mpack>
    397c:	15 ce       	rjmp	.-982    	; 0x35a8 <__fp_nan>
    397e:	68 94       	set
    3980:	0d ce       	rjmp	.-998    	; 0x359c <__fp_inf>

00003982 <log>:
    3982:	61 de       	rcall	.-830    	; 0x3646 <__fp_splitA>
    3984:	c8 f3       	brcs	.-14     	; 0x3978 <ldexp+0x68>
    3986:	99 23       	and	r25, r25
    3988:	d1 f3       	breq	.-12     	; 0x397e <ldexp+0x6e>
    398a:	c6 f3       	brts	.-16     	; 0x397c <ldexp+0x6c>
    398c:	df 93       	push	r29
    398e:	cf 93       	push	r28
    3990:	1f 93       	push	r17
    3992:	0f 93       	push	r16
    3994:	ff 92       	push	r15
    3996:	c9 2f       	mov	r28, r25
    3998:	dd 27       	eor	r29, r29
    399a:	88 23       	and	r24, r24
    399c:	2a f0       	brmi	.+10     	; 0x39a8 <log+0x26>
    399e:	21 97       	sbiw	r28, 0x01	; 1
    39a0:	66 0f       	add	r22, r22
    39a2:	77 1f       	adc	r23, r23
    39a4:	88 1f       	adc	r24, r24
    39a6:	da f7       	brpl	.-10     	; 0x399e <log+0x1c>
    39a8:	20 e0       	ldi	r18, 0x00	; 0
    39aa:	30 e0       	ldi	r19, 0x00	; 0
    39ac:	40 e8       	ldi	r20, 0x80	; 128
    39ae:	5f eb       	ldi	r21, 0xBF	; 191
    39b0:	9f e3       	ldi	r25, 0x3F	; 63
    39b2:	88 39       	cpi	r24, 0x98	; 152
    39b4:	20 f0       	brcs	.+8      	; 0x39be <log+0x3c>
    39b6:	80 3e       	cpi	r24, 0xE0	; 224
    39b8:	30 f0       	brcs	.+12     	; 0x39c6 <log+0x44>
    39ba:	21 96       	adiw	r28, 0x01	; 1
    39bc:	8f 77       	andi	r24, 0x7F	; 127
    39be:	71 dc       	rcall	.-1822   	; 0x32a2 <__addsf3>
    39c0:	e2 e7       	ldi	r30, 0x72	; 114
    39c2:	f2 e0       	ldi	r31, 0x02	; 2
    39c4:	03 c0       	rjmp	.+6      	; 0x39cc <log+0x4a>
    39c6:	6d dc       	rcall	.-1830   	; 0x32a2 <__addsf3>
    39c8:	ef e9       	ldi	r30, 0x9F	; 159
    39ca:	f2 e0       	ldi	r31, 0x02	; 2
    39cc:	f0 dd       	rcall	.-1056   	; 0x35ae <__fp_powser>
    39ce:	8b 01       	movw	r16, r22
    39d0:	be 01       	movw	r22, r28
    39d2:	ec 01       	movw	r28, r24
    39d4:	fb 2e       	mov	r15, r27
    39d6:	6f 57       	subi	r22, 0x7F	; 127
    39d8:	71 09       	sbc	r23, r1
    39da:	75 95       	asr	r23
    39dc:	77 1f       	adc	r23, r23
    39de:	88 0b       	sbc	r24, r24
    39e0:	99 0b       	sbc	r25, r25
    39e2:	62 dd       	rcall	.-1340   	; 0x34a8 <__floatsisf>
    39e4:	28 e1       	ldi	r18, 0x18	; 24
    39e6:	32 e7       	ldi	r19, 0x72	; 114
    39e8:	41 e3       	ldi	r20, 0x31	; 49
    39ea:	5f e3       	ldi	r21, 0x3F	; 63
    39ec:	5d de       	rcall	.-838    	; 0x36a8 <__mulsf3x>
    39ee:	af 2d       	mov	r26, r15
    39f0:	98 01       	movw	r18, r16
    39f2:	ae 01       	movw	r20, r28
    39f4:	ff 90       	pop	r15
    39f6:	0f 91       	pop	r16
    39f8:	1f 91       	pop	r17
    39fa:	cf 91       	pop	r28
    39fc:	df 91       	pop	r29
    39fe:	62 dc       	rcall	.-1852   	; 0x32c4 <__addsf3x>
    3a00:	09 ce       	rjmp	.-1006   	; 0x3614 <__fp_round>

00003a02 <modf>:
    3a02:	fa 01       	movw	r30, r20
    3a04:	dc 01       	movw	r26, r24
    3a06:	aa 0f       	add	r26, r26
    3a08:	bb 1f       	adc	r27, r27
    3a0a:	9b 01       	movw	r18, r22
    3a0c:	ac 01       	movw	r20, r24
    3a0e:	bf 57       	subi	r27, 0x7F	; 127
    3a10:	28 f4       	brcc	.+10     	; 0x3a1c <modf+0x1a>
    3a12:	22 27       	eor	r18, r18
    3a14:	33 27       	eor	r19, r19
    3a16:	44 27       	eor	r20, r20
    3a18:	50 78       	andi	r21, 0x80	; 128
    3a1a:	1f c0       	rjmp	.+62     	; 0x3a5a <modf+0x58>
    3a1c:	b7 51       	subi	r27, 0x17	; 23
    3a1e:	88 f4       	brcc	.+34     	; 0x3a42 <modf+0x40>
    3a20:	ab 2f       	mov	r26, r27
    3a22:	00 24       	eor	r0, r0
    3a24:	46 95       	lsr	r20
    3a26:	37 95       	ror	r19
    3a28:	27 95       	ror	r18
    3a2a:	01 1c       	adc	r0, r1
    3a2c:	a3 95       	inc	r26
    3a2e:	d2 f3       	brmi	.-12     	; 0x3a24 <modf+0x22>
    3a30:	00 20       	and	r0, r0
    3a32:	69 f0       	breq	.+26     	; 0x3a4e <modf+0x4c>
    3a34:	22 0f       	add	r18, r18
    3a36:	33 1f       	adc	r19, r19
    3a38:	44 1f       	adc	r20, r20
    3a3a:	b3 95       	inc	r27
    3a3c:	da f3       	brmi	.-10     	; 0x3a34 <modf+0x32>
    3a3e:	0d d0       	rcall	.+26     	; 0x3a5a <modf+0x58>
    3a40:	2f cc       	rjmp	.-1954   	; 0x32a0 <__subsf3>
    3a42:	61 30       	cpi	r22, 0x01	; 1
    3a44:	71 05       	cpc	r23, r1
    3a46:	a0 e8       	ldi	r26, 0x80	; 128
    3a48:	8a 07       	cpc	r24, r26
    3a4a:	b9 46       	sbci	r27, 0x69	; 105
    3a4c:	30 f4       	brcc	.+12     	; 0x3a5a <modf+0x58>
    3a4e:	9b 01       	movw	r18, r22
    3a50:	ac 01       	movw	r20, r24
    3a52:	66 27       	eor	r22, r22
    3a54:	77 27       	eor	r23, r23
    3a56:	88 27       	eor	r24, r24
    3a58:	90 78       	andi	r25, 0x80	; 128
    3a5a:	30 96       	adiw	r30, 0x00	; 0
    3a5c:	21 f0       	breq	.+8      	; 0x3a66 <modf+0x64>
    3a5e:	20 83       	st	Z, r18
    3a60:	31 83       	std	Z+1, r19	; 0x01
    3a62:	42 83       	std	Z+2, r20	; 0x02
    3a64:	53 83       	std	Z+3, r21	; 0x03
    3a66:	08 95       	ret

00003a68 <__udivmodsi4>:
    3a68:	a1 e2       	ldi	r26, 0x21	; 33
    3a6a:	1a 2e       	mov	r1, r26
    3a6c:	aa 1b       	sub	r26, r26
    3a6e:	bb 1b       	sub	r27, r27
    3a70:	fd 01       	movw	r30, r26
    3a72:	0d c0       	rjmp	.+26     	; 0x3a8e <__udivmodsi4_ep>

00003a74 <__udivmodsi4_loop>:
    3a74:	aa 1f       	adc	r26, r26
    3a76:	bb 1f       	adc	r27, r27
    3a78:	ee 1f       	adc	r30, r30
    3a7a:	ff 1f       	adc	r31, r31
    3a7c:	a2 17       	cp	r26, r18
    3a7e:	b3 07       	cpc	r27, r19
    3a80:	e4 07       	cpc	r30, r20
    3a82:	f5 07       	cpc	r31, r21
    3a84:	20 f0       	brcs	.+8      	; 0x3a8e <__udivmodsi4_ep>
    3a86:	a2 1b       	sub	r26, r18
    3a88:	b3 0b       	sbc	r27, r19
    3a8a:	e4 0b       	sbc	r30, r20
    3a8c:	f5 0b       	sbc	r31, r21

00003a8e <__udivmodsi4_ep>:
    3a8e:	66 1f       	adc	r22, r22
    3a90:	77 1f       	adc	r23, r23
    3a92:	88 1f       	adc	r24, r24
    3a94:	99 1f       	adc	r25, r25
    3a96:	1a 94       	dec	r1
    3a98:	69 f7       	brne	.-38     	; 0x3a74 <__udivmodsi4_loop>
    3a9a:	60 95       	com	r22
    3a9c:	70 95       	com	r23
    3a9e:	80 95       	com	r24
    3aa0:	90 95       	com	r25
    3aa2:	9b 01       	movw	r18, r22
    3aa4:	ac 01       	movw	r20, r24
    3aa6:	bd 01       	movw	r22, r26
    3aa8:	cf 01       	movw	r24, r30
    3aaa:	08 95       	ret

00003aac <__divmodsi4>:
    3aac:	05 2e       	mov	r0, r21
    3aae:	97 fb       	bst	r25, 7
    3ab0:	16 f4       	brtc	.+4      	; 0x3ab6 <__divmodsi4+0xa>
    3ab2:	00 94       	com	r0
    3ab4:	0f d0       	rcall	.+30     	; 0x3ad4 <__negsi2>
    3ab6:	57 fd       	sbrc	r21, 7
    3ab8:	05 d0       	rcall	.+10     	; 0x3ac4 <__divmodsi4_neg2>
    3aba:	d6 df       	rcall	.-84     	; 0x3a68 <__udivmodsi4>
    3abc:	07 fc       	sbrc	r0, 7
    3abe:	02 d0       	rcall	.+4      	; 0x3ac4 <__divmodsi4_neg2>
    3ac0:	46 f4       	brtc	.+16     	; 0x3ad2 <__divmodsi4_exit>
    3ac2:	08 c0       	rjmp	.+16     	; 0x3ad4 <__negsi2>

00003ac4 <__divmodsi4_neg2>:
    3ac4:	50 95       	com	r21
    3ac6:	40 95       	com	r20
    3ac8:	30 95       	com	r19
    3aca:	21 95       	neg	r18
    3acc:	3f 4f       	sbci	r19, 0xFF	; 255
    3ace:	4f 4f       	sbci	r20, 0xFF	; 255
    3ad0:	5f 4f       	sbci	r21, 0xFF	; 255

00003ad2 <__divmodsi4_exit>:
    3ad2:	08 95       	ret

00003ad4 <__negsi2>:
    3ad4:	90 95       	com	r25
    3ad6:	80 95       	com	r24
    3ad8:	70 95       	com	r23
    3ada:	61 95       	neg	r22
    3adc:	7f 4f       	sbci	r23, 0xFF	; 255
    3ade:	8f 4f       	sbci	r24, 0xFF	; 255
    3ae0:	9f 4f       	sbci	r25, 0xFF	; 255
    3ae2:	08 95       	ret

00003ae4 <__tablejump2__>:
    3ae4:	ee 0f       	add	r30, r30
    3ae6:	ff 1f       	adc	r31, r31
    3ae8:	88 1f       	adc	r24, r24
    3aea:	8b bf       	out	0x3b, r24	; 59
    3aec:	07 90       	elpm	r0, Z+
    3aee:	f6 91       	elpm	r31, Z
    3af0:	e0 2d       	mov	r30, r0
    3af2:	19 94       	eijmp

00003af4 <__umulhisi3>:
    3af4:	a2 9f       	mul	r26, r18
    3af6:	b0 01       	movw	r22, r0
    3af8:	b3 9f       	mul	r27, r19
    3afa:	c0 01       	movw	r24, r0
    3afc:	a3 9f       	mul	r26, r19
    3afe:	70 0d       	add	r23, r0
    3b00:	81 1d       	adc	r24, r1
    3b02:	11 24       	eor	r1, r1
    3b04:	91 1d       	adc	r25, r1
    3b06:	b2 9f       	mul	r27, r18
    3b08:	70 0d       	add	r23, r0
    3b0a:	81 1d       	adc	r24, r1
    3b0c:	11 24       	eor	r1, r1
    3b0e:	91 1d       	adc	r25, r1
    3b10:	08 95       	ret

00003b12 <sprintf>:
    3b12:	0f 93       	push	r16
    3b14:	1f 93       	push	r17
    3b16:	cf 93       	push	r28
    3b18:	df 93       	push	r29
    3b1a:	cd b7       	in	r28, 0x3d	; 61
    3b1c:	de b7       	in	r29, 0x3e	; 62
    3b1e:	2e 97       	sbiw	r28, 0x0e	; 14
    3b20:	cd bf       	out	0x3d, r28	; 61
    3b22:	de bf       	out	0x3e, r29	; 62
    3b24:	0e 89       	ldd	r16, Y+22	; 0x16
    3b26:	1f 89       	ldd	r17, Y+23	; 0x17
    3b28:	86 e0       	ldi	r24, 0x06	; 6
    3b2a:	8c 83       	std	Y+4, r24	; 0x04
    3b2c:	09 83       	std	Y+1, r16	; 0x01
    3b2e:	1a 83       	std	Y+2, r17	; 0x02
    3b30:	8f ef       	ldi	r24, 0xFF	; 255
    3b32:	9f e7       	ldi	r25, 0x7F	; 127
    3b34:	8d 83       	std	Y+5, r24	; 0x05
    3b36:	9e 83       	std	Y+6, r25	; 0x06
    3b38:	ae 01       	movw	r20, r28
    3b3a:	46 5e       	subi	r20, 0xE6	; 230
    3b3c:	5f 4f       	sbci	r21, 0xFF	; 255
    3b3e:	68 8d       	ldd	r22, Y+24	; 0x18
    3b40:	79 8d       	ldd	r23, Y+25	; 0x19
    3b42:	ce 01       	movw	r24, r28
    3b44:	01 96       	adiw	r24, 0x01	; 1
    3b46:	0e d0       	rcall	.+28     	; 0x3b64 <vfprintf>
    3b48:	2f 81       	ldd	r18, Y+7	; 0x07
    3b4a:	38 85       	ldd	r19, Y+8	; 0x08
    3b4c:	f8 01       	movw	r30, r16
    3b4e:	e2 0f       	add	r30, r18
    3b50:	f3 1f       	adc	r31, r19
    3b52:	10 82       	st	Z, r1
    3b54:	2e 96       	adiw	r28, 0x0e	; 14
    3b56:	cd bf       	out	0x3d, r28	; 61
    3b58:	de bf       	out	0x3e, r29	; 62
    3b5a:	df 91       	pop	r29
    3b5c:	cf 91       	pop	r28
    3b5e:	1f 91       	pop	r17
    3b60:	0f 91       	pop	r16
    3b62:	08 95       	ret

00003b64 <vfprintf>:
    3b64:	2f 92       	push	r2
    3b66:	3f 92       	push	r3
    3b68:	4f 92       	push	r4
    3b6a:	5f 92       	push	r5
    3b6c:	6f 92       	push	r6
    3b6e:	7f 92       	push	r7
    3b70:	8f 92       	push	r8
    3b72:	9f 92       	push	r9
    3b74:	af 92       	push	r10
    3b76:	bf 92       	push	r11
    3b78:	cf 92       	push	r12
    3b7a:	df 92       	push	r13
    3b7c:	ef 92       	push	r14
    3b7e:	ff 92       	push	r15
    3b80:	0f 93       	push	r16
    3b82:	1f 93       	push	r17
    3b84:	cf 93       	push	r28
    3b86:	df 93       	push	r29
    3b88:	cd b7       	in	r28, 0x3d	; 61
    3b8a:	de b7       	in	r29, 0x3e	; 62
    3b8c:	2c 97       	sbiw	r28, 0x0c	; 12
    3b8e:	cd bf       	out	0x3d, r28	; 61
    3b90:	de bf       	out	0x3e, r29	; 62
    3b92:	7c 01       	movw	r14, r24
    3b94:	6b 01       	movw	r12, r22
    3b96:	8a 01       	movw	r16, r20
    3b98:	fc 01       	movw	r30, r24
    3b9a:	16 82       	std	Z+6, r1	; 0x06
    3b9c:	17 82       	std	Z+7, r1	; 0x07
    3b9e:	83 81       	ldd	r24, Z+3	; 0x03
    3ba0:	81 ff       	sbrs	r24, 1
    3ba2:	b0 c1       	rjmp	.+864    	; 0x3f04 <vfprintf+0x3a0>
    3ba4:	ce 01       	movw	r24, r28
    3ba6:	01 96       	adiw	r24, 0x01	; 1
    3ba8:	4c 01       	movw	r8, r24
    3baa:	f7 01       	movw	r30, r14
    3bac:	93 81       	ldd	r25, Z+3	; 0x03
    3bae:	f6 01       	movw	r30, r12
    3bb0:	93 fd       	sbrc	r25, 3
    3bb2:	85 91       	lpm	r24, Z+
    3bb4:	93 ff       	sbrs	r25, 3
    3bb6:	81 91       	ld	r24, Z+
    3bb8:	6f 01       	movw	r12, r30
    3bba:	88 23       	and	r24, r24
    3bbc:	09 f4       	brne	.+2      	; 0x3bc0 <vfprintf+0x5c>
    3bbe:	9e c1       	rjmp	.+828    	; 0x3efc <vfprintf+0x398>
    3bc0:	85 32       	cpi	r24, 0x25	; 37
    3bc2:	39 f4       	brne	.+14     	; 0x3bd2 <vfprintf+0x6e>
    3bc4:	93 fd       	sbrc	r25, 3
    3bc6:	85 91       	lpm	r24, Z+
    3bc8:	93 ff       	sbrs	r25, 3
    3bca:	81 91       	ld	r24, Z+
    3bcc:	6f 01       	movw	r12, r30
    3bce:	85 32       	cpi	r24, 0x25	; 37
    3bd0:	21 f4       	brne	.+8      	; 0x3bda <vfprintf+0x76>
    3bd2:	b7 01       	movw	r22, r14
    3bd4:	90 e0       	ldi	r25, 0x00	; 0
    3bd6:	c4 d1       	rcall	.+904    	; 0x3f60 <fputc>
    3bd8:	e8 cf       	rjmp	.-48     	; 0x3baa <vfprintf+0x46>
    3bda:	51 2c       	mov	r5, r1
    3bdc:	31 2c       	mov	r3, r1
    3bde:	20 e0       	ldi	r18, 0x00	; 0
    3be0:	20 32       	cpi	r18, 0x20	; 32
    3be2:	a0 f4       	brcc	.+40     	; 0x3c0c <vfprintf+0xa8>
    3be4:	8b 32       	cpi	r24, 0x2B	; 43
    3be6:	69 f0       	breq	.+26     	; 0x3c02 <vfprintf+0x9e>
    3be8:	30 f4       	brcc	.+12     	; 0x3bf6 <vfprintf+0x92>
    3bea:	80 32       	cpi	r24, 0x20	; 32
    3bec:	59 f0       	breq	.+22     	; 0x3c04 <vfprintf+0xa0>
    3bee:	83 32       	cpi	r24, 0x23	; 35
    3bf0:	69 f4       	brne	.+26     	; 0x3c0c <vfprintf+0xa8>
    3bf2:	20 61       	ori	r18, 0x10	; 16
    3bf4:	2c c0       	rjmp	.+88     	; 0x3c4e <vfprintf+0xea>
    3bf6:	8d 32       	cpi	r24, 0x2D	; 45
    3bf8:	39 f0       	breq	.+14     	; 0x3c08 <vfprintf+0xa4>
    3bfa:	80 33       	cpi	r24, 0x30	; 48
    3bfc:	39 f4       	brne	.+14     	; 0x3c0c <vfprintf+0xa8>
    3bfe:	21 60       	ori	r18, 0x01	; 1
    3c00:	26 c0       	rjmp	.+76     	; 0x3c4e <vfprintf+0xea>
    3c02:	22 60       	ori	r18, 0x02	; 2
    3c04:	24 60       	ori	r18, 0x04	; 4
    3c06:	23 c0       	rjmp	.+70     	; 0x3c4e <vfprintf+0xea>
    3c08:	28 60       	ori	r18, 0x08	; 8
    3c0a:	21 c0       	rjmp	.+66     	; 0x3c4e <vfprintf+0xea>
    3c0c:	27 fd       	sbrc	r18, 7
    3c0e:	27 c0       	rjmp	.+78     	; 0x3c5e <vfprintf+0xfa>
    3c10:	30 ed       	ldi	r19, 0xD0	; 208
    3c12:	38 0f       	add	r19, r24
    3c14:	3a 30       	cpi	r19, 0x0A	; 10
    3c16:	78 f4       	brcc	.+30     	; 0x3c36 <vfprintf+0xd2>
    3c18:	26 ff       	sbrs	r18, 6
    3c1a:	06 c0       	rjmp	.+12     	; 0x3c28 <vfprintf+0xc4>
    3c1c:	fa e0       	ldi	r31, 0x0A	; 10
    3c1e:	5f 9e       	mul	r5, r31
    3c20:	30 0d       	add	r19, r0
    3c22:	11 24       	eor	r1, r1
    3c24:	53 2e       	mov	r5, r19
    3c26:	13 c0       	rjmp	.+38     	; 0x3c4e <vfprintf+0xea>
    3c28:	8a e0       	ldi	r24, 0x0A	; 10
    3c2a:	38 9e       	mul	r3, r24
    3c2c:	30 0d       	add	r19, r0
    3c2e:	11 24       	eor	r1, r1
    3c30:	33 2e       	mov	r3, r19
    3c32:	20 62       	ori	r18, 0x20	; 32
    3c34:	0c c0       	rjmp	.+24     	; 0x3c4e <vfprintf+0xea>
    3c36:	8e 32       	cpi	r24, 0x2E	; 46
    3c38:	21 f4       	brne	.+8      	; 0x3c42 <vfprintf+0xde>
    3c3a:	26 fd       	sbrc	r18, 6
    3c3c:	5f c1       	rjmp	.+702    	; 0x3efc <vfprintf+0x398>
    3c3e:	20 64       	ori	r18, 0x40	; 64
    3c40:	06 c0       	rjmp	.+12     	; 0x3c4e <vfprintf+0xea>
    3c42:	8c 36       	cpi	r24, 0x6C	; 108
    3c44:	11 f4       	brne	.+4      	; 0x3c4a <vfprintf+0xe6>
    3c46:	20 68       	ori	r18, 0x80	; 128
    3c48:	02 c0       	rjmp	.+4      	; 0x3c4e <vfprintf+0xea>
    3c4a:	88 36       	cpi	r24, 0x68	; 104
    3c4c:	41 f4       	brne	.+16     	; 0x3c5e <vfprintf+0xfa>
    3c4e:	f6 01       	movw	r30, r12
    3c50:	93 fd       	sbrc	r25, 3
    3c52:	85 91       	lpm	r24, Z+
    3c54:	93 ff       	sbrs	r25, 3
    3c56:	81 91       	ld	r24, Z+
    3c58:	6f 01       	movw	r12, r30
    3c5a:	81 11       	cpse	r24, r1
    3c5c:	c1 cf       	rjmp	.-126    	; 0x3be0 <vfprintf+0x7c>
    3c5e:	98 2f       	mov	r25, r24
    3c60:	9f 7d       	andi	r25, 0xDF	; 223
    3c62:	95 54       	subi	r25, 0x45	; 69
    3c64:	93 30       	cpi	r25, 0x03	; 3
    3c66:	28 f4       	brcc	.+10     	; 0x3c72 <vfprintf+0x10e>
    3c68:	0c 5f       	subi	r16, 0xFC	; 252
    3c6a:	1f 4f       	sbci	r17, 0xFF	; 255
    3c6c:	ff e3       	ldi	r31, 0x3F	; 63
    3c6e:	f9 83       	std	Y+1, r31	; 0x01
    3c70:	0d c0       	rjmp	.+26     	; 0x3c8c <vfprintf+0x128>
    3c72:	83 36       	cpi	r24, 0x63	; 99
    3c74:	31 f0       	breq	.+12     	; 0x3c82 <vfprintf+0x11e>
    3c76:	83 37       	cpi	r24, 0x73	; 115
    3c78:	71 f0       	breq	.+28     	; 0x3c96 <vfprintf+0x132>
    3c7a:	83 35       	cpi	r24, 0x53	; 83
    3c7c:	09 f0       	breq	.+2      	; 0x3c80 <vfprintf+0x11c>
    3c7e:	57 c0       	rjmp	.+174    	; 0x3d2e <vfprintf+0x1ca>
    3c80:	21 c0       	rjmp	.+66     	; 0x3cc4 <vfprintf+0x160>
    3c82:	f8 01       	movw	r30, r16
    3c84:	80 81       	ld	r24, Z
    3c86:	89 83       	std	Y+1, r24	; 0x01
    3c88:	0e 5f       	subi	r16, 0xFE	; 254
    3c8a:	1f 4f       	sbci	r17, 0xFF	; 255
    3c8c:	44 24       	eor	r4, r4
    3c8e:	43 94       	inc	r4
    3c90:	51 2c       	mov	r5, r1
    3c92:	54 01       	movw	r10, r8
    3c94:	14 c0       	rjmp	.+40     	; 0x3cbe <vfprintf+0x15a>
    3c96:	38 01       	movw	r6, r16
    3c98:	f2 e0       	ldi	r31, 0x02	; 2
    3c9a:	6f 0e       	add	r6, r31
    3c9c:	71 1c       	adc	r7, r1
    3c9e:	f8 01       	movw	r30, r16
    3ca0:	a0 80       	ld	r10, Z
    3ca2:	b1 80       	ldd	r11, Z+1	; 0x01
    3ca4:	26 ff       	sbrs	r18, 6
    3ca6:	03 c0       	rjmp	.+6      	; 0x3cae <vfprintf+0x14a>
    3ca8:	65 2d       	mov	r22, r5
    3caa:	70 e0       	ldi	r23, 0x00	; 0
    3cac:	02 c0       	rjmp	.+4      	; 0x3cb2 <vfprintf+0x14e>
    3cae:	6f ef       	ldi	r22, 0xFF	; 255
    3cb0:	7f ef       	ldi	r23, 0xFF	; 255
    3cb2:	c5 01       	movw	r24, r10
    3cb4:	2c 87       	std	Y+12, r18	; 0x0c
    3cb6:	49 d1       	rcall	.+658    	; 0x3f4a <strnlen>
    3cb8:	2c 01       	movw	r4, r24
    3cba:	83 01       	movw	r16, r6
    3cbc:	2c 85       	ldd	r18, Y+12	; 0x0c
    3cbe:	2f 77       	andi	r18, 0x7F	; 127
    3cc0:	22 2e       	mov	r2, r18
    3cc2:	16 c0       	rjmp	.+44     	; 0x3cf0 <vfprintf+0x18c>
    3cc4:	38 01       	movw	r6, r16
    3cc6:	f2 e0       	ldi	r31, 0x02	; 2
    3cc8:	6f 0e       	add	r6, r31
    3cca:	71 1c       	adc	r7, r1
    3ccc:	f8 01       	movw	r30, r16
    3cce:	a0 80       	ld	r10, Z
    3cd0:	b1 80       	ldd	r11, Z+1	; 0x01
    3cd2:	26 ff       	sbrs	r18, 6
    3cd4:	03 c0       	rjmp	.+6      	; 0x3cdc <vfprintf+0x178>
    3cd6:	65 2d       	mov	r22, r5
    3cd8:	70 e0       	ldi	r23, 0x00	; 0
    3cda:	02 c0       	rjmp	.+4      	; 0x3ce0 <vfprintf+0x17c>
    3cdc:	6f ef       	ldi	r22, 0xFF	; 255
    3cde:	7f ef       	ldi	r23, 0xFF	; 255
    3ce0:	c5 01       	movw	r24, r10
    3ce2:	2c 87       	std	Y+12, r18	; 0x0c
    3ce4:	27 d1       	rcall	.+590    	; 0x3f34 <strnlen_P>
    3ce6:	2c 01       	movw	r4, r24
    3ce8:	2c 85       	ldd	r18, Y+12	; 0x0c
    3cea:	20 68       	ori	r18, 0x80	; 128
    3cec:	22 2e       	mov	r2, r18
    3cee:	83 01       	movw	r16, r6
    3cf0:	23 fc       	sbrc	r2, 3
    3cf2:	19 c0       	rjmp	.+50     	; 0x3d26 <vfprintf+0x1c2>
    3cf4:	83 2d       	mov	r24, r3
    3cf6:	90 e0       	ldi	r25, 0x00	; 0
    3cf8:	48 16       	cp	r4, r24
    3cfa:	59 06       	cpc	r5, r25
    3cfc:	a0 f4       	brcc	.+40     	; 0x3d26 <vfprintf+0x1c2>
    3cfe:	b7 01       	movw	r22, r14
    3d00:	80 e2       	ldi	r24, 0x20	; 32
    3d02:	90 e0       	ldi	r25, 0x00	; 0
    3d04:	2d d1       	rcall	.+602    	; 0x3f60 <fputc>
    3d06:	3a 94       	dec	r3
    3d08:	f5 cf       	rjmp	.-22     	; 0x3cf4 <vfprintf+0x190>
    3d0a:	f5 01       	movw	r30, r10
    3d0c:	27 fc       	sbrc	r2, 7
    3d0e:	85 91       	lpm	r24, Z+
    3d10:	27 fe       	sbrs	r2, 7
    3d12:	81 91       	ld	r24, Z+
    3d14:	5f 01       	movw	r10, r30
    3d16:	b7 01       	movw	r22, r14
    3d18:	90 e0       	ldi	r25, 0x00	; 0
    3d1a:	22 d1       	rcall	.+580    	; 0x3f60 <fputc>
    3d1c:	31 10       	cpse	r3, r1
    3d1e:	3a 94       	dec	r3
    3d20:	f1 e0       	ldi	r31, 0x01	; 1
    3d22:	4f 1a       	sub	r4, r31
    3d24:	51 08       	sbc	r5, r1
    3d26:	41 14       	cp	r4, r1
    3d28:	51 04       	cpc	r5, r1
    3d2a:	79 f7       	brne	.-34     	; 0x3d0a <vfprintf+0x1a6>
    3d2c:	de c0       	rjmp	.+444    	; 0x3eea <vfprintf+0x386>
    3d2e:	84 36       	cpi	r24, 0x64	; 100
    3d30:	11 f0       	breq	.+4      	; 0x3d36 <vfprintf+0x1d2>
    3d32:	89 36       	cpi	r24, 0x69	; 105
    3d34:	31 f5       	brne	.+76     	; 0x3d82 <vfprintf+0x21e>
    3d36:	f8 01       	movw	r30, r16
    3d38:	27 ff       	sbrs	r18, 7
    3d3a:	07 c0       	rjmp	.+14     	; 0x3d4a <vfprintf+0x1e6>
    3d3c:	60 81       	ld	r22, Z
    3d3e:	71 81       	ldd	r23, Z+1	; 0x01
    3d40:	82 81       	ldd	r24, Z+2	; 0x02
    3d42:	93 81       	ldd	r25, Z+3	; 0x03
    3d44:	0c 5f       	subi	r16, 0xFC	; 252
    3d46:	1f 4f       	sbci	r17, 0xFF	; 255
    3d48:	08 c0       	rjmp	.+16     	; 0x3d5a <vfprintf+0x1f6>
    3d4a:	60 81       	ld	r22, Z
    3d4c:	71 81       	ldd	r23, Z+1	; 0x01
    3d4e:	07 2e       	mov	r0, r23
    3d50:	00 0c       	add	r0, r0
    3d52:	88 0b       	sbc	r24, r24
    3d54:	99 0b       	sbc	r25, r25
    3d56:	0e 5f       	subi	r16, 0xFE	; 254
    3d58:	1f 4f       	sbci	r17, 0xFF	; 255
    3d5a:	2f 76       	andi	r18, 0x6F	; 111
    3d5c:	72 2e       	mov	r7, r18
    3d5e:	97 ff       	sbrs	r25, 7
    3d60:	09 c0       	rjmp	.+18     	; 0x3d74 <vfprintf+0x210>
    3d62:	90 95       	com	r25
    3d64:	80 95       	com	r24
    3d66:	70 95       	com	r23
    3d68:	61 95       	neg	r22
    3d6a:	7f 4f       	sbci	r23, 0xFF	; 255
    3d6c:	8f 4f       	sbci	r24, 0xFF	; 255
    3d6e:	9f 4f       	sbci	r25, 0xFF	; 255
    3d70:	20 68       	ori	r18, 0x80	; 128
    3d72:	72 2e       	mov	r7, r18
    3d74:	2a e0       	ldi	r18, 0x0A	; 10
    3d76:	30 e0       	ldi	r19, 0x00	; 0
    3d78:	a4 01       	movw	r20, r8
    3d7a:	2a d1       	rcall	.+596    	; 0x3fd0 <__ultoa_invert>
    3d7c:	a8 2e       	mov	r10, r24
    3d7e:	a8 18       	sub	r10, r8
    3d80:	43 c0       	rjmp	.+134    	; 0x3e08 <vfprintf+0x2a4>
    3d82:	85 37       	cpi	r24, 0x75	; 117
    3d84:	29 f4       	brne	.+10     	; 0x3d90 <vfprintf+0x22c>
    3d86:	2f 7e       	andi	r18, 0xEF	; 239
    3d88:	b2 2e       	mov	r11, r18
    3d8a:	2a e0       	ldi	r18, 0x0A	; 10
    3d8c:	30 e0       	ldi	r19, 0x00	; 0
    3d8e:	25 c0       	rjmp	.+74     	; 0x3dda <vfprintf+0x276>
    3d90:	f2 2f       	mov	r31, r18
    3d92:	f9 7f       	andi	r31, 0xF9	; 249
    3d94:	bf 2e       	mov	r11, r31
    3d96:	8f 36       	cpi	r24, 0x6F	; 111
    3d98:	c1 f0       	breq	.+48     	; 0x3dca <vfprintf+0x266>
    3d9a:	18 f4       	brcc	.+6      	; 0x3da2 <vfprintf+0x23e>
    3d9c:	88 35       	cpi	r24, 0x58	; 88
    3d9e:	79 f0       	breq	.+30     	; 0x3dbe <vfprintf+0x25a>
    3da0:	ad c0       	rjmp	.+346    	; 0x3efc <vfprintf+0x398>
    3da2:	80 37       	cpi	r24, 0x70	; 112
    3da4:	19 f0       	breq	.+6      	; 0x3dac <vfprintf+0x248>
    3da6:	88 37       	cpi	r24, 0x78	; 120
    3da8:	21 f0       	breq	.+8      	; 0x3db2 <vfprintf+0x24e>
    3daa:	a8 c0       	rjmp	.+336    	; 0x3efc <vfprintf+0x398>
    3dac:	2f 2f       	mov	r18, r31
    3dae:	20 61       	ori	r18, 0x10	; 16
    3db0:	b2 2e       	mov	r11, r18
    3db2:	b4 fe       	sbrs	r11, 4
    3db4:	0d c0       	rjmp	.+26     	; 0x3dd0 <vfprintf+0x26c>
    3db6:	8b 2d       	mov	r24, r11
    3db8:	84 60       	ori	r24, 0x04	; 4
    3dba:	b8 2e       	mov	r11, r24
    3dbc:	09 c0       	rjmp	.+18     	; 0x3dd0 <vfprintf+0x26c>
    3dbe:	24 ff       	sbrs	r18, 4
    3dc0:	0a c0       	rjmp	.+20     	; 0x3dd6 <vfprintf+0x272>
    3dc2:	9f 2f       	mov	r25, r31
    3dc4:	96 60       	ori	r25, 0x06	; 6
    3dc6:	b9 2e       	mov	r11, r25
    3dc8:	06 c0       	rjmp	.+12     	; 0x3dd6 <vfprintf+0x272>
    3dca:	28 e0       	ldi	r18, 0x08	; 8
    3dcc:	30 e0       	ldi	r19, 0x00	; 0
    3dce:	05 c0       	rjmp	.+10     	; 0x3dda <vfprintf+0x276>
    3dd0:	20 e1       	ldi	r18, 0x10	; 16
    3dd2:	30 e0       	ldi	r19, 0x00	; 0
    3dd4:	02 c0       	rjmp	.+4      	; 0x3dda <vfprintf+0x276>
    3dd6:	20 e1       	ldi	r18, 0x10	; 16
    3dd8:	32 e0       	ldi	r19, 0x02	; 2
    3dda:	f8 01       	movw	r30, r16
    3ddc:	b7 fe       	sbrs	r11, 7
    3dde:	07 c0       	rjmp	.+14     	; 0x3dee <vfprintf+0x28a>
    3de0:	60 81       	ld	r22, Z
    3de2:	71 81       	ldd	r23, Z+1	; 0x01
    3de4:	82 81       	ldd	r24, Z+2	; 0x02
    3de6:	93 81       	ldd	r25, Z+3	; 0x03
    3de8:	0c 5f       	subi	r16, 0xFC	; 252
    3dea:	1f 4f       	sbci	r17, 0xFF	; 255
    3dec:	06 c0       	rjmp	.+12     	; 0x3dfa <vfprintf+0x296>
    3dee:	60 81       	ld	r22, Z
    3df0:	71 81       	ldd	r23, Z+1	; 0x01
    3df2:	80 e0       	ldi	r24, 0x00	; 0
    3df4:	90 e0       	ldi	r25, 0x00	; 0
    3df6:	0e 5f       	subi	r16, 0xFE	; 254
    3df8:	1f 4f       	sbci	r17, 0xFF	; 255
    3dfa:	a4 01       	movw	r20, r8
    3dfc:	e9 d0       	rcall	.+466    	; 0x3fd0 <__ultoa_invert>
    3dfe:	a8 2e       	mov	r10, r24
    3e00:	a8 18       	sub	r10, r8
    3e02:	fb 2d       	mov	r31, r11
    3e04:	ff 77       	andi	r31, 0x7F	; 127
    3e06:	7f 2e       	mov	r7, r31
    3e08:	76 fe       	sbrs	r7, 6
    3e0a:	0b c0       	rjmp	.+22     	; 0x3e22 <vfprintf+0x2be>
    3e0c:	37 2d       	mov	r19, r7
    3e0e:	3e 7f       	andi	r19, 0xFE	; 254
    3e10:	a5 14       	cp	r10, r5
    3e12:	50 f4       	brcc	.+20     	; 0x3e28 <vfprintf+0x2c4>
    3e14:	74 fe       	sbrs	r7, 4
    3e16:	0a c0       	rjmp	.+20     	; 0x3e2c <vfprintf+0x2c8>
    3e18:	72 fc       	sbrc	r7, 2
    3e1a:	08 c0       	rjmp	.+16     	; 0x3e2c <vfprintf+0x2c8>
    3e1c:	37 2d       	mov	r19, r7
    3e1e:	3e 7e       	andi	r19, 0xEE	; 238
    3e20:	05 c0       	rjmp	.+10     	; 0x3e2c <vfprintf+0x2c8>
    3e22:	ba 2c       	mov	r11, r10
    3e24:	37 2d       	mov	r19, r7
    3e26:	03 c0       	rjmp	.+6      	; 0x3e2e <vfprintf+0x2ca>
    3e28:	ba 2c       	mov	r11, r10
    3e2a:	01 c0       	rjmp	.+2      	; 0x3e2e <vfprintf+0x2ca>
    3e2c:	b5 2c       	mov	r11, r5
    3e2e:	34 ff       	sbrs	r19, 4
    3e30:	0d c0       	rjmp	.+26     	; 0x3e4c <vfprintf+0x2e8>
    3e32:	fe 01       	movw	r30, r28
    3e34:	ea 0d       	add	r30, r10
    3e36:	f1 1d       	adc	r31, r1
    3e38:	80 81       	ld	r24, Z
    3e3a:	80 33       	cpi	r24, 0x30	; 48
    3e3c:	11 f4       	brne	.+4      	; 0x3e42 <vfprintf+0x2de>
    3e3e:	39 7e       	andi	r19, 0xE9	; 233
    3e40:	09 c0       	rjmp	.+18     	; 0x3e54 <vfprintf+0x2f0>
    3e42:	32 ff       	sbrs	r19, 2
    3e44:	06 c0       	rjmp	.+12     	; 0x3e52 <vfprintf+0x2ee>
    3e46:	b3 94       	inc	r11
    3e48:	b3 94       	inc	r11
    3e4a:	04 c0       	rjmp	.+8      	; 0x3e54 <vfprintf+0x2f0>
    3e4c:	83 2f       	mov	r24, r19
    3e4e:	86 78       	andi	r24, 0x86	; 134
    3e50:	09 f0       	breq	.+2      	; 0x3e54 <vfprintf+0x2f0>
    3e52:	b3 94       	inc	r11
    3e54:	33 fd       	sbrc	r19, 3
    3e56:	12 c0       	rjmp	.+36     	; 0x3e7c <vfprintf+0x318>
    3e58:	30 ff       	sbrs	r19, 0
    3e5a:	06 c0       	rjmp	.+12     	; 0x3e68 <vfprintf+0x304>
    3e5c:	5a 2c       	mov	r5, r10
    3e5e:	b3 14       	cp	r11, r3
    3e60:	18 f4       	brcc	.+6      	; 0x3e68 <vfprintf+0x304>
    3e62:	53 0c       	add	r5, r3
    3e64:	5b 18       	sub	r5, r11
    3e66:	b3 2c       	mov	r11, r3
    3e68:	b3 14       	cp	r11, r3
    3e6a:	60 f4       	brcc	.+24     	; 0x3e84 <vfprintf+0x320>
    3e6c:	b7 01       	movw	r22, r14
    3e6e:	80 e2       	ldi	r24, 0x20	; 32
    3e70:	90 e0       	ldi	r25, 0x00	; 0
    3e72:	3c 87       	std	Y+12, r19	; 0x0c
    3e74:	75 d0       	rcall	.+234    	; 0x3f60 <fputc>
    3e76:	b3 94       	inc	r11
    3e78:	3c 85       	ldd	r19, Y+12	; 0x0c
    3e7a:	f6 cf       	rjmp	.-20     	; 0x3e68 <vfprintf+0x304>
    3e7c:	b3 14       	cp	r11, r3
    3e7e:	10 f4       	brcc	.+4      	; 0x3e84 <vfprintf+0x320>
    3e80:	3b 18       	sub	r3, r11
    3e82:	01 c0       	rjmp	.+2      	; 0x3e86 <vfprintf+0x322>
    3e84:	31 2c       	mov	r3, r1
    3e86:	34 ff       	sbrs	r19, 4
    3e88:	11 c0       	rjmp	.+34     	; 0x3eac <vfprintf+0x348>
    3e8a:	b7 01       	movw	r22, r14
    3e8c:	80 e3       	ldi	r24, 0x30	; 48
    3e8e:	90 e0       	ldi	r25, 0x00	; 0
    3e90:	3c 87       	std	Y+12, r19	; 0x0c
    3e92:	66 d0       	rcall	.+204    	; 0x3f60 <fputc>
    3e94:	3c 85       	ldd	r19, Y+12	; 0x0c
    3e96:	32 ff       	sbrs	r19, 2
    3e98:	16 c0       	rjmp	.+44     	; 0x3ec6 <vfprintf+0x362>
    3e9a:	31 fd       	sbrc	r19, 1
    3e9c:	03 c0       	rjmp	.+6      	; 0x3ea4 <vfprintf+0x340>
    3e9e:	88 e7       	ldi	r24, 0x78	; 120
    3ea0:	90 e0       	ldi	r25, 0x00	; 0
    3ea2:	02 c0       	rjmp	.+4      	; 0x3ea8 <vfprintf+0x344>
    3ea4:	88 e5       	ldi	r24, 0x58	; 88
    3ea6:	90 e0       	ldi	r25, 0x00	; 0
    3ea8:	b7 01       	movw	r22, r14
    3eaa:	0c c0       	rjmp	.+24     	; 0x3ec4 <vfprintf+0x360>
    3eac:	83 2f       	mov	r24, r19
    3eae:	86 78       	andi	r24, 0x86	; 134
    3eb0:	51 f0       	breq	.+20     	; 0x3ec6 <vfprintf+0x362>
    3eb2:	31 ff       	sbrs	r19, 1
    3eb4:	02 c0       	rjmp	.+4      	; 0x3eba <vfprintf+0x356>
    3eb6:	8b e2       	ldi	r24, 0x2B	; 43
    3eb8:	01 c0       	rjmp	.+2      	; 0x3ebc <vfprintf+0x358>
    3eba:	80 e2       	ldi	r24, 0x20	; 32
    3ebc:	37 fd       	sbrc	r19, 7
    3ebe:	8d e2       	ldi	r24, 0x2D	; 45
    3ec0:	b7 01       	movw	r22, r14
    3ec2:	90 e0       	ldi	r25, 0x00	; 0
    3ec4:	4d d0       	rcall	.+154    	; 0x3f60 <fputc>
    3ec6:	a5 14       	cp	r10, r5
    3ec8:	30 f4       	brcc	.+12     	; 0x3ed6 <vfprintf+0x372>
    3eca:	b7 01       	movw	r22, r14
    3ecc:	80 e3       	ldi	r24, 0x30	; 48
    3ece:	90 e0       	ldi	r25, 0x00	; 0
    3ed0:	47 d0       	rcall	.+142    	; 0x3f60 <fputc>
    3ed2:	5a 94       	dec	r5
    3ed4:	f8 cf       	rjmp	.-16     	; 0x3ec6 <vfprintf+0x362>
    3ed6:	aa 94       	dec	r10
    3ed8:	f4 01       	movw	r30, r8
    3eda:	ea 0d       	add	r30, r10
    3edc:	f1 1d       	adc	r31, r1
    3ede:	80 81       	ld	r24, Z
    3ee0:	b7 01       	movw	r22, r14
    3ee2:	90 e0       	ldi	r25, 0x00	; 0
    3ee4:	3d d0       	rcall	.+122    	; 0x3f60 <fputc>
    3ee6:	a1 10       	cpse	r10, r1
    3ee8:	f6 cf       	rjmp	.-20     	; 0x3ed6 <vfprintf+0x372>
    3eea:	33 20       	and	r3, r3
    3eec:	09 f4       	brne	.+2      	; 0x3ef0 <vfprintf+0x38c>
    3eee:	5d ce       	rjmp	.-838    	; 0x3baa <vfprintf+0x46>
    3ef0:	b7 01       	movw	r22, r14
    3ef2:	80 e2       	ldi	r24, 0x20	; 32
    3ef4:	90 e0       	ldi	r25, 0x00	; 0
    3ef6:	34 d0       	rcall	.+104    	; 0x3f60 <fputc>
    3ef8:	3a 94       	dec	r3
    3efa:	f7 cf       	rjmp	.-18     	; 0x3eea <vfprintf+0x386>
    3efc:	f7 01       	movw	r30, r14
    3efe:	86 81       	ldd	r24, Z+6	; 0x06
    3f00:	97 81       	ldd	r25, Z+7	; 0x07
    3f02:	02 c0       	rjmp	.+4      	; 0x3f08 <vfprintf+0x3a4>
    3f04:	8f ef       	ldi	r24, 0xFF	; 255
    3f06:	9f ef       	ldi	r25, 0xFF	; 255
    3f08:	2c 96       	adiw	r28, 0x0c	; 12
    3f0a:	cd bf       	out	0x3d, r28	; 61
    3f0c:	de bf       	out	0x3e, r29	; 62
    3f0e:	df 91       	pop	r29
    3f10:	cf 91       	pop	r28
    3f12:	1f 91       	pop	r17
    3f14:	0f 91       	pop	r16
    3f16:	ff 90       	pop	r15
    3f18:	ef 90       	pop	r14
    3f1a:	df 90       	pop	r13
    3f1c:	cf 90       	pop	r12
    3f1e:	bf 90       	pop	r11
    3f20:	af 90       	pop	r10
    3f22:	9f 90       	pop	r9
    3f24:	8f 90       	pop	r8
    3f26:	7f 90       	pop	r7
    3f28:	6f 90       	pop	r6
    3f2a:	5f 90       	pop	r5
    3f2c:	4f 90       	pop	r4
    3f2e:	3f 90       	pop	r3
    3f30:	2f 90       	pop	r2
    3f32:	08 95       	ret

00003f34 <strnlen_P>:
    3f34:	fc 01       	movw	r30, r24
    3f36:	05 90       	lpm	r0, Z+
    3f38:	61 50       	subi	r22, 0x01	; 1
    3f3a:	70 40       	sbci	r23, 0x00	; 0
    3f3c:	01 10       	cpse	r0, r1
    3f3e:	d8 f7       	brcc	.-10     	; 0x3f36 <strnlen_P+0x2>
    3f40:	80 95       	com	r24
    3f42:	90 95       	com	r25
    3f44:	8e 0f       	add	r24, r30
    3f46:	9f 1f       	adc	r25, r31
    3f48:	08 95       	ret

00003f4a <strnlen>:
    3f4a:	fc 01       	movw	r30, r24
    3f4c:	61 50       	subi	r22, 0x01	; 1
    3f4e:	70 40       	sbci	r23, 0x00	; 0
    3f50:	01 90       	ld	r0, Z+
    3f52:	01 10       	cpse	r0, r1
    3f54:	d8 f7       	brcc	.-10     	; 0x3f4c <strnlen+0x2>
    3f56:	80 95       	com	r24
    3f58:	90 95       	com	r25
    3f5a:	8e 0f       	add	r24, r30
    3f5c:	9f 1f       	adc	r25, r31
    3f5e:	08 95       	ret

00003f60 <fputc>:
    3f60:	0f 93       	push	r16
    3f62:	1f 93       	push	r17
    3f64:	cf 93       	push	r28
    3f66:	df 93       	push	r29
    3f68:	fb 01       	movw	r30, r22
    3f6a:	23 81       	ldd	r18, Z+3	; 0x03
    3f6c:	21 fd       	sbrc	r18, 1
    3f6e:	03 c0       	rjmp	.+6      	; 0x3f76 <fputc+0x16>
    3f70:	8f ef       	ldi	r24, 0xFF	; 255
    3f72:	9f ef       	ldi	r25, 0xFF	; 255
    3f74:	28 c0       	rjmp	.+80     	; 0x3fc6 <fputc+0x66>
    3f76:	22 ff       	sbrs	r18, 2
    3f78:	16 c0       	rjmp	.+44     	; 0x3fa6 <fputc+0x46>
    3f7a:	46 81       	ldd	r20, Z+6	; 0x06
    3f7c:	57 81       	ldd	r21, Z+7	; 0x07
    3f7e:	24 81       	ldd	r18, Z+4	; 0x04
    3f80:	35 81       	ldd	r19, Z+5	; 0x05
    3f82:	42 17       	cp	r20, r18
    3f84:	53 07       	cpc	r21, r19
    3f86:	44 f4       	brge	.+16     	; 0x3f98 <fputc+0x38>
    3f88:	a0 81       	ld	r26, Z
    3f8a:	b1 81       	ldd	r27, Z+1	; 0x01
    3f8c:	9d 01       	movw	r18, r26
    3f8e:	2f 5f       	subi	r18, 0xFF	; 255
    3f90:	3f 4f       	sbci	r19, 0xFF	; 255
    3f92:	20 83       	st	Z, r18
    3f94:	31 83       	std	Z+1, r19	; 0x01
    3f96:	8c 93       	st	X, r24
    3f98:	26 81       	ldd	r18, Z+6	; 0x06
    3f9a:	37 81       	ldd	r19, Z+7	; 0x07
    3f9c:	2f 5f       	subi	r18, 0xFF	; 255
    3f9e:	3f 4f       	sbci	r19, 0xFF	; 255
    3fa0:	26 83       	std	Z+6, r18	; 0x06
    3fa2:	37 83       	std	Z+7, r19	; 0x07
    3fa4:	10 c0       	rjmp	.+32     	; 0x3fc6 <fputc+0x66>
    3fa6:	eb 01       	movw	r28, r22
    3fa8:	09 2f       	mov	r16, r25
    3faa:	18 2f       	mov	r17, r24
    3fac:	00 84       	ldd	r0, Z+8	; 0x08
    3fae:	f1 85       	ldd	r31, Z+9	; 0x09
    3fb0:	e0 2d       	mov	r30, r0
    3fb2:	19 95       	eicall
    3fb4:	89 2b       	or	r24, r25
    3fb6:	e1 f6       	brne	.-72     	; 0x3f70 <fputc+0x10>
    3fb8:	8e 81       	ldd	r24, Y+6	; 0x06
    3fba:	9f 81       	ldd	r25, Y+7	; 0x07
    3fbc:	01 96       	adiw	r24, 0x01	; 1
    3fbe:	8e 83       	std	Y+6, r24	; 0x06
    3fc0:	9f 83       	std	Y+7, r25	; 0x07
    3fc2:	81 2f       	mov	r24, r17
    3fc4:	90 2f       	mov	r25, r16
    3fc6:	df 91       	pop	r29
    3fc8:	cf 91       	pop	r28
    3fca:	1f 91       	pop	r17
    3fcc:	0f 91       	pop	r16
    3fce:	08 95       	ret

00003fd0 <__ultoa_invert>:
    3fd0:	fa 01       	movw	r30, r20
    3fd2:	aa 27       	eor	r26, r26
    3fd4:	28 30       	cpi	r18, 0x08	; 8
    3fd6:	51 f1       	breq	.+84     	; 0x402c <__ultoa_invert+0x5c>
    3fd8:	20 31       	cpi	r18, 0x10	; 16
    3fda:	81 f1       	breq	.+96     	; 0x403c <__ultoa_invert+0x6c>
    3fdc:	e8 94       	clt
    3fde:	6f 93       	push	r22
    3fe0:	6e 7f       	andi	r22, 0xFE	; 254
    3fe2:	6e 5f       	subi	r22, 0xFE	; 254
    3fe4:	7f 4f       	sbci	r23, 0xFF	; 255
    3fe6:	8f 4f       	sbci	r24, 0xFF	; 255
    3fe8:	9f 4f       	sbci	r25, 0xFF	; 255
    3fea:	af 4f       	sbci	r26, 0xFF	; 255
    3fec:	b1 e0       	ldi	r27, 0x01	; 1
    3fee:	3e d0       	rcall	.+124    	; 0x406c <__ultoa_invert+0x9c>
    3ff0:	b4 e0       	ldi	r27, 0x04	; 4
    3ff2:	3c d0       	rcall	.+120    	; 0x406c <__ultoa_invert+0x9c>
    3ff4:	67 0f       	add	r22, r23
    3ff6:	78 1f       	adc	r23, r24
    3ff8:	89 1f       	adc	r24, r25
    3ffa:	9a 1f       	adc	r25, r26
    3ffc:	a1 1d       	adc	r26, r1
    3ffe:	68 0f       	add	r22, r24
    4000:	79 1f       	adc	r23, r25
    4002:	8a 1f       	adc	r24, r26
    4004:	91 1d       	adc	r25, r1
    4006:	a1 1d       	adc	r26, r1
    4008:	6a 0f       	add	r22, r26
    400a:	71 1d       	adc	r23, r1
    400c:	81 1d       	adc	r24, r1
    400e:	91 1d       	adc	r25, r1
    4010:	a1 1d       	adc	r26, r1
    4012:	20 d0       	rcall	.+64     	; 0x4054 <__ultoa_invert+0x84>
    4014:	09 f4       	brne	.+2      	; 0x4018 <__ultoa_invert+0x48>
    4016:	68 94       	set
    4018:	3f 91       	pop	r19
    401a:	2a e0       	ldi	r18, 0x0A	; 10
    401c:	26 9f       	mul	r18, r22
    401e:	11 24       	eor	r1, r1
    4020:	30 19       	sub	r19, r0
    4022:	30 5d       	subi	r19, 0xD0	; 208
    4024:	31 93       	st	Z+, r19
    4026:	de f6       	brtc	.-74     	; 0x3fde <__ultoa_invert+0xe>
    4028:	cf 01       	movw	r24, r30
    402a:	08 95       	ret
    402c:	46 2f       	mov	r20, r22
    402e:	47 70       	andi	r20, 0x07	; 7
    4030:	40 5d       	subi	r20, 0xD0	; 208
    4032:	41 93       	st	Z+, r20
    4034:	b3 e0       	ldi	r27, 0x03	; 3
    4036:	0f d0       	rcall	.+30     	; 0x4056 <__ultoa_invert+0x86>
    4038:	c9 f7       	brne	.-14     	; 0x402c <__ultoa_invert+0x5c>
    403a:	f6 cf       	rjmp	.-20     	; 0x4028 <__ultoa_invert+0x58>
    403c:	46 2f       	mov	r20, r22
    403e:	4f 70       	andi	r20, 0x0F	; 15
    4040:	40 5d       	subi	r20, 0xD0	; 208
    4042:	4a 33       	cpi	r20, 0x3A	; 58
    4044:	18 f0       	brcs	.+6      	; 0x404c <__ultoa_invert+0x7c>
    4046:	49 5d       	subi	r20, 0xD9	; 217
    4048:	31 fd       	sbrc	r19, 1
    404a:	40 52       	subi	r20, 0x20	; 32
    404c:	41 93       	st	Z+, r20
    404e:	02 d0       	rcall	.+4      	; 0x4054 <__ultoa_invert+0x84>
    4050:	a9 f7       	brne	.-22     	; 0x403c <__ultoa_invert+0x6c>
    4052:	ea cf       	rjmp	.-44     	; 0x4028 <__ultoa_invert+0x58>
    4054:	b4 e0       	ldi	r27, 0x04	; 4
    4056:	a6 95       	lsr	r26
    4058:	97 95       	ror	r25
    405a:	87 95       	ror	r24
    405c:	77 95       	ror	r23
    405e:	67 95       	ror	r22
    4060:	ba 95       	dec	r27
    4062:	c9 f7       	brne	.-14     	; 0x4056 <__ultoa_invert+0x86>
    4064:	00 97       	sbiw	r24, 0x00	; 0
    4066:	61 05       	cpc	r22, r1
    4068:	71 05       	cpc	r23, r1
    406a:	08 95       	ret
    406c:	9b 01       	movw	r18, r22
    406e:	ac 01       	movw	r20, r24
    4070:	0a 2e       	mov	r0, r26
    4072:	06 94       	lsr	r0
    4074:	57 95       	ror	r21
    4076:	47 95       	ror	r20
    4078:	37 95       	ror	r19
    407a:	27 95       	ror	r18
    407c:	ba 95       	dec	r27
    407e:	c9 f7       	brne	.-14     	; 0x4072 <__ultoa_invert+0xa2>
    4080:	62 0f       	add	r22, r18
    4082:	73 1f       	adc	r23, r19
    4084:	84 1f       	adc	r24, r20
    4086:	95 1f       	adc	r25, r21
    4088:	a0 1d       	adc	r26, r0
    408a:	08 95       	ret

0000408c <_exit>:
    408c:	f8 94       	cli

0000408e <__stop_program>:
    408e:	ff cf       	rjmp	.-2      	; 0x408e <__stop_program>
